(dp0
I1
(imyfunction
mondai
p1
(dp2
S'wordtime'
p3
S'2017-07-04 14:18:19'
p4
sS'remember'
p5
F0.9967811066578768
sS'imgnum'
p6
S'1.png'
p7
sS'memo'
p8
(lp9
(lp10
F1498515733.947
aS'2017-06-27 07:22:13'
p11
aS'answer 3'
p12
aasS'tag'
p13
(lp14
S'chemistry'
p15
asS'understand'
p16
F0.999316953411003
sS'lasttime'
p17
F1499145499.01
sS'history'
p18
(lp19
(lp20
F1498515733.947
ag11
aI0
aa(lp21
F1499145499.01
ag4
aI1
aasbsI2
(imyfunction
mondai
p22
(dp23
g3
S'2017-07-04 14:33:48'
p24
sg5
F0.0009548136980126638
sg6
S'2.jpg'
p25
sg8
(lp26
S'answer is 3'
p27
asg13
(lp28
g15
asg16
F-0.0009548136980126638
sg17
F1499146428.99
sg18
(lp29
(lp30
F1498545603.881
aS'2017-06-27 15:40:03'
p31
aI0
aa(lp32
F1499146428.99
ag24
aI0
aasbsI3
(imyfunction
mondai
p33
(dp34
g3
S'2017-06-27 15:43:26'
p35
sg5
F0.0009581028595895295
sg6
S'3.jpg'
p36
sg8
(lp37
S'answer is 5'
p38
asg13
(lp39
g15
asg16
F0.0
sg17
F1498545806.078
sg18
(lp40
(lp41
F1498545806.078
ag35
aI0
aasbsI4
(imyfunction
mondai
p42
(dp43
g3
S'2017-06-27 15:46:18'
p44
sg5
F0.00096001467156283
sg6
S'4.jpg'
p45
sg8
(lp46
S'answer is 2'
p47
asg13
(lp48
g15
asg16
F0.0
sg17
F1498545978.31
sg18
(lp49
(lp50
F1498545978.31
ag44
aI0
aasbsI5
(imyfunction
mondai
p51
(dp52
g3
S'2017-06-27 18:22:52'
p53
sg5
F0.0010702835240996155
sg6
S'5.jpg'
p54
sg8
(lp55
S'answer is 3'
p56
asg13
(lp57
g15
asg16
F0.0
sg17
F1498555372.608
sg18
(lp58
(lp59
F1498555372.608
ag53
aI0
aasbsI6
(imyfunction
mondai
p60
(dp61
g3
S'2017-06-27 18:28:51'
p62
sg5
F0.001074742080012341
sg6
S'6.jpg'
p63
sg8
(lp64
S'answer is 5'
p65
asg13
(lp66
g15
asg16
F0.0
sg17
F1498555731.783
sg18
(lp67
(lp68
F1498555731.783
ag62
aI0
aasbsI7
(imyfunction
mondai
p69
(dp70
g3
S'2017-06-28 08:35:33'
p71
sg5
F0.0019349095027071897
sg6
S'7.jpg'
p72
sg8
(lp73
S'answer is 1'
p74
asg13
(lp75
g15
asg16
F0.0
sg17
F1498606533.242
sg18
(lp76
(lp77
F1498606533.242
ag71
aI0
aasbsI8
(imyfunction
mondai
p78
(dp79
g3
S'2017-06-28 11:47:27'
p80
sg5
F0.0022107295677910835
sg6
S'8.jpg'
p81
sg8
(lp82
S'answer is 4'
p83
asg13
(lp84
g15
asg16
F0.0
sg17
F1498618047.081
sg18
(lp85
(lp86
F1498618047.081
ag80
aI0
aasbsI9
(imyfunction
mondai
p87
(dp88
g3
S'2017-06-28 15:24:07'
p89
sg5
F0.0025697177747193685
sg6
S'9.jpg'
p90
sg8
(lp91
S'answer is 2'
p92
asg13
(lp93
g15
asg16
F0.0
sg17
F1498631047.991
sg18
(lp94
(lp95
F1498631047.991
ag89
aI0
aasbsI10
(imyfunction
mondai
p96
(dp97
g3
S'2017-06-28 15:25:58'
p98
sg5
F0.002573004086636614
sg6
S'10.jpg'
p99
sg8
(lp100
S'answer is 4'
p101
asg13
(lp102
g15
asg16
F0.0
sg17
F1498631158.414
sg18
(lp103
(lp104
F1498631158.414
ag98
aI0
aasbsI11
(imyfunction
mondai
p105
(dp106
g3
S'2017-07-04 13:54:14'
p107
sg5
F0.9739566271825352
sg6
S'11.jpg'
p108
sg8
(lp109
(lp110
F1499144054.099
ag107
aS'answer 2,3,2'
p111
aasg13
(lp112
g15
asg16
F0.0
sg17
F1499144054.099
sg18
(lp113
(lp114
F1499144054.099
ag107
aI0
aasbsI12
(imyfunction
mondai
p115
(dp116
g3
S'2017-07-04 14:00:01'
p117
sg5
F0.977882710571452
sg6
S'12.jpg'
p118
sg8
(lp119
(lp120
F1499144401.683
ag117
aS'answer 3'
p121
aasg13
(lp122
g15
asg16
F0.0
sg17
F1499144401.683
sg18
(lp123
(lp124
F1499144401.683
ag117
aI0
aasbsI13
(imyfunction
mondai
p125
(dp126
g3
S'2017-07-04 14:17:31'
p127
sg5
F0.9899274442991812
sg6
S'13.jpg'
p128
sg8
(lp129
(lp130
F1499144716.146
aS'2017-07-04 14:05:16'
p131
aS'answer 3'
p132
aasg13
(lp133
g15
asg16
F0.008471551343691375
sg17
F1499145451.206
sg18
(lp134
F1499144716.146
ag131
aI0
asbsI14
(imyfunction
mondai
p135
(dp136
g3
S'2017-07-04 16:24:59'
p137
sg5
F0.0
sg6
S'14.jpg'
p138
sg8
(lp139
sg13
(lp140
S'math'
p141
asg16
F0.0
sg17
F1499153099.088
sg18
(lp142
(lp143
F1499153099.088
ag137
aI0
aasbsI15
(imyfunction
mondai
p144
(dp145
g3
S'2017-07-04 20:02:05'
p146
sg5
F0.0
sg6
S'15.png'
p147
sg8
(lp148
sg13
(lp149
g141
asg16
F0.0
sg17
F1499166125.188
sg18
(lp150
(lp151
F1499166125.188
ag146
aI0
aasbsI16
(imyfunction
mondai
p152
(dp153
g3
S'2017-07-04 21:08:46'
p154
sg5
F0.0
sg6
S'16.png'
p155
sg8
(lp156
S'\xbb\xad\xcd\xbc\xba\xf3\xd5\xd2\xbd\xbb\xb5\xe3'
p157
asg13
(lp158
S'math'
p159
asg16
F0.0
sg17
F1499170126.383
sg18
(lp160
(lp161
F1499170126.383
ag154
aI0
aasbsI17
(imyfunction
mondai
p162
(dp163
g3
S'2017-07-04 23:19:34'
p164
sg5
F0.0
sg6
S'17.jpg'
p165
sg8
(lp166
S'answer is 4'
p167
asg13
(lp168
S'chemistry'
p169
asg16
F0.0
sg17
F1499177974.623
sg18
(lp170
(lp171
F1499177974.623
ag164
aI0
aasbsI18
(imyfunction
mondai
p172
(dp173
g3
S'2017-07-04 23:22:46'
p174
sg5
F0.0
sg6
S'18.jpg'
p175
sg8
(lp176
S'answer is 1'
p177
asg13
(lp178
g169
asg16
F0.0
sg17
F1499178166.958
sg18
(lp179
(lp180
F1499178166.958
ag174
aI0
aasbsI19
(imyfunction
mondai
p181
(dp182
g3
S'2017-07-05 16:03:21'
p183
sg5
F0.0
sg6
S'19.jpg'
p184
sg8
(lp185
sg13
(lp186
g159
asg16
F0.0
sg17
F1499238201.632
sg18
(lp187
(lp188
F1499238201.632
ag183
aI0
aasbsI20
(imyfunction
mondai
p189
(dp190
g3
S'2017-07-08 19:24:45'
p191
sg5
F0.0
sg6
S'20.jpg'
p192
sg8
(lp193
sg13
(lp194
g159
asg16
F0.2
sg17
F1499509485.541
sg18
(lp195
(lp196
F1499509485.541
ag191
aF0.2
aasbsI21
(imyfunction
mondai
p197
(dp198
g3
S'2017-07-08 21:19:28'
p199
sg5
F0.0
sg6
S'21.jpg'
p200
sg8
(lp201
sg13
(lp202
g169
asg16
F0.5
sg17
F1499516368.113
sg18
(lp203
(lp204
F1499516368.113
ag199
aF0.5
aasbsI22
(imyfunction
mondai
p205
(dp206
g3
S'2017-07-09 01:21:40'
p207
sg5
F0.0
sg6
S'22.jpg'
p208
sg8
(lp209
sg13
(lp210
g169
asg16
F0.0
sg17
F1499530900.691
sg18
(lp211
(lp212
F1499530900.691
ag207
aI0
aasbsI23
(imyfunction
mondai
p213
(dp214
g3
S'2017-07-09 01:22:30'
p215
sg5
F0.0
sg6
S'23.jpg'
p216
sg8
(lp217
sg13
(lp218
g169
asg16
F0.0
sg17
F1499530950.137
sg18
(lp219
(lp220
F1499530950.137
ag215
aI0
aasbsI24
(imyfunction
mondai
p221
(dp222
g3
S'2017-07-09 05:52:16'
p223
sg5
F0.0
sg6
S'24.jpg'
p224
sg8
(lp225
sg13
(lp226
S'chemical'
p227
asg16
F0.0
sg17
F1499547136.371
sg18
(lp228
(lp229
F1499547136.371
ag223
aI0
aasbsI25
(imyfunction
mondai
p230
(dp231
g3
S'2017-07-09 05:56:17'
p232
sg5
F0.0
sg6
S'25.jpg'
p233
sg8
(lp234
sg13
(lp235
g227
asg16
F0.0
sg17
F1499547377.744
sg18
(lp236
(lp237
F1499547377.744
ag232
aI0
aasbsI26
(imyfunction
mondai
p238
(dp239
g3
S'2017-07-09 05:57:03'
p240
sg5
F0.0
sg6
S'26.jpg'
p241
sg8
(lp242
sg13
(lp243
g227
asg16
F0.0
sg17
F1499547423.422
sg18
(lp244
(lp245
F1499547423.422
ag240
aI0
aasbsI27
(imyfunction
mondai
p246
(dp247
g3
S'2017-07-09 05:57:43'
p248
sg5
F0.0
sg6
S'27.jpg'
p249
sg8
(lp250
sg13
(lp251
g227
asg16
F0.0
sg17
F1499547463.182
sg18
(lp252
(lp253
F1499547463.182
ag248
aI0
aasbsI28
(imyfunction
mondai
p254
(dp255
g3
S'2017-07-10 01:03:16'
p256
sg5
F0.0
sg6
S'28.jpg'
p257
sg8
(lp258
sg13
(lp259
g227
asg16
F0.0
sg17
F1499616196.736
sg18
(lp260
(lp261
F1499616196.736
ag256
aI0
aasbsI29
(imyfunction
mondai
p262
(dp263
g3
S'2017-07-10 01:12:12'
p264
sg5
F0.0
sg6
S'29.jpg'
p265
sg8
(lp266
sg13
(lp267
S'math'
p268
asg16
F0.75
sg17
F1499616732.384
sg18
(lp269
(lp270
F1499616732.384
ag264
aF0.75
aasbsI30
(imyfunction
mondai
p271
(dp272
g3
S'2017-07-10 18:58:24'
p273
sg5
F0.0
sg6
S'30.png'
p274
sg8
(lp275
sg13
(lp276
g227
asg16
F0.0
sg17
F1499680704.857
sg18
(lp277
(lp278
F1499680704.857
ag273
aI0
aasbsI31
(imyfunction
mondai
p279
(dp280
g3
S'2017-07-12 03:21:37'
p281
sg5
F0.0
sg6
S'31.jpg'
p282
sg8
(lp283
sg13
(lp284
g268
asg16
F0.45
sg17
F1499797297.774
sg18
(lp285
(lp286
F1499797297.774
ag281
aF0.45
aasbsI32
(imyfunction
mondai
p287
(dp288
g3
S'2017-07-12 03:24:30'
p289
sg5
F0.0
sg6
S'32.jpg'
p290
sg8
(lp291
sg13
(lp292
g268
asg16
F0.05
sg17
F1499797470.167
sg18
(lp293
(lp294
F1499797470.167
ag289
aF0.05
aasbs.