(dp0
I1
(imyfunction
mondai
p1
(dp2
S'wordtime'
p3
S'2017-07-04 14:18:19'
p4
sS'remember'
p5
F0.9967811066578768
sS'imgnum'
p6
S'1.png'
p7
sS'memo'
p8
(lp9
(lp10
F1498515733.947
aS'2017-06-27 07:22:13'
p11
aS'answer 3'
p12
aasS'tag'
p13
(lp14
S'chemistry'
p15
asS'understand'
p16
F0.999316953411003
sS'lasttime'
p17
F1499145499.01
sS'history'
p18
(lp19
(lp20
F1498515733.947
ag11
aI0
aa(lp21
F1499145499.01
ag4
aI1
aasbsI2
(imyfunction
mondai
p22
(dp23
g3
S'2017-07-04 14:33:48'
p24
sg5
F0.0009548136980126638
sg6
S'2.jpg'
p25
sg8
(lp26
S'answer is 3'
p27
asg13
(lp28
g15
asg16
F-0.0009548136980126638
sg17
F1499146428.99
sg18
(lp29
(lp30
F1498545603.881
aS'2017-06-27 15:40:03'
p31
aI0
aa(lp32
F1499146428.99
ag24
aI0
aasbsI3
(imyfunction
mondai
p33
(dp34
g3
S'2017-06-27 15:43:26'
p35
sg5
F0.0009581028595895295
sg6
S'3.jpg'
p36
sg8
(lp37
S'answer is 5'
p38
asg13
(lp39
g15
asg16
F0.0
sg17
F1498545806.078
sg18
(lp40
(lp41
F1498545806.078
ag35
aI0
aasbsI4
(imyfunction
mondai
p42
(dp43
g3
S'2017-06-27 15:46:18'
p44
sg5
F0.00096001467156283
sg6
S'4.jpg'
p45
sg8
(lp46
S'answer is 2'
p47
asg13
(lp48
g15
asg16
F0.0
sg17
F1498545978.31
sg18
(lp49
(lp50
F1498545978.31
ag44
aI0
aasbsI5
(imyfunction
mondai
p51
(dp52
g3
S'2017-06-27 18:22:52'
p53
sg5
F0.0010702835240996155
sg6
S'5.jpg'
p54
sg8
(lp55
S'answer is 3'
p56
asg13
(lp57
g15
asg16
F0.0
sg17
F1498555372.608
sg18
(lp58
(lp59
F1498555372.608
ag53
aI0
aasbsI6
(imyfunction
mondai
p60
(dp61
g3
S'2017-06-27 18:28:51'
p62
sg5
F0.001074742080012341
sg6
S'6.jpg'
p63
sg8
(lp64
S'answer is 5'
p65
asg13
(lp66
g15
asg16
F0.0
sg17
F1498555731.783
sg18
(lp67
(lp68
F1498555731.783
ag62
aI0
aasbsI7
(imyfunction
mondai
p69
(dp70
g3
S'2017-06-28 08:35:33'
p71
sg5
F0.0019349095027071897
sg6
S'7.jpg'
p72
sg8
(lp73
S'answer is 1'
p74
asg13
(lp75
g15
asg16
F0.0
sg17
F1498606533.242
sg18
(lp76
(lp77
F1498606533.242
ag71
aI0
aasbsI8
(imyfunction
mondai
p78
(dp79
g3
S'2017-06-28 11:47:27'
p80
sg5
F0.0022107295677910835
sg6
S'8.jpg'
p81
sg8
(lp82
S'answer is 4'
p83
asg13
(lp84
g15
asg16
F0.0
sg17
F1498618047.081
sg18
(lp85
(lp86
F1498618047.081
ag80
aI0
aasbsI9
(imyfunction
mondai
p87
(dp88
g3
S'2017-06-28 15:24:07'
p89
sg5
F0.0025697177747193685
sg6
S'9.jpg'
p90
sg8
(lp91
S'answer is 2'
p92
asg13
(lp93
g15
asg16
F0.0
sg17
F1498631047.991
sg18
(lp94
(lp95
F1498631047.991
ag89
aI0
aasbsI10
(imyfunction
mondai
p96
(dp97
g3
S'2017-06-28 15:25:58'
p98
sg5
F0.002573004086636614
sg6
S'10.jpg'
p99
sg8
(lp100
S'answer is 4'
p101
asg13
(lp102
g15
asg16
F0.0
sg17
F1498631158.414
sg18
(lp103
(lp104
F1498631158.414
ag98
aI0
aasbsI11
(imyfunction
mondai
p105
(dp106
g3
S'2017-07-04 13:54:14'
p107
sg5
F0.9739566271825352
sg6
S'11.jpg'
p108
sg8
(lp109
(lp110
F1499144054.099
ag107
aS'answer 2,3,2'
p111
aasg13
(lp112
g15
asg16
F0.0
sg17
F1499144054.099
sg18
(lp113
(lp114
F1499144054.099
ag107
aI0
aasbsI12
(imyfunction
mondai
p115
(dp116
g3
S'2017-07-04 14:00:01'
p117
sg5
F0.977882710571452
sg6
S'12.jpg'
p118
sg8
(lp119
(lp120
F1499144401.683
ag117
aS'answer 3'
p121
aasg13
(lp122
g15
asg16
F0.0
sg17
F1499144401.683
sg18
(lp123
(lp124
F1499144401.683
ag117
aI0
aasbsI13
(imyfunction
mondai
p125
(dp126
g3
S'2017-07-04 14:17:31'
p127
sg5
F0.9899274442991812
sg6
S'13.jpg'
p128
sg8
(lp129
(lp130
F1499144716.146
aS'2017-07-04 14:05:16'
p131
aS'answer 3'
p132
aasg13
(lp133
g15
asg16
F0.008471551343691375
sg17
F1499145451.206
sg18
(lp134
F1499144716.146
ag131
aI0
asbs.