(dp0
I1
(imyfunction
mondai
p1
(dp2
S'wordtime'
p3
S'2017-06-27 07:22:13'
p4
sS'remember'
p5
F0.0
sS'imgnum'
p6
S'1.png'
p7
sS'memo'
p8
(lp9
sS'tag'
p10
(lp11
sS'understand'
p12
F0.0
sS'lasttime'
p13
F1498515733.947
sS'history'
p14
(lp15
(lp16
F1498515733.947
ag4
aI0
aasbs.