(dp0
I1
(imyfunction
mondai
p1
(dp2
S'wordtime'
p3
S'2017-06-27 07:22:13'
p4
sS'remember'
p5
F0.0
sS'imgnum'
p6
S'1.png'
p7
sS'memo'
p8
(lp9
sS'tag'
p10
(lp11
sS'understand'
p12
F0.0
sS'lasttime'
p13
F1498515733.947
sS'history'
p14
(lp15
(lp16
F1498515733.947
ag4
aI0
aasbsI2
(imyfunction
mondai
p17
(dp18
g3
S'2017-06-27 15:40:03'
p19
sg5
F0.0
sg6
S'2.jpg'
p20
sg8
(lp21
S'answer is 3'
p22
asg10
(lp23
sg12
F0.0
sg13
F1498545603.881
sg14
(lp24
(lp25
F1498545603.881
ag19
aI0
aasbsI3
(imyfunction
mondai
p26
(dp27
g3
S'2017-06-27 15:43:26'
p28
sg5
F0.0
sg6
S'3.jpg'
p29
sg8
(lp30
S'answer is 5'
p31
asg10
(lp32
sg12
F0.0
sg13
F1498545806.078
sg14
(lp33
(lp34
F1498545806.078
ag28
aI0
aasbsI4
(imyfunction
mondai
p35
(dp36
g3
S'2017-06-27 15:46:18'
p37
sg5
F0.0
sg6
S'4.jpg'
p38
sg8
(lp39
S'answer is 2'
p40
asg10
(lp41
sg12
F0.0
sg13
F1498545978.31
sg14
(lp42
(lp43
F1498545978.31
ag37
aI0
aasbsI5
(imyfunction
mondai
p44
(dp45
g3
S'2017-06-27 18:22:52'
p46
sg5
F0.0
sg6
S'5.jpg'
p47
sg8
(lp48
S'answer is 3'
p49
asg10
(lp50
sg12
F0.0
sg13
F1498555372.608
sg14
(lp51
(lp52
F1498555372.608
ag46
aI0
aasbsI6
(imyfunction
mondai
p53
(dp54
g3
S'2017-06-27 18:28:51'
p55
sg5
F0.0
sg6
S'6.jpg'
p56
sg8
(lp57
S'answer is 5'
p58
asg10
(lp59
sg12
F0.0
sg13
F1498555731.783
sg14
(lp60
(lp61
F1498555731.783
ag55
aI0
aasbsI7
(imyfunction
mondai
p62
(dp63
g3
S'2017-06-28 08:35:33'
p64
sg5
F0.0
sg6
S'7.jpg'
p65
sg8
(lp66
S'answer is 1'
p67
asg10
(lp68
sg12
F0.0
sg13
F1498606533.242
sg14
(lp69
(lp70
F1498606533.242
ag64
aI0
aasbsI8
(imyfunction
mondai
p71
(dp72
g3
S'2017-06-28 11:47:27'
p73
sg5
F0.0
sg6
S'8.jpg'
p74
sg8
(lp75
S'answer is 4'
p76
asg10
(lp77
sg12
F0.0
sg13
F1498618047.081
sg14
(lp78
(lp79
F1498618047.081
ag73
aI0
aasbsI9
(imyfunction
mondai
p80
(dp81
g3
S'2017-06-28 15:24:07'
p82
sg5
F0.0
sg6
S'9.jpg'
p83
sg8
(lp84
S'answer is 2'
p85
asg10
(lp86
sg12
F0.0
sg13
F1498631047.991
sg14
(lp87
(lp88
F1498631047.991
ag82
aI0
aasbsI10
(imyfunction
mondai
p89
(dp90
g3
S'2017-06-28 15:25:58'
p91
sg5
F0.0
sg6
S'10.jpg'
p92
sg8
(lp93
S'answer is 4'
p94
asg10
(lp95
sg12
F0.0
sg13
F1498631158.414
sg14
(lp96
(lp97
F1498631158.414
ag91
aI0
aasbs.