(dp0
I1
(imyfunction
mondai
p1
(dp2
S'wordtime'
p3
S'2017-11-10 01:22:58'
p4
sS'remember'
p5
F0.8500800588260464
sS'imgnum'
p6
S'1.png'
p7
sS'memo'
p8
(lp9
(lp10
F1498515733.947
aS'2017-06-27 07:22:13'
p11
aS'answer 3'
p12
aasS'tag'
p13
(lp14
S'chemistry'
p15
asS'understand'
p16
F1.9993091437638262
sS'lasttime'
p17
F1510244578.211
sS'qusnum'
p18
I1
sS'history'
p19
(lp20
(lp21
F1498515733.947
ag11
aI0
aa(lp22
F1499145499.01
aS'2017-07-04 14:18:19'
p23
aI1
aa(lp24
F1507198633.675
aS'2017-10-05 19:17:13'
p25
aF0.0
aa(lp26
F1510244578.211
ag4
aF1.0
aasbsI2
(imyfunction
mondai
p27
(dp28
g3
S'2017-11-09 05:59:09'
p29
sg5
F0.7769626144338408
sg6
S'2.jpg'
p30
sg8
(lp31
S'answer is 3'
p32
aS'0'
p33
asg13
(lp34
g15
asg16
F1.9990424026921279
sg17
F1510174749.893
sg18
I1
sg19
(lp35
(lp36
F1498545603.881
aS'2017-06-27 15:40:03'
p37
aI0
aa(lp38
F1499146428.99
aS'2017-07-04 14:33:48'
p39
aI0
aa(lp40
F1506862601.36
aS'2017-10-01 21:56:41'
p41
aF1.0
aa(lp42
F1510174749.893
ag29
aF1.0
aasbsI3
(imyfunction
mondai
p43
(dp44
g3
S'2017-11-10 01:38:01'
p45
sg5
F0.8511748814516326
sg6
S'3.jpg'
p46
sg8
(lp47
S'answer is 5'
p48
asg13
(lp49
g15
asg16
F1.9999896589709496
sg17
F1510245481.829
sg18
I1
sg19
(lp50
(lp51
F1498545806.078
aS'2017-06-27 15:43:26'
p52
aI0
aa(lp53
F1499798275.889
aS'2017-07-12 03:37:55'
p54
aI1
aa(lp55
F1507257014.144
aS'2017-10-06 11:30:14'
p56
aF0.0
aa(lp57
F1510245481.829
ag45
aF1.0
aasbsI4
(imyfunction
mondai
p58
(dp59
g3
S'2017-11-10 01:39:02'
p60
sg5
F0.8512417996105293
sg6
S'4.jpg'
p61
sg8
(lp62
S'answer is 2'
p63
asg13
(lp64
g15
asg16
F1.9999896568544426
sg17
F1510245542.96
sg18
I1
sg19
(lp65
(lp66
F1498545978.31
aS'2017-06-27 15:46:18'
p67
aI0
aa(lp68
F1499798420.515
aS'2017-07-12 03:40:20'
p69
aI1
aa(lp70
F1507257126.788
aS'2017-10-06 11:32:06'
p71
aF0.0
aa(lp72
F1510245542.96
ag60
aF1.0
aasbsI5
(imyfunction
mondai
p73
(dp74
g3
S'2017-10-06 11:32:40'
p75
sg5
F0.018239890369020927
sg6
S'5.jpg'
p76
sg8
(lp77
S'answer is 3'
p78
asg13
(lp79
g15
asg16
F1.9999994359480904
sg17
F1507257160.377
sg18
I1
sg19
(lp80
(lp81
F1498555372.608
aS'2017-06-27 18:22:52'
p82
aI0
aa(lp83
F1499798506.186
aS'2017-07-12 03:41:46'
p84
aI1
aa(lp85
F1507257160.377
ag75
aF1.0
aasbsI6
(imyfunction
mondai
p86
(dp87
g3
S'2017-10-06 11:35:03'
p88
sg5
F0.018243248532445796
sg6
S'6.jpg'
p89
sg8
(lp90
S'answer is 5'
p91
asg13
(lp92
g15
asg16
F1.999999434604304
sg17
F1507257303.532
sg18
I1
sg19
(lp93
(lp94
F1498555731.783
aS'2017-06-27 18:28:51'
p95
aI0
aa(lp96
F1499798659.768
aS'2017-07-12 03:44:19'
p97
aI1
aa(lp98
F1507257303.532
ag88
aF1.0
aasbsI7
(imyfunction
mondai
p99
(dp100
g3
S'2017-10-06 11:36:30'
p101
sg5
F0.018245260003550704
sg6
S'7.jpg'
p102
sg8
(lp103
S'answer is 1'
p104
asg13
(lp105
g15
asg16
F1.9999989826526265
sg17
F1507257390.81
sg18
I1
sg19
(lp106
(lp107
F1498606533.242
aS'2017-06-28 08:35:33'
p108
aI0
aa(lp109
F1499798707.42
aS'2017-07-12 03:45:07'
p110
aI1
aa(lp111
F1507257390.81
ag101
aF1.0
aasbsI8
(imyfunction
mondai
p112
(dp113
g3
S'2017-10-06 11:37:55'
p114
sg5
F0.018247228150295943
sg6
S'8.jpg'
p115
sg8
(lp116
S'answer is 4'
p117
asg13
(lp118
g15
asg16
F1.9999988380450375
sg17
F1507257475.181
sg18
I1
sg19
(lp119
(lp120
F1498618047.081
aS'2017-06-28 11:47:27'
p121
aI0
aa(lp122
F1499798738.24
aS'2017-07-12 03:45:38'
p123
aI1
aa(lp124
F1507257475.181
ag114
aF1.0
aasbsI9
(imyfunction
mondai
p125
(dp126
g3
S'2017-11-09 06:02:05'
p127
sg5
F0.7773434274610833
sg6
S'9.jpg'
p128
sg8
(lp129
S'answer is 2'
p130
asg13
(lp131
g15
asg16
F1.9999971893537065
sg17
F1510174925.191
sg18
I1
sg19
(lp132
(lp133
F1498631047.991
aS'2017-06-28 15:24:07'
p134
aI0
aa(lp135
F1506861805.88
aS'2017-10-01 21:43:25'
p136
aF1.0
aa(lp137
F1510174925.191
ag127
aF1.0
aasbsI10
(imyfunction
mondai
p138
(dp139
g3
S'2017-11-09 06:04:01'
p140
sg5
F0.7774601229987282
sg6
S'10.jpg'
p141
sg8
(lp142
S'answer is 4'
p143
aS'0'
p144
asg13
(lp145
g15
asg16
F1.9999971843910664
sg17
F1510175041.917
sg18
I1
sg19
(lp146
(lp147
F1498631158.414
aS'2017-06-28 15:25:58'
p148
aI0
aa(lp149
F1506862379.862
aS'2017-10-01 21:52:59'
p150
aF1.0
aa(lp151
F1510175041.917
ag140
aF1.0
aasbsI11
(imyfunction
mondai
p152
(dp153
g3
S'2017-11-08 02:40:58'
p154
sg5
F0.5770042322448221
sg6
S'11.jpg'
p155
sg8
(lp156
(lp157
F1499144054.099
aS'2017-07-04 13:54:14'
p158
aS'answer 2,3,2'
p159
aasg13
(lp160
g15
asg16
F1.659999984947714
sg17
F1510076458.722
sg18
I3
sg19
(lp161
(lp162
F1499144054.099
ag158
aI0
aa(lp163
F1506863025.03
aS'2017-10-01 22:03:45'
p164
aF0.66
aa(lp165
F1510076458.722
ag154
aF1.0
aasbsI12
(imyfunction
mondai
p166
(dp167
g3
S'2017-11-09 06:10:31'
p168
sg5
F0.7778495881694805
sg6
S'12.jpg'
p169
sg8
(lp170
(lp171
F1499144401.683
aS'2017-07-04 14:00:01'
p172
aS'answer 3'
p173
aasg13
(lp174
g15
asg16
F1.9999971774088379
sg17
F1510175431.355
sg18
I1
sg19
(lp175
(lp176
F1499144401.683
ag172
aI0
aa(lp177
F1506863411.276
aS'2017-10-01 22:10:11'
p178
aF1.0
aa(lp179
F1510175431.355
ag168
aF1.0
aasbsI13
(imyfunction
mondai
p180
(dp181
g3
S'2017-11-09 06:35:34'
p182
sg5
F0.7811567977905653
sg6
S'13.jpg'
p183
sg8
(lp184
(lp185
F1499144716.146
aS'2017-07-04 14:05:16'
p186
aS'answer 3'
p187
aasg13
(lp188
g15
asg16
F2.0084683106613053
sg17
F1510176934.825
sg18
I1
sg19
(lp189
F1499144716.146
ag186
aI0
a(lp190
F1506870083.757
aS'2017-10-02 00:01:23'
p191
aF1.0
aa(lp192
F1510176934.825
ag182
aF1.0
aasbsI14
(imyfunction
mondai
p193
(dp194
g3
S'2017-11-09 06:13:06'
p195
sg5
F0.470920539753981
sg6
S'14.jpg'
p196
sg8
(lp197
sg13
(lp198
S'math'
p199
asg16
F0.9999971718664313
sg17
F1510175586.982
sg18
I1
sg19
(lp200
(lp201
F1499153099.088
aS'2017-07-04 16:24:59'
p202
aI0
aa(lp203
F1506864075.366
aS'2017-10-01 22:21:15'
p204
aF1.0
aa(lp205
F1510175586.982
ag195
aF0.0
aasbsI15
(imyfunction
mondai
p206
(dp207
g3
S'2017-11-09 06:13:34'
p208
sg5
F0.7780329778073136
sg6
S'15.png'
p209
sg8
(lp210
sg13
(lp211
g199
asg16
F1.9999971616315089
sg17
F1510175614.667
sg18
I1
sg19
(lp212
(lp213
F1499166125.188
aS'2017-07-04 20:02:05'
p214
aI0
aa(lp215
F1506865039.394
aS'2017-10-01 22:37:19'
p216
aF1.0
aa(lp217
F1510175614.667
ag208
aF1.0
aasbsI16
(imyfunction
mondai
p218
(dp219
g3
S'2017-11-08 02:49:08'
p220
sg5
F0.13689534829267272
sg6
S'16.png'
p221
sg8
(lp222
S'\xbb\xad\xcd\xbc\xba\xf3\xd5\xd2\xbd\xbb\xb5\xe3'
p223
asg13
(lp224
S'math'
p225
asg16
F0.48845449312673217
sg17
F1510076948.597
sg18
I1
sg19
(lp226
(lp227
F1499170126.383
aS'2017-07-04 21:08:46'
p228
aI0
aa(lp229
F1506867140.211
aS'2017-10-01 23:12:20'
p230
aF0.5
aa(lp231
F1507534794.363
aS'2017-10-09 16:39:54'
p232
aF0.0
aa(lp233
F1510076948.597
ag220
aF0.0
aasbsI17
(imyfunction
mondai
p234
(dp235
g3
S'2017-11-09 06:16:55'
p236
sg5
F0.7782335663144038
sg6
S'17.jpg'
p237
sg8
(lp238
S'answer is 4'
p239
asg13
(lp240
S'chemistry'
p241
asg16
F1.9999971355591923
sg17
F1510175815.123
sg18
I1
sg19
(lp242
(lp243
F1499177974.623
aS'2017-07-04 23:19:34'
p244
aI0
aa(lp245
F1506867609.907
aS'2017-10-01 23:20:09'
p246
aF1.0
aa(lp247
F1510175815.123
ag236
aF1.0
aasbsI18
(imyfunction
mondai
p248
(dp249
g3
S'2017-11-09 06:19:35'
p250
sg5
F0.7783938832122589
sg6
S'18.jpg'
p251
sg8
(lp252
S'answer is 1'
p253
asg13
(lp254
g241
asg16
F1.9999971186511467
sg17
F1510175975.296
sg18
I1
sg19
(lp255
(lp256
F1499178166.958
aS'2017-07-04 23:22:46'
p257
aI0
aa(lp258
F1506869295.572
aS'2017-10-01 23:48:15'
p259
aF1.0
aa(lp260
F1510175975.296
ag250
aF1.0
aasbsI19
(imyfunction
mondai
p261
(dp262
g3
S'2017-11-10 21:31:51'
p263
sg5
F0.5371437860172323
sg6
S'19.jpg'
p264
sg8
(lp265
sg13
(lp266
g225
asg16
F-0.00046385259296134783
sg17
F1510317111.725
sg18
I1
sg19
(lp267
(lp268
F1499238201.632
aS'2017-07-05 16:03:21'
p269
aI0
aa(lp270
F1506870571.946
aS'2017-10-02 00:09:31'
p271
aF0.0
aa(lp272
F1507533773.486
aS'2017-10-09 16:22:53'
p273
aF0.0
aa(lp274
F1509828586.897
aS'2017-11-05 05:49:46'
p275
aF0.0
aa(lp276
F1510317111.725
ag263
aF0.0034926146518221945
aasbsI20
(imyfunction
mondai
p277
(dp278
g3
S'2017-11-10 04:17:50'
p279
sg5
F0.698823962716122
sg6
S'20.jpg'
p280
sg8
(lp281
sg13
(lp282
g225
asg16
F1.2
sg17
F1510255070.117
sg18
I9
sg19
(lp283
(lp284
F1499509485.541
aS'2017-07-08 19:24:45'
p285
aF0.2
aa(lp286
F1506953525.889
aS'2017-10-02 23:12:05'
p287
aF1.0
aa(lp288
F1510255070.117
ag279
aF3.6257228230155554e-05
aasbsI21
(imyfunction
mondai
p289
(dp290
g3
S'2017-11-10 00:48:02'
p291
sg5
F0.6095843664502467
sg6
S'21.jpg'
p292
sg8
(lp293
sg13
(lp294
g241
asg16
F1.0
sg17
F1510242482.781
sg18
I2
sg19
(lp295
(lp296
F1499516368.113
aS'2017-07-08 21:19:28'
p297
aF0.5
aa(lp298
F1506960420.575
aS'2017-10-03 01:07:00'
p299
aF0.5
aa(lp300
F1510242482.781
ag291
aF3.168421545306915e-06
aasbsI22
(imyfunction
mondai
p301
(dp302
g3
S'2017-11-10 12:06:47'
p303
sg5
F0.713255731305511
sg6
S'22.jpg'
p304
sg8
(lp305
sg13
(lp306
g241
asg16
F0.9998515159322269
sg17
F1510283207.711
sg18
I1
sg19
(lp307
(lp308
F1499530900.691
aS'2017-07-09 01:21:40'
p309
aI0
aa(lp310
F1506870697.511
aS'2017-10-02 00:11:37'
p311
aF0.0
aa(lp312
F1509521588.869
aS'2017-11-01 16:33:08'
p313
aF0.0
aa(lp314
F1510283207.711
ag303
aF1.0
aasbsI23
(imyfunction
mondai
p315
(dp316
g3
S'2017-11-04 21:09:48'
p317
sg5
F0.10946382710203494
sg6
S'23.jpg'
p318
sg8
(lp319
sg13
(lp320
g241
asg16
F0.999999999999998
sg17
F1509797388.893
sg18
I1
sg19
(lp321
(lp322
F1499530950.137
aS'2017-07-09 01:22:30'
p323
aI0
aa(lp324
F1506870960.973
aS'2017-10-02 00:16:00'
p325
aF0.0
aa(lp326
F1509797388.893
ag317
aF1.0
aasbsI24
(imyfunction
mondai
p327
(dp328
g3
S'2017-11-09 06:23:59'
p329
sg5
F0.7786588644215895
sg6
S'24.jpg'
p330
sg8
(lp331
sg13
(lp332
S'chemistry'
p333
asg16
F1.9999971002688575
sg17
F1510176239.965
sg18
I1
sg19
(lp334
(lp335
F1499547136.371
aS'2017-07-09 05:52:16'
p336
aI0
aa(lp337
F1506871208.62
aS'2017-10-02 00:20:08'
p338
aF1.0
aa(lp339
F1510176239.965
ag329
aF1.0
aasbsI25
(imyfunction
mondai
p340
(dp341
g3
S'2017-11-04 21:12:20'
p342
sg5
F0.10952774146236839
sg6
S'25.jpg'
p343
sg8
(lp344
sg13
(lp345
g333
asg16
F0.999999999999998
sg17
F1509797540.192
sg18
I1
sg19
(lp346
(lp347
F1499547377.744
aS'2017-07-09 05:56:17'
p348
aI0
aa(lp349
F1506871351.16
aS'2017-10-02 00:22:31'
p350
aF0.0
aa(lp351
F1509797540.192
ag342
aF1.0
aasbsI26
(imyfunction
mondai
p352
(dp353
g3
S'2017-11-04 21:13:38'
p354
sg5
F0.10956083592443251
sg6
S'26.jpg'
p355
sg8
(lp356
sg13
(lp357
g333
asg16
F0.999999999999998
sg17
F1509797618.499
sg18
I1
sg19
(lp358
(lp359
F1499547423.422
aS'2017-07-09 05:57:03'
p360
aI0
aa(lp361
F1506871509.021
aS'2017-10-02 00:25:09'
p362
aF0.0
aa(lp363
F1509797618.499
ag354
aF1.0
aasbsI27
(imyfunction
mondai
p364
(dp365
g3
S'2017-11-09 06:27:07'
p366
sg5
F0.778846997594539
sg6
S'27.jpg'
p367
sg8
(lp368
sg13
(lp369
g333
asg16
F1.9999970958069908
sg17
F1510176427.82
sg18
I1
sg19
(lp370
(lp371
F1499547463.182
aS'2017-07-09 05:57:43'
p372
aI0
aa(lp373
F1506871795.004
aS'2017-10-02 00:29:55'
p374
aF1.0
aa(lp375
F1510176427.82
ag366
aF1.0
aasbsI28
(imyfunction
mondai
p376
(dp377
g3
S'2017-11-09 06:27:56'
p378
sg5
F0.7788952994766489
sg6
S'28.jpg'
p379
sg8
(lp380
sg13
(lp381
g333
asg16
F1.9999970953274455
sg17
F1510176476.043
sg18
I1
sg19
(lp382
(lp383
F1499616196.736
aS'2017-07-10 01:03:16'
p384
aI0
aa(lp385
F1506871886.023
aS'2017-10-02 00:31:26'
p386
aF1.0
aa(lp387
F1510176476.043
ag378
aF1.0
aasbsI29
(imyfunction
mondai
p388
(dp389
g3
S'2017-11-10 17:47:01'
p390
sg5
F0.8679707748682138
sg6
S'29.jpg'
p391
sg8
(lp392
sg13
(lp393
S'math'
p394
asg16
F1.55
sg17
F1510303621.712
sg18
I5
sg19
(lp395
(lp396
F1499616732.384
aS'2017-07-10 01:12:12'
p397
aF0.75
aa(lp398
F1507133998.435
aS'2017-10-05 01:19:58'
p399
aF0.8
aa(lp400
F1510303621.712
ag390
aF0.0012523149575140477
aasbsI30
(imyfunction
mondai
p401
(dp402
g3
S'2017-11-09 06:28:42'
p403
sg5
F0.7789415218769614
sg6
S'30.png'
p404
sg8
(lp405
sg13
(lp406
g333
asg16
F1.9999970954033226
sg17
F1510176522.187
sg18
I1
sg19
(lp407
(lp408
F1499680704.857
aS'2017-07-10 18:58:24'
p409
aI0
aa(lp410
F1506871925.396
aS'2017-10-02 00:32:05'
p411
aF1.0
aa(lp412
F1510176522.187
ag403
aF1.0
aasbsI31
(imyfunction
mondai
p413
(dp414
g3
S'2017-11-08 02:57:56'
p415
sg5
F0.22554491271519672
sg6
S'31.jpg'
p416
sg8
(lp417
sg13
(lp418
g394
asg16
F0.7499998687086434
sg17
F1510077476.955
sg18
I10
sg19
(lp419
(lp420
F1499797297.774
aS'2017-07-12 03:21:37'
p421
aF0.45
aa(lp422
F1506956646.764
aS'2017-10-03 00:04:06'
p423
aF0.3
aa(lp424
F1510077476.955
ag415
aI0
aasbsI32
(imyfunction
mondai
p425
(dp426
g3
S'2017-11-08 03:25:45'
p427
sg5
F0.6267505163387295
sg6
S'32.jpg'
p428
sg8
(lp429
sg13
(lp430
g394
asg16
F1.7999997021333627
sg17
F1510079145.189
sg18
I4
sg19
(lp431
(lp432
F1499797470.167
aS'2017-07-12 03:24:30'
p433
aF0.05
aa(lp434
F1506952547.162
aS'2017-10-02 22:55:47'
p435
aF0.75
aa(lp436
F1510079145.189
ag427
aF1.0
aasbsI33
(imyfunction
mondai
p437
(dp438
g3
S'2017-11-10 00:47:57'
p439
sg5
F0.6095711848017183
sg6
S'33.jpg'
p440
sg8
(lp441
sg13
(lp442
S'physics'
p443
asg16
F1.0
sg17
F1510242477.176
sg18
I1
sg19
(lp444
(lp445
F1500064604.639
aS'2017-07-15 05:36:44'
p446
aI0
aa(lp447
F1506951237.584
aS'2017-10-02 22:33:57'
p448
aF1.0
aa(lp449
F1510242477.176
ag439
aF3.0582013433489607e-06
aasbsI34
(imyfunction
mondai
p450
(dp451
g3
S'2017-11-11 12:18:53'
p452
sg5
F0.9953400236557598
sg6
S'34.jpg'
p453
sg8
(lp454
sg13
(lp455
S'physical'
p456
asg16
F0.0999999999998754
sg17
F1510370333.444
sg18
I9
sg19
(lp457
(lp458
F1502980173.751
aS'2017-08-17 23:29:33'
p459
aF0.0
aa(lp460
F1506961022.079
aS'2017-10-03 01:17:02'
p461
aF0.1
aa(lp462
F1509826394.119
aS'2017-11-05 05:13:14'
p463
aI0
aa(lp464
F1510370333.444
ag452
aF0.003550770207096668
aasbsI35
(imyfunction
mondai
p465
(dp466
g3
S'2017-11-10 17:46:46'
p467
sg5
F0.8610229948737954
sg6
S'35.jpeg'
p468
sg8
(lp469
sg13
(lp470
S'physical'
p471
asg16
F1.49999999999965
sg17
F1510303606.019
sg18
I2
sg19
(lp472
(lp473
F1502986373.885
aS'2017-08-18 01:12:53'
p474
aF0.5
aa(lp475
F1507278514.74
aS'2017-10-06 17:28:34'
p476
aF1.0
aa(lp477
F1510303606.019
ag467
aF0.001184796925613612
aasbsI36
(imyfunction
mondai
p478
(dp479
g3
S'2017-11-05 03:29:36'
p480
sg5
F0.06107326143144926
sg6
S'36.jpeg'
p481
sg8
(lp482
sg13
(lp483
S'physical'
p484
asg16
F0.7499999999999987
sg17
F1509820176.122
sg18
I0
sg19
(lp485
(lp486
F1503074370.742
aS'2017-08-19 01:39:30'
p487
aF0.75
aa(lp488
F1509820176.122
ag480
aF0.0
aasbsI37
(imyfunction
mondai
p489
(dp490
g3
S'2017-11-10 00:47:54'
p491
sg5
F0.5755079489651845
sg6
S'37.jpeg'
p492
sg8
(lp493
sg13
(lp494
S'physical'
p495
asg16
F0.8999999999889152
sg17
F1510242474.931
sg18
I3
sg19
(lp496
(lp497
F1503075931.234
aS'2017-08-19 02:05:31'
p498
aF0.6
aa(lp499
F1507289261.527
aS'2017-10-06 20:27:41'
p500
aF0.3
aa(lp501
F1510242474.931
ag491
aF3.000811606169686e-06
aasbsI38
(imyfunction
mondai
p502
(dp503
g3
S'2017-11-05 04:29:12'
p504
sg5
F0.07214586030151927
sg6
S'38.jpeg'
p505
sg8
(lp506
sg13
(lp507
S'physical'
p508
asg16
F0.7999999999999916
sg17
F1509823752.627
sg19
(lp509
(lp510
F1503080033.486
aS'2017-08-19 03:13:53'
p511
aF0.8
aa(lp512
F1509823752.627
ag504
aI0
aasbsI39
(imyfunction
mondai
p513
(dp514
g3
S'2017-11-05 03:55:14'
p515
sg5
F0.0615522551868348
sg6
S'39.jpeg'
p516
sg8
(lp517
sg13
(lp518
S'physical'
p519
asg16
F0.7499999999999987
sg17
F1509821714.758
sg19
(lp520
(lp521
F1503081729.58
aS'2017-08-19 03:42:09'
p522
aF0.75
aa(lp523
F1509821714.758
ag515
aI0
aasbsI40
(imyfunction
mondai
p524
(dp525
g3
S'2017-11-05 05:13:17'
p526
sg5
F0.09592916677191571
sg6
S'40.jpeg'
p527
sg8
(lp528
sg13
(lp529
S'physical'
p530
asg16
F0.8999999999997552
sg17
F1509826397.326
sg19
(lp531
(lp532
F1503082748.531
aS'2017-08-19 03:59:08'
p533
aF0.9
aa(lp534
F1509826397.326
ag526
aI0
aasbsI41
(imyfunction
mondai
p535
(dp536
g3
S'2017-11-08 02:57:51'
p537
sg5
F0.17272044368185946
sg6
S'41.jpg'
p538
sg8
(lp539
sg13
(lp540
S'physical'
p541
asg16
F0.5999999433621535
sg17
F1510077471.085
sg18
I2
sg19
(lp542
(lp543
F1503222950.967
aS'2017-08-20 18:55:50'
p544
aF0.6
aa(lp545
F1507290283.108
aS'2017-10-06 20:44:43'
p546
aF0.0
aa(lp547
F1510077471.085
ag537
aI0
aasbsI42
(imyfunction
mondai
p548
(dp549
g3
S'2017-11-11 12:19:31'
p550
sg5
F0.9961744773459031
sg6
S'42.jpg'
p551
sg8
(lp552
sg13
(lp553
S'physical'
p554
asg16
F0.1999999999863407
sg17
F1510370371.335
sg18
I4
sg19
(lp555
(lp556
F1503226800.354
aS'2017-08-20 20:00:00'
p557
aF0.2
aa(lp558
F1507136143.167
aS'2017-10-05 01:55:43'
p559
aF0.0
aa(lp560
F1509828709.84
aS'2017-11-05 05:51:49'
p561
aI0
aa(lp562
F1510370371.335
ag550
aF0.006522016348140497
aasbsI43
(imyfunction
mondai
p563
(dp564
g3
S'2017-11-10 20:59:56'
p565
sg5
F0.5242985110001989
sg6
S'43.png'
p566
sg8
(lp567
sg13
(lp568
S'chemistry'
p569
asg16
F-0.003319270635363292
sg17
F1510315196.155
sg18
I1
sg19
(lp570
(lp571
F1503232569.843
aS'2017-08-20 21:36:09'
p572
aF0.0
aa(lp573
F1506961237.95
aS'2017-10-03 01:20:37'
p574
aF0.0
aa(lp575
F1509822024.073
aS'2017-11-05 04:00:24'
p576
aF0.0
aa(lp577
F1510315196.155
ag565
aF0.0
aasbsI44
(imyfunction
mondai
p578
(dp579
g3
S'2017-11-06 19:21:32'
p580
sg5
F0.06585592860195988
sg6
S'44.png'
p581
sg8
(lp582
sg13
(lp583
S'chemistry'
p584
asg16
F0.4999999835560617
sg17
F1509963692.496
sg18
I1
sg19
(lp585
(lp586
F1503233740.794
aS'2017-08-20 21:55:40'
p587
aF0.5
aa(lp588
F1507281467.536
aS'2017-10-06 18:17:47'
p589
aF0.0
aa(lp590
F1509963692.496
ag580
aI0
aasbsI45
(imyfunction
mondai
p591
(dp592
g3
S'2017-11-10 21:01:16'
p593
sg5
F0.8065987897878482
sg6
S'45.png'
p594
sg8
(lp595
sg13
(lp596
S'chemistry'
p597
asg16
F0.9966360255419314
sg17
F1510315276.994
sg18
I1
sg19
(lp598
(lp599
F1503244261.055
aS'2017-08-21 00:51:01'
p600
aF0.0
aa(lp601
F1506961481.977
aS'2017-10-03 01:24:41'
p602
aF0.0
aa(lp603
F1509823260.778
aS'2017-11-05 04:21:00'
p604
aF0.0
aa(lp605
F1510315276.994
ag593
aF1.0
aasbsI46
(imyfunction
mondai
p606
(dp607
g3
S'2017-11-09 02:18:50'
p608
sg5
F0.7017679364860959
sg6
S'46.png'
p609
sg8
(lp610
S'answer is 7'
p611
asg13
(lp612
S'chemistry'
p613
asg16
F1.74999899477274
sg17
F1510161530.909
sg18
I1
sg19
(lp614
(lp615
F1503245428.763
aS'2017-08-21 01:10:28'
p616
aF0.75
aa(lp617
F1507441491.578
aS'2017-10-08 14:44:51'
p618
aF0.0
aa(lp619
F1510161530.909
ag608
aF1.0
aasbsI47
(imyfunction
mondai
p620
(dp621
g3
S'2017-11-10 21:01:26'
p622
sg5
F0.5260794193535817
sg6
S'47.png'
p623
sg8
(lp624
sg13
(lp625
S'chemistry'
p626
asg16
F-4.172044961230156e-15
sg17
F1510315286.071
sg18
I1
sg19
(lp627
(lp628
F1503246725.658
aS'2017-08-21 01:32:05'
p629
aF0.0
aa(lp630
F1506962586.658
aS'2017-10-03 01:43:06'
p631
aF0.0
aa(lp632
F1509823326.98
aS'2017-11-05 04:22:06'
p633
aF0.0
aa(lp634
F1510315286.071
ag622
aF0.003366199349054768
aasbsI48
(imyfunction
mondai
p635
(dp636
g3
S'2017-11-10 21:03:25'
p637
sg5
F0.5255550134680791
sg6
S'48.png'
p638
sg8
(lp639
sg13
(lp640
S'chemistry'
p641
asg16
F-0.003371679138092495
sg17
F1510315405.404
sg18
I1
sg19
(lp642
(lp643
F1503247314.318
aS'2017-08-21 01:41:54'
p644
aF0.0
aa(lp645
F1506962765.807
aS'2017-10-03 01:46:05'
p646
aF0.0
aa(lp647
F1509823586.848
aS'2017-11-05 04:26:26'
p648
aF0.0
aa(lp649
F1510315405.404
ag637
aF0.0
aasbsI49
(imyfunction
mondai
p650
(dp651
g3
S'2017-11-10 00:48:16'
p652
sg5
F0.6096163022640431
sg6
S'49.png'
p653
sg8
(lp654
sg13
(lp655
S'chemistry'
p656
asg16
F1.0
sg17
F1510242496.36
sg18
I0
sg19
(lp657
(lp658
F1503255138.538
aS'2017-08-21 03:52:18'
p659
aF0.0
aa(lp660
F1506963689.996
aS'2017-10-03 02:01:29'
p661
aF1.0
aa(lp662
F1510242496.36
ag652
aF3.2084714741959216e-06
aasbsI50
(imyfunction
mondai
p663
(dp664
g3
S'2017-11-10 21:05:54'
p665
sg5
F0.5264643419166635
sg6
S'50.png'
p666
sg8
(lp667
sg13
(lp668
S'chemistry'
p669
asg16
F-0.003371991852419489
sg17
F1510315554.233
sg18
I1
sg19
(lp670
(lp671
F1503268622.629
aS'2017-08-21 07:37:02'
p672
aF0.0
aa(lp673
F1506965281.311
aS'2017-10-03 02:28:01'
p674
aF0.0
aa(lp675
F1509823743.69
aS'2017-11-05 04:29:03'
p676
aF0.0
aa(lp677
F1510315554.233
ag665
aF0.0
aasbsI51
(imyfunction
mondai
p678
(dp679
g3
S'2017-11-10 01:43:50'
p680
sg5
F0.7570532051142369
sg6
S'51.jpg'
p681
sg8
(lp682
sg13
(lp683
S'chemistry'
p684
asg16
F1.499989193858584
sg17
F1510245830.671
sg18
I2
sg19
(lp685
(lp686
F1503269475.48
aS'2017-08-21 07:51:15'
p687
aF0.5
aa(lp688
F1507281775.99
aS'2017-10-06 18:22:55'
p689
aF0.5
aa(lp690
F1510245830.671
ag680
aF0.5
aasbsI52
(imyfunction
mondai
p691
(dp692
g3
S'2017-11-11 12:19:28'
p693
sg5
F0.9992620358585627
sg6
S'52.jpg'
p694
sg8
(lp695
sg13
(lp696
S'chemistry'
p697
asg16
F1.699999999808111
sg17
F1510370368.186
sg18
I2
sg19
(lp698
(lp699
F1503269869.663
aS'2017-08-21 07:57:49'
p700
aF0.7
aa(lp701
F1507440909.042
aS'2017-10-08 14:35:09'
p702
aF1.0
aa(lp703
F1510370368.186
ag693
aF0.005310734985207818
aasbsI53
(imyfunction
mondai
p704
(dp705
g3
S'2017-11-10 05:08:39'
p706
sg5
F0.7054544445753202
sg6
S'53.png'
p707
sg8
(lp708
sg13
(lp709
S'math'
p710
asg16
F1.1999999999991968
sg17
F1510258119.306
sg18
I4
sg19
(lp711
(lp712
F1503336047.871
aS'2017-08-22 02:20:47'
p713
aF0.45
aa(lp714
F1507281027.181
aS'2017-10-06 18:10:27'
p715
aF0.75
aa(lp716
F1510258119.306
ag706
aF9.903426234928226e-05
aasbsI54
(imyfunction
mondai
p717
(dp718
g3
S'2017-11-09 02:09:55'
p719
sg5
F0.2805843081861261
sg6
S'54.png'
p720
sg8
(lp721
sg13
(lp722
S'math'
p723
asg16
F0.5892772470714089
sg17
F1510160995.619
sg18
I6
sg19
(lp724
(lp725
F1503352854.527
aS'2017-08-22 07:00:54'
p726
aF0.1
aa(lp727
F1507038521.394
aS'2017-10-03 22:48:41'
p728
aF0.5
aa(lp729
F1507796053.214
aS'2017-10-12 17:14:13'
p730
aF0.0
aa(lp731
F1510160995.619
ag719
aF5.9970340795608e-07
aasbsI55
(imyfunction
mondai
p732
(dp733
g3
S'2017-11-08 02:57:59'
p734
sg5
F0.225544524467233
sg6
S'55.jpg'
p735
sg8
(lp736
sg13
(lp737
S'physical'
p738
asg16
F0.749999834494601
sg17
F1510077479.439
sg18
I4
sg19
(lp739
(lp740
F1503367103.179
aS'2017-08-22 10:58:23'
p741
aF0.0
aa(lp742
F1507002259.751
aS'2017-10-03 12:44:19'
p743
aF0.75
aa(lp744
F1510077479.439
ag734
aI0
aasbsI56
(imyfunction
mondai
p745
(dp746
g3
S'2017-11-06 19:17:58'
p747
sg5
F0.2077578736337003
sg6
S'56.png'
p748
sg8
(lp749
sg13
(lp750
S'chemistry'
p751
asg16
F0.9999999988648869
sg17
F1509963478.858
sg18
I5
sg19
(lp752
(lp753
F1503369253.09
aS'2017-08-22 11:34:13'
p754
aF0.4
aa(lp755
F1507201861.287
aS'2017-10-05 20:11:01'
p756
aF0.0
aa(lp757
F1509963478.858
ag747
aF0.6
aasbsI57
(imyfunction
mondai
p758
(dp759
g3
S'2017-11-10 02:40:10'
p760
sg5
F0.641494777673815
sg6
S'57.png'
p761
sg8
(lp762
sg13
(lp763
S'chemistry'
p764
asg16
F1.0499999999955751
sg17
F1510249210.261
sg18
I11
sg19
(lp765
(lp766
F1503370774.163
aS'2017-08-22 11:59:34'
p767
aF0.5
aa(lp768
F1507283169.396
aS'2017-10-06 18:46:09'
p769
aF0.55
aa(lp770
F1510249210.261
ag760
aF1.9768183463229266e-05
aasbsI58
(imyfunction
mondai
p771
(dp772
g3
S'2017-11-06 19:21:37'
p773
sg5
F0.06585822566358586
sg6
S'58.png'
p774
sg8
(lp775
sg13
(lp776
S'chemistry'
p777
asg16
F0.4999999828586975
sg17
F1509963697.716
sg18
I4
sg19
(lp778
(lp779
F1503408670.508
aS'2017-08-22 22:31:10'
p780
aF0.5
aa(lp781
F1507287656.284
aS'2017-10-06 20:00:56'
p782
aF0.0
aa(lp783
F1509963697.716
ag773
aI0
aasbsI59
(imyfunction
mondai
p784
(dp785
g3
S'2017-11-10 05:06:50'
p786
sg5
F0.6771888527938071
sg6
S'59.png'
p787
sg8
(lp788
sg13
(lp789
S'chemistry'
p790
asg16
F1.0999999999612475
sg17
F1510258010.786
sg18
I6
sg19
(lp791
(lp792
F1503436269.897
aS'2017-08-23 06:11:09'
p793
aF0.6
aa(lp794
F1507440544.214
aS'2017-10-08 14:29:04'
p795
aF0.5
aa(lp796
F1510258010.786
ag786
aF5.894303528264895e-05
aasbsI60
(imyfunction
mondai
p797
(dp798
g3
S'2017-11-10 21:05:58'
p799
sg5
F0.5277415277908758
sg6
S'60.png'
p800
sg8
(lp801
sg13
(lp802
S'chemistry'
p803
asg16
F-9.766279327418483e-15
sg17
F1510315558.615
sg18
I1
sg19
(lp804
(lp805
F1503528368.119
aS'2017-08-24 07:46:08'
p806
aF0.0
aa(lp807
F1507036487.553
aS'2017-10-03 22:14:47'
p808
aF0.0
aa(lp809
F1509823758.363
aS'2017-11-05 04:29:18'
p810
aI0
aa(lp811
F1510315558.615
ag799
aF0.0033723935102214484
aasbsI61
(imyfunction
mondai
p812
(dp813
g3
S'2017-11-10 00:48:37'
p814
sg5
F0.6096665976837855
sg6
S'61.png'
p815
sg8
(lp816
sg13
(lp817
S'chemistry'
p818
asg16
F1.0
sg17
F1510242517.744
sg18
I1
sg19
(lp819
(lp820
F1503759535.555
aS'2017-08-26 23:58:55'
p821
aF0.0
aa(lp822
F1507038828.001
aS'2017-10-03 22:53:48'
p823
aF1.0
aa(lp824
F1510242517.744
ag814
aF4.287039605220347e-06
aasbsI62
(imyfunction
mondai
p825
(dp826
g3
S'2017-11-10 21:07:52'
p827
sg5
F0.8078322209371499
sg6
S'62.png'
p828
sg8
(lp829
S'\xa5\xa6 u'
p830
asg13
(lp831
S'chemistry'
p832
asg16
F0.9966286678850491
sg17
F1510315672.038
sg18
I1
sg19
(lp833
(lp834
F1503759908.733
aS'2017-08-27 00:05:08'
p835
aF0.0
aa(lp836
F1507039091.306
aS'2017-10-03 22:58:11'
p837
aF0.0
aa(lp838
F1509823844.589
aS'2017-11-05 04:30:44'
p839
aF0.0
aa(lp840
F1510315672.038
ag827
aF1.0
aasbsI63
(imyfunction
mondai
p841
(dp842
g3
S'2017-11-10 21:09:35'
p843
sg5
F0.52906913937729
sg6
S'63.png'
p844
sg8
(lp845
sg13
(lp846
S'chemistry'
p847
asg16
F-1.0141916949802507e-14
sg17
F1510315775.694
sg18
I1
sg19
(lp848
(lp849
F1503760438.814
aS'2017-08-27 00:13:58'
p850
aF0.0
aa(lp851
F1507039581.643
aS'2017-10-03 23:06:21'
p852
aF0.0
aa(lp853
F1509823851.767
aS'2017-11-05 04:30:51'
p854
aI0
aa(lp855
F1510315775.694
ag843
aF0.003367569639851451
aasbsI64
(imyfunction
mondai
p856
(dp857
g3
S'2017-11-10 21:10:21'
p858
sg5
F0.808299935160845
sg6
S'64.png'
p859
sg8
(lp860
sg13
(lp861
S'chemistry'
p862
asg16
F0.9966234692981929
sg17
F1510315821.824
sg18
I1
sg19
(lp863
(lp864
F1503761237.292
aS'2017-08-27 00:27:17'
p865
aF0.0
aa(lp866
F1507040252.843
aS'2017-10-03 23:17:32'
p867
aF0.0
aa(lp868
F1509824127.501
aS'2017-11-05 04:35:27'
p869
aF0.0
aa(lp870
F1510315821.824
ag858
aF1.0
aasbsI65
(imyfunction
mondai
p871
(dp872
g3
S'2017-11-10 21:10:48'
p873
sg5
F0.5295181016366534
sg6
S'65.png'
p874
sg8
(lp875
sg13
(lp876
S'chemistry'
p877
asg16
F-1.1117809480287911e-14
sg17
F1510315848.981
sg18
I1
sg19
(lp878
(lp879
F1503763238.777
aS'2017-08-27 01:00:38'
p880
aF0.0
aa(lp881
F1507047848.101
aS'2017-10-04 01:24:08'
p882
aF0.0
aa(lp883
F1509824140.149
aS'2017-11-05 04:35:40'
p884
aI0
aa(lp885
F1510315848.981
ag873
aF0.0033759637345401245
aasbsI66
(imyfunction
mondai
p886
(dp887
g3
S'2017-11-09 02:58:42'
p888
sg5
F0.37002826822080803
sg6
S'66.png'
p889
sg8
(lp890
sg13
(lp891
S'chemistry'
p892
asg16
F0.7999999793676873
sg17
F1510163922.279
sg18
I0
sg19
(lp893
(lp894
F1503764305.612
aS'2017-08-27 01:18:25'
p895
aF0.8
aa(lp896
F1507446407.946
aS'2017-10-08 16:06:47'
p897
aF0.0
aa(lp898
F1510163922.279
ag888
aF2.1275505887080197e-06
aasbsI67
(imyfunction
mondai
p899
(dp900
g3
S'2017-11-10 05:08:26'
p901
sg5
F0.798614679116085
sg6
S'67.png'
p902
sg8
(lp903
sg13
(lp904
S'chemistry'
p905
asg16
F1.5999409048916378
sg17
F1510258106.978
sg18
I2
sg19
(lp906
(lp907
F1503776416.902
aS'2017-08-27 04:40:16'
p908
aF0.6
aa(lp909
F1507441384.391
aS'2017-10-08 14:43:04'
p910
aF0.5
aa(lp911
F1510258106.978
ag901
aF0.5
aasbsI68
(imyfunction
mondai
p912
(dp913
g3
S'2017-11-10 00:51:13'
p914
sg5
F0.7517499345815895
sg6
S'68.png'
p915
sg8
(lp916
sg13
(lp917
S'chemistry'
p918
asg16
F1.4999955581978672
sg17
F1510242673.801
sg18
I2
sg19
(lp919
(lp920
F1503779158.5
aS'2017-08-27 05:25:58'
p921
aF0.0
aa(lp922
F1507048176.263
aS'2017-10-04 01:29:36'
p923
aF1.0
aa(lp924
F1510242673.801
ag914
aF0.5
aasbsI69
(imyfunction
mondai
p925
(dp926
g3
S'2017-11-10 21:10:56'
p927
sg5
F0.5295655704049669
sg6
S'69.png'
p928
sg8
(lp929
sg13
(lp930
S'chemistry'
p931
asg16
F-2.971360052129618e-14
sg17
F1510315856.726
sg18
I1
sg19
(lp932
(lp933
F1503784585.243
aS'2017-08-27 06:56:25'
p934
aF0.0
aa(lp935
F1507132987.358
aS'2017-10-05 01:03:07'
p936
aF0.0
aa(lp937
F1509824145.905
aS'2017-11-05 04:35:45'
p938
aI0
aa(lp939
F1510315856.726
ag927
aF0.0033758860179326096
aasbsI70
(imyfunction
mondai
p940
(dp941
g3
S'2017-11-10 21:11:02'
p942
sg5
F0.5296019302517757
sg6
S'70.png'
p943
sg8
(lp944
sg13
(lp945
S'chemistry'
p946
asg16
F-3.0363542966124106e-14
sg17
F1510315862.658
sg18
I2
sg19
(lp947
(lp948
F1503870311.11
aS'2017-08-28 06:45:11'
p949
aF0.0
aa(lp950
F1507134968.032
aS'2017-10-05 01:36:08'
p951
aF0.0
aa(lp952
F1509824324.927
aS'2017-11-05 04:38:44'
p953
aF0.0
aa(lp954
F1510315862.658
ag942
aF0.0033826559000527377
aasbsI71
(imyfunction
mondai
p955
(dp956
g3
S'2017-11-10 01:14:27'
p957
sg5
F0.6133235467185076
sg6
S'71.jpg'
p958
sg8
(lp959
sg13
(lp960
S'chemistry'
p961
asg16
F1.0
sg17
F1510244067.853
sg18
I1
sg19
(lp962
(lp963
F1503879436.234
aS'2017-08-28 09:17:16'
p964
aF0.0
aa(lp965
F1507135290.64
aS'2017-10-05 01:41:30'
p966
aF1.0
aa(lp967
F1510244067.853
ag957
aF6.182800414147176e-06
aasbsI72
(imyfunction
mondai
p968
(dp969
g3
S'2017-11-06 19:21:09'
p970
sg5
F0.06584573509717519
sg6
S'72.png'
p971
sg8
(lp972
sg13
(lp973
S'chemistry'
p974
asg16
F0.4999999919841092
sg17
F1509963669.327
sg18
I2
sg19
(lp975
(lp976
F1504016042.217
aS'2017-08-29 23:14:02'
p977
aF0.0
aa(lp978
F1507173933.085
aS'2017-10-05 12:25:33'
p979
aF0.5
aa(lp980
F1509963669.327
ag970
aI0
aasbsI73
(imyfunction
mondai
p981
(dp982
g3
S'2017-11-10 01:14:43'
p983
sg5
F0.6133609388255499
sg6
S'73.png'
p984
sg8
(lp985
sg13
(lp986
S'chemistry'
p987
asg16
F0.9999999999999999
sg17
F1510244083.655
sg18
I2
sg19
(lp988
(lp989
F1504016537.49
aS'2017-08-29 23:22:17'
p990
aF0.0
aa(lp991
F1507174805.144
aS'2017-10-05 12:40:05'
p992
aF1.0
aa(lp993
F1510244083.655
ag983
aF7.2005562348047215e-06
aasbsI74
(imyfunction
mondai
p994
(dp995
g3
S'2017-11-10 21:11:07'
p996
sg5
F0.529630458420647
sg6
S'74.jpg'
p997
sg8
(lp998
sg13
(lp999
S'chemistry'
p1000
asg16
F-4.889136479525591e-14
sg17
F1510315867.312
sg18
I1
sg19
(lp1001
(lp1002
F1504018002.57
aS'2017-08-29 23:46:42'
p1003
aF0.0
aa(lp1004
F1507176030.244
aS'2017-10-05 13:00:30'
p1005
aF0.0
aa(lp1006
F1509824355.538
aS'2017-11-05 04:39:15'
p1007
aI0
aa(lp1008
F1510315867.312
ag996
aF0.0033836722980837932
aasbsI75
(imyfunction
mondai
p1009
(dp1010
g3
S'2017-11-10 21:11:28'
p1011
sg5
F0.5297613742361783
sg6
S'75.jpg'
p1012
sg8
(lp1013
sg13
(lp1014
S'chemistry'
p1015
asg16
F-4.922400177381359e-14
sg17
F1510315888.666
sg18
I2
sg19
(lp1016
(lp1017
F1504020346.415
aS'2017-08-30 00:25:46'
p1018
aF0.0
aa(lp1019
F1507176669.845
aS'2017-10-05 13:11:09'
p1020
aF0.0
aa(lp1021
F1509824412.386
aS'2017-11-05 04:40:12'
p1022
aI0
aa(lp1023
F1510315888.666
ag1011
aF0.0033850626306873685
aasbsI76
(imyfunction
mondai
p1024
(dp1025
g3
S'2017-11-10 01:14:49'
p1026
sg5
F0.613374855556371
sg6
S'76.png'
p1027
sg8
(lp1028
sg13
(lp1029
S'chemistry'
p1030
asg16
F0.9999999999999982
sg17
F1510244089.537
sg18
I1
sg19
(lp1031
(lp1032
F1504242498.728
aS'2017-09-01 14:08:18'
p1033
aF0.0
aa(lp1034
F1507176833.07
aS'2017-10-05 13:13:53'
p1035
aF1.0
aa(lp1036
F1510244089.537
ag1026
aF7.256948136254267e-06
aasbsI77
(imyfunction
mondai
p1037
(dp1038
g3
S'2017-11-10 21:12:08'
p1039
sg5
F0.8086310961466221
sg6
S'77.jpg'
p1040
sg8
(lp1041
sg13
(lp1042
S'chemistry'
p1043
asg16
F0.9966117959142737
sg17
F1510315928.308
sg18
I1
sg19
(lp1044
(lp1045
F1504242836.989
aS'2017-09-01 14:13:56'
p1046
aF0.0
aa(lp1047
F1507176917.717
aS'2017-10-05 13:15:17'
p1048
aF0.0
aa(lp1049
F1509824532.173
aS'2017-11-05 04:42:12'
p1050
aF0.0
aa(lp1051
F1510315928.308
ag1039
aF1.0
aasbsI78
(imyfunction
mondai
p1052
(dp1053
g3
S'2017-11-10 01:14:55'
p1054
sg5
F0.6133888956594636
sg6
S'78.png'
p1055
sg8
(lp1056
sg13
(lp1057
S'chemistry'
p1058
asg16
F0.9999999999999982
sg17
F1510244095.47
sg18
I2
sg19
(lp1059
(lp1060
F1504243511.051
aS'2017-09-01 14:25:11'
p1061
aF0.0
aa(lp1062
F1507177120.815
aS'2017-10-05 13:18:40'
p1063
aF1.0
aa(lp1064
F1510244095.47
ag1054
aF7.264842454246718e-06
aasbsI79
(imyfunction
mondai
p1065
(dp1066
g3
S'2017-11-10 01:15:01'
p1067
sg5
F0.6134021385656624
sg6
S'79.jpg'
p1068
sg8
(lp1069
sg13
(lp1070
S'chemistry'
p1071
asg16
F0.9999999999999982
sg17
F1510244101.066
sg18
I1
sg19
(lp1072
(lp1073
F1504244940.738
aS'2017-09-01 14:49:00'
p1074
aF0.0
aa(lp1075
F1507177430.882
aS'2017-10-05 13:23:50'
p1076
aF1.0
aa(lp1077
F1510244101.066
ag1067
aF7.273381163686462e-06
aasbsI80
(imyfunction
mondai
p1078
(dp1079
g3
S'2017-11-10 01:15:03'
p1080
sg5
F0.6134088784534658
sg6
S'80.jpg'
p1081
sg8
(lp1082
sg13
(lp1083
S'chemistry'
p1084
asg16
F0.9999999999999981
sg17
F1510244103.914
sg18
I1
sg19
(lp1085
(lp1086
F1504246658.078
aS'2017-09-01 15:17:38'
p1087
aF0.0
aa(lp1088
F1507177901.567
aS'2017-10-05 13:31:41'
p1089
aF1.0
aa(lp1090
F1510244103.914
ag1080
aF7.2865209381247484e-06
aasbsI81
(imyfunction
mondai
p1091
(dp1092
g3
S'2017-11-10 21:13:52'
p1093
sg5
F0.5306446345536461
sg6
S'81.png'
p1094
sg8
(lp1095
sg13
(lp1096
S'chemistry'
p1097
asg16
F-5.254461799500519e-14
sg17
F1510316032.6
sg18
I1
sg19
(lp1098
(lp1099
F1504275909.657
aS'2017-09-01 23:25:09'
p1100
aF0.0
aa(lp1101
F1507178426.452
aS'2017-10-05 13:40:26'
p1102
aF0.0
aa(lp1103
F1509824625.933
aS'2017-11-05 04:43:45'
p1104
aF0.0
aa(lp1105
F1510316032.6
ag1093
aF0.0033877910950504374
aasbsI82
(imyfunction
mondai
p1106
(dp1107
g3
S'2017-11-10 21:16:32'
p1108
sg5
F0.8094601302149904
sg6
S'82.png'
p1109
sg8
(lp1110
sg13
(lp1111
S'chemistry'
p1112
asg16
F0.9966127471837158
sg17
F1510316192.868
sg18
I1
sg19
(lp1113
(lp1114
F1504277877.469
aS'2017-09-01 23:57:57'
p1115
aF0.0
aa(lp1116
F1507178704.982
aS'2017-10-05 13:45:04'
p1117
aF0.0
aa(lp1118
F1509824772.472
aS'2017-11-05 04:46:12'
p1119
aF0.0
aa(lp1120
F1510316192.868
ag1108
aF1.0
aasbsI83
(imyfunction
mondai
p1121
(dp1122
g3
S'2017-11-10 21:18:58'
p1123
sg5
F0.5325249846535792
sg6
S'83.png'
p1124
sg8
(lp1125
sg13
(lp1126
S'chemistry'
p1127
asg16
F-5.2686807655049486e-14
sg17
F1510316338.219
sg18
I1
sg19
(lp1128
(lp1129
F1504278544.983
aS'2017-09-02 00:09:04'
p1130
aF0.0
aa(lp1131
F1507179118.134
aS'2017-10-05 13:51:58'
p1132
aF0.0
aa(lp1133
F1509825173.081
aS'2017-11-05 04:52:53'
p1134
aF0.0
aa(lp1135
F1510316338.219
ag1123
aF0.0033972748283773
aasbsI84
(imyfunction
mondai
p1136
(dp1137
g3
S'2017-11-10 20:56:24'
p1138
sg5
F0.8831299382138253
sg6
S'84.png'
p1139
sg8
(lp1140
sg13
(lp1141
S'chemistry'
p1142
asg16
F1.4999999993144824
sg17
F1510314984.538
sg18
I4
sg19
(lp1143
(lp1144
F1504284587.342
aS'2017-09-02 01:49:47'
p1145
aF0.5
aa(lp1146
F1507442311.976
aS'2017-10-08 14:58:31'
p1147
aF1.0
aa(lp1148
F1510314984.538
ag1138
aF0.0016637492668604803
aasbsI85
(imyfunction
mondai
p1149
(dp1150
g3
S'2017-11-10 20:57:57'
p1151
sg5
F0.9594120829426852
sg6
S'85.jpg'
p1152
sg8
(lp1153
sg13
(lp1154
S'chemistry'
p1155
asg16
F2.498321618869726
sg17
F1510315077.981
sg18
I2
sg19
(lp1156
(lp1157
F1504287036.941
aS'2017-09-02 02:30:36'
p1158
aF0.5
aa(lp1159
F1507446336.252
aS'2017-10-08 16:05:36'
p1160
aF1.0
aa(lp1161
F1510315077.981
ag1151
aF1.0
aasbsI86
(imyfunction
mondai
p1162
(dp1163
g3
S'2017-11-10 01:14:36'
p1164
sg5
F0.6000223786649471
sg6
S'86.png'
p1165
sg8
(lp1166
sg13
(lp1167
S'chemistry'
p1168
asg16
F0.959999999985973
sg17
F1510244076.83
sg18
I6
sg19
(lp1169
(lp1170
F1504287911.136
aS'2017-09-02 02:45:11'
p1171
aF0.3
aa(lp1172
F1507289954.953
aS'2017-10-06 20:39:14'
p1173
aF0.66
aa(lp1174
F1510244076.83
ag1164
aF6.7290179334813e-06
aasbsI87
(imyfunction
mondai
p1175
(dp1176
g3
S'2017-11-10 21:19:01'
p1177
sg5
F0.5325446526929085
sg6
S'87.png'
p1178
sg8
(lp1179
sg13
(lp1180
S'chemistry'
p1181
asg16
F-5.328667544981056e-14
sg17
F1510316341.41
sg18
I1
sg19
(lp1182
(lp1183
F1504289034.929
aS'2017-09-02 03:03:54'
p1184
aF0.0
aa(lp1185
F1507179649.455
aS'2017-10-05 14:00:49'
p1186
aF0.0
aa(lp1187
F1509825225.098
aS'2017-11-05 04:53:45'
p1188
aI0
aa(lp1189
F1510316341.41
ag1177
aF0.0033991952244293616
aasbsI88
(imyfunction
mondai
p1190
(dp1191
g3
S'2017-11-10 21:19:04'
p1192
sg5
F0.5325631318192857
sg6
S'88.png'
p1193
sg8
(lp1194
sg13
(lp1195
S'chemistry'
p1196
asg16
F-5.50281763342006e-14
sg17
F1510316344.408
sg18
I2
sg19
(lp1197
(lp1198
F1504295038.18
aS'2017-09-02 04:43:58'
p1199
aF0.0
aa(lp1200
F1507182948.05
aS'2017-10-05 14:55:48'
p1201
aF0.0
aa(lp1202
F1509825740.819
aS'2017-11-05 05:02:20'
p1203
aF0.0
aa(lp1204
F1510316344.408
ag1192
aF0.0034194270591039982
aasbsI89
(imyfunction
mondai
p1205
(dp1206
g3
S'2017-11-10 21:19:07'
p1207
sg5
F0.5325807177875919
sg6
S'89.jpg'
p1208
sg8
(lp1209
sg13
(lp1210
S'chemistry'
p1211
asg16
F-5.697511457342755e-14
sg17
F1510316347.261
sg18
I3
sg19
(lp1212
(lp1213
F1504323346.65
aS'2017-09-02 12:35:46'
p1214
aF0.0
aa(lp1215
F1507184338.043
aS'2017-10-05 15:18:58'
p1216
aF0.0
aa(lp1217
F1509825756.585
aS'2017-11-05 05:02:36'
p1218
aI0
aa(lp1219
F1510316347.261
ag1207
aF0.003419938111674252
aasbsI90
(imyfunction
mondai
p1220
(dp1221
g3
S'2017-11-10 01:16:29'
p1222
sg5
F0.8497618438760508
sg6
S'90.png'
p1223
sg8
(lp1224
sg13
(lp1225
S'chemistry'
p1226
asg16
F1.9999925081704641
sg17
F1510244189.48
sg18
I1
sg19
(lp1227
(lp1228
F1504323686.397
aS'2017-09-02 12:41:26'
p1229
aF0.0
aa(lp1230
F1507185189.481
aS'2017-10-05 15:33:09'
p1231
aF1.0
aa(lp1232
F1510244189.48
ag1222
aF1.0
aasbsI91
(imyfunction
mondai
p1233
(dp1234
g3
S'2017-11-10 01:17:15'
p1235
sg5
F0.8498119318486
sg6
S'91.jpg'
p1236
sg8
(lp1237
sg13
(lp1238
S'chemistry'
p1239
asg16
F1.999992506515778
sg17
F1510244235.313
sg18
I1
sg19
(lp1240
(lp1241
F1504324204.896
aS'2017-09-02 12:50:04'
p1242
aF0.0
aa(lp1243
F1507185292.556
aS'2017-10-05 15:34:52'
p1244
aF1.0
aa(lp1245
F1510244235.313
ag1235
aF1.0
aasbsI92
(imyfunction
mondai
p1246
(dp1247
g3
S'2017-11-10 21:19:09'
p1248
sg5
F0.5325921215486161
sg6
S'92.png'
p1249
sg8
(lp1250
sg13
(lp1251
S'chemistry'
p1252
asg16
F-5.805487216824302e-14
sg17
F1510316349.111
sg18
I1
sg19
(lp1253
(lp1254
F1504325453.141
aS'2017-09-02 13:10:53'
p1255
aF0.0
aa(lp1256
F1507186063.447
aS'2017-10-05 15:47:43'
p1257
aF0.0
aa(lp1258
F1509825762.924
aS'2017-11-05 05:02:42'
p1259
aI0
aa(lp1260
F1510316349.111
ag1248
aF0.0034201158026519207
aasbsI93
(imyfunction
mondai
p1261
(dp1262
g3
S'2017-11-10 21:19:14'
p1263
sg5
F0.5326262911414473
sg6
S'93.png'
p1264
sg8
(lp1265
sg13
(lp1266
S'chemistry'
p1267
asg16
F-5.827912718675355e-14
sg17
F1510316354.654
sg18
I1
sg19
(lp1268
(lp1269
F1504327506.993
aS'2017-09-02 13:45:06'
p1270
aF0.0
aa(lp1271
F1507186421.562
aS'2017-10-05 15:53:41'
p1272
aF0.0
aa(lp1273
F1509825894.51
aS'2017-11-05 05:04:54'
p1274
aF0.0
aa(lp1275
F1510316354.654
ag1263
aF0.0034251088147660386
aasbsI94
(imyfunction
mondai
p1276
(dp1277
g3
S'2017-11-10 01:18:53'
p1278
sg5
F0.6139512702707145
sg6
S'94.jpg'
p1279
sg8
(lp1280
sg13
(lp1281
S'chemistry'
p1282
asg16
F0.9999999999999957
sg17
F1510244333.004
sg18
I3
sg19
(lp1283
(lp1284
F1504330005.843
aS'2017-09-02 14:26:45'
p1285
aF0.0
aa(lp1286
F1507186945.999
aS'2017-10-05 16:02:25'
p1287
aF1.0
aa(lp1288
F1510244333.004
ag1278
aF7.538596330589168e-06
aasbsI95
(imyfunction
mondai
p1289
(dp1290
g3
S'2017-11-10 01:24:53'
p1291
sg5
F0.6148021347926743
sg6
S'95.png'
p1292
sg8
(lp1293
sg13
(lp1294
S'chemistry'
p1295
asg16
F0.9999921611199667
sg17
F1510244693.062
sg18
I1
sg19
(lp1296
(lp1297
F1504330578.003
aS'2017-09-02 14:36:18'
p1298
aF0.0
aa(lp1299
F1507197430.401
aS'2017-10-05 18:57:10'
p1300
aF1.0
aa(lp1301
F1510244693.062
ag1291
aF0.0
aasbsI96
(imyfunction
mondai
p1302
(dp1303
g3
S'2017-11-10 02:16:55'
p1304
sg5
F0.6222563381001904
sg6
S'96.png'
p1305
sg8
(lp1306
sg13
(lp1307
S'chemistry'
p1308
asg16
F0.9999999999948661
sg17
F1510247815.762
sg18
I4
sg19
(lp1309
(lp1310
F1504331481.399
aS'2017-09-02 14:51:21'
p1311
aF0.25
aa(lp1312
F1507287359.586
aS'2017-10-06 19:55:59'
p1313
aF0.75
aa(lp1314
F1510247815.762
ag1304
aF1.0957208314106074e-05
aasbsI97
(imyfunction
mondai
p1315
(dp1316
g3
S'2017-11-10 21:19:21'
p1317
sg5
F0.532671516978708
sg6
S'97.png'
p1318
sg8
(lp1319
sg13
(lp1320
S'chemistry'
p1321
asg16
F-6.526020704151094e-14
sg17
F1510316361.99
sg18
I1
sg19
(lp1322
(lp1323
F1504332514.446
aS'2017-09-02 15:08:34'
p1324
aF0.0
aa(lp1325
F1507197848.738
aS'2017-10-05 19:04:08'
p1326
aF0.0
aa(lp1327
F1509826389.441
aS'2017-11-05 05:13:09'
p1328
aF0.0
aa(lp1329
F1510316361.99
ag1317
aF0.0034444929268692553
aasbsI98
(imyfunction
mondai
p1330
(dp1331
g3
S'2017-11-10 15:46:06'
p1332
sg5
F0.804004055773185
sg6
S'98.jpeg'
p1333
sg8
(lp1334
sg13
(lp1335
S'physical'
p1336
asg16
F1.2499999999911555
sg17
F1510296366.82
sg18
I4
sg19
(lp1337
(lp1338
F1504545992.782
aS'2017-09-05 02:26:32'
p1339
aF0.25
aa(lp1340
F1507440023.274
aS'2017-10-08 14:20:23'
p1341
aF1.0
aa(lp1342
F1510296366.82
ag1332
aF0.00023095892745339148
aasbsI99
(imyfunction
mondai
p1343
(dp1344
g3
S'2017-11-06 19:21:22'
p1345
sg5
F0.06585036734173366
sg6
S'99.jpeg'
p1346
sg8
(lp1347
sg13
(lp1348
S'physical'
p1349
asg16
F0.49999998626756476
sg17
F1509963682.669
sg18
I2
sg19
(lp1350
(lp1351
F1504548613.492
aS'2017-09-05 03:10:13'
p1352
aF0.0
aa(lp1353
F1507254507.501
aS'2017-10-06 10:48:27'
p1354
aF0.5
aa(lp1355
F1509963682.669
ag1345
aI0
aasbsI100
(imyfunction
mondai
p1356
(dp1357
g3
S'2017-11-05 03:29:23'
p1358
sg5
F0.0252378510581705
sg6
S'100.jpeg'
p1359
sg8
(lp1360
sg13
(lp1361
S'physical'
p1362
asg16
F0.4999999999999995
sg17
F1509820163.087
sg18
I2
sg19
(lp1363
(lp1364
F1504549431.259
aS'2017-09-05 03:23:51'
p1365
aF0.5
aa(lp1366
F1509820163.087
ag1358
aF0.0
aasbsI101
(imyfunction
mondai
p1367
(dp1368
g3
S'2017-11-06 17:20:44'
p1369
sg5
F0.03177419866175589
sg6
S'101.jpeg'
p1370
sg8
(lp1371
sg13
(lp1372
S'physical'
p1373
asg16
F0.2999999998279522
sg17
F1509956444.701
sg18
I3
sg19
(lp1374
(lp1375
F1504557916.173
aS'2017-09-05 05:45:16'
p1376
aF0.0
aa(lp1377
F1507255521.17
aS'2017-10-06 11:05:21'
p1378
aF0.3
aa(lp1379
F1509956444.701
ag1369
aI0
aasbsI102
(imyfunction
mondai
p1380
(dp1381
g3
S'2017-11-10 01:33:59'
p1382
sg5
F0.6160962322397562
sg6
S'102.jpeg'
p1383
sg8
(lp1384
sg13
(lp1385
S'physical'
p1386
asg16
F0.9999999999999712
sg17
F1510245239.804
sg18
I1
sg19
(lp1387
(lp1388
F1504561998.287
aS'2017-09-05 06:53:18'
p1389
aF0.0
aa(lp1390
F1507255791.192
aS'2017-10-06 11:09:51'
p1391
aF1.0
aa(lp1392
F1510245239.804
ag1382
aF9.79766409216079e-06
aasbsI103
(imyfunction
mondai
p1393
(dp1394
g3
S'2017-11-06 18:38:21'
p1395
sg5
F0.03689174285146208
sg6
S'103.png'
p1396
sg8
(lp1397
sg13
(lp1398
S'physical'
p1399
asg16
F0.3299999996531467
sg17
F1509961101.665
sg18
I3
sg19
(lp1400
(lp1401
F1504566130.357
aS'2017-09-05 08:02:10'
p1402
aF0.0
aa(lp1403
F1507256734.83
aS'2017-10-06 11:25:34'
p1404
aF0.33
aa(lp1405
F1509961101.665
ag1395
aI0
aasbsI104
(imyfunction
mondai
p1406
(dp1407
g3
S'2017-11-10 01:37:36'
p1408
sg5
F0.8511441813859195
sg6
S'104.jpg'
p1409
sg8
(lp1410
sg13
(lp1411
S'physical'
p1412
asg16
F1.9999901705425385
sg17
F1510245456.524
sg18
I1
sg19
(lp1413
(lp1414
F1504579510.387
aS'2017-09-05 11:45:10'
p1415
aF0.0
aa(lp1416
F1507256847.652
aS'2017-10-06 11:27:27'
p1417
aF1.0
aa(lp1418
F1510245456.524
ag1408
aF1.0
aasbsI105
(imyfunction
mondai
p1419
(dp1420
g3
S'2017-11-10 05:08:34'
p1421
sg5
F0.4710035556288978
sg6
S'105.jpg'
p1422
sg8
(lp1423
sg13
(lp1424
S'physical'
p1425
asg16
F0.49999999999997274
sg17
F1510258114.546
sg18
I4
sg19
(lp1426
(lp1427
F1506129496.71
aS'2017-09-23 10:18:16'
p1428
aF0.0
aa(lp1429
F1508828137.393
aS'2017-10-24 15:55:37'
p1430
aF0.5
aa(lp1431
F1510258114.546
ag1421
aF7.080868691277626e-05
aasbsI106
(imyfunction
mondai
p1432
(dp1433
g3
S'2017-11-01 16:39:50'
p1434
sg5
F0.03782948133199386
sg6
S'106.jpg'
p1435
sg8
(lp1436
sg13
(lp1437
S'physical'
p1438
asg16
F1.0
sg17
F1509521990.3
sg18
I2
sg19
(lp1439
(lp1440
F1506132713.435
aS'2017-09-23 11:11:53'
p1441
aF0.0
aa(lp1442
F1509521990.3
ag1434
aF1.0
aasbsI107
(imyfunction
mondai
p1443
(dp1444
g3
S'2017-11-01 17:47:33'
p1445
sg5
F0.008783951570063554
sg6
S'107.jpg'
p1446
sg8
(lp1447
sg13
(lp1448
S'physical'
p1449
asg16
F0.66
sg17
F1509526053.592
sg18
I2
sg19
(lp1450
(lp1451
F1506134378.641
aS'2017-09-23 11:39:38'
p1452
aF0.0
aa(lp1453
F1509526053.592
ag1445
aF0.66
aasbsI108
(imyfunction
mondai
p1454
(dp1455
g3
S'2017-11-04 16:18:59'
p1456
sg5
F0.10233621361520785
sg6
S'108.jpg'
p1457
sg8
(lp1458
sg13
(lp1459
S'physical'
p1460
asg16
F1.0
sg17
F1509779939.628
sg18
I1
sg19
(lp1461
(lp1462
F1506135155.006
aS'2017-09-23 11:52:35'
p1463
aF0.0
aa(lp1464
F1509779939.628
ag1456
aF1.0
aasbsI109
(imyfunction
mondai
p1465
(dp1466
g3
S'2017-11-04 16:27:13'
p1467
sg5
F0.008608930202762056
sg6
S'109.png'
p1468
sg8
(lp1469
sg13
(lp1470
S'physical'
p1471
asg16
F0.33
sg17
F1509780433.028
sg18
I2
sg19
(lp1472
(lp1473
F1506137630.469
aS'2017-09-23 12:33:50'
p1474
aF0.0
aa(lp1475
F1509780433.028
ag1467
aF0.33
aasbsI110
(imyfunction
mondai
p1476
(dp1477
g3
S'2017-11-04 16:35:32'
p1478
sg5
F0.01941790339267089
sg6
S'110.jpg'
p1479
sg8
(lp1480
sg13
(lp1481
S'physical'
p1482
asg16
F0.5
sg17
F1509780932.642
sg18
I2
sg19
(lp1483
(lp1484
F1506138671.837
aS'2017-09-23 12:51:11'
p1485
aF0.0
aa(lp1486
F1509780932.642
ag1478
aF0.5
aasbsI111
(imyfunction
mondai
p1487
(dp1488
g3
S'2017-11-04 16:38:25'
p1489
sg5
F0.019440315083156072
sg6
S'111.jpg'
p1490
sg8
(lp1491
sg13
(lp1492
S'physical'
p1493
asg16
F0.5
sg17
F1509781105.264
sg18
I2
sg19
(lp1494
(lp1495
F1506147063.957
aS'2017-09-23 15:11:03'
p1496
aF0.0
aa(lp1497
F1509781105.264
ag1489
aF0.5
aasbsI112
(imyfunction
mondai
p1498
(dp1499
g3
S'2017-11-06 00:12:00'
p1500
sg5
F0.1593482123104662
sg6
S'112.png'
p1501
sg8
(lp1502
sg13
(lp1503
S'physical'
p1504
asg16
F0.9999999999866408
sg17
F1509894720.702
sg18
I4
sg19
(lp1505
(lp1506
F1506147682.265
aS'2017-09-23 15:21:22'
p1507
aF0.5
aa(lp1508
F1509894720.702
ag1500
aF0.5
aasbsI113
(imyfunction
mondai
p1509
(dp1510
g3
S'2017-11-04 16:43:08'
p1511
sg5
F0.1029098050618837
sg6
S'113.png'
p1512
sg8
(lp1513
sg13
(lp1514
S'physical'
p1515
asg16
F1.0
sg17
F1509781388.38
sg18
I1
sg19
(lp1516
(lp1517
F1506148490.104
aS'2017-09-23 15:34:50'
p1518
aF0.0
aa(lp1519
F1509781388.38
ag1511
aF1.0
aasbsI114
(imyfunction
mondai
p1520
(dp1521
g3
S'2017-11-04 16:53:05'
p1522
sg5
F0.019555062627075466
sg6
S'114.jpg'
p1523
sg8
(lp1524
sg13
(lp1525
S'physical'
p1526
asg16
F0.5
sg17
F1509781985.98
sg18
I1
sg19
(lp1527
(lp1528
F1506155638.422
aS'2017-09-23 17:33:58'
p1529
aF0.0
aa(lp1530
F1509781985.98
ag1522
aF0.5
aasbsI115
(imyfunction
mondai
p1531
(dp1532
g3
S'2017-11-10 20:58:16'
p1533
sg5
F0.5249109411605538
sg6
S'115.jpg'
p1534
sg8
(lp1535
sg13
(lp1536
S'physical'
p1537
asg16
F-5.803319474763249e-19
sg17
F1510315096.766
sg18
I2
sg19
(lp1538
(lp1539
F1506157652.404
aS'2017-09-23 18:07:32'
p1540
aF0.0
aa(lp1541
F1509785647.734
aS'2017-11-04 17:54:07'
p1542
aF0.0
aa(lp1543
F1510315096.766
ag1533
aF0.0021811951579525203
aasbsI116
(imyfunction
mondai
p1544
(dp1545
g3
S'2017-11-10 20:58:20'
p1546
sg5
F0.5249352735330013
sg6
S'116.jpg'
p1547
sg8
(lp1548
sg13
(lp1549
S'physical'
p1550
asg16
F-5.893791916432976e-19
sg17
F1510315100.771
sg18
I1
sg19
(lp1551
(lp1552
F1506159252.417
aS'2017-09-23 18:34:12'
p1553
aF0.0
aa(lp1554
F1509785911.182
aS'2017-11-04 17:58:31'
p1555
aF0.0
aa(lp1556
F1510315100.771
ag1546
aF0.0021877547216808155
aasbsI117
(imyfunction
mondai
p1557
(dp1558
g3
S'2017-11-04 18:01:38'
p1559
sg5
F0.10479687571243106
sg6
S'117.png'
p1560
sg8
(lp1561
sg13
(lp1562
S'physical'
p1563
asg16
F1.0
sg17
F1509786098.312
sg18
I2
sg19
(lp1564
(lp1565
F1506162234.45
aS'2017-09-23 19:23:54'
p1566
aF0.0
aa(lp1567
F1509786098.312
ag1559
aF1.0
aasbsI118
(imyfunction
mondai
p1568
(dp1569
g3
S'2017-11-04 18:15:41'
p1570
sg5
F0.10513843619486038
sg6
S'118.jpg'
p1571
sg8
(lp1572
sg13
(lp1573
S'physical'
p1574
asg16
F1.0
sg17
F1509786941.739
sg18
I1
sg19
(lp1575
(lp1576
F1506294608.09
aS'2017-09-25 08:10:08'
p1577
aF0.0
aa(lp1578
F1509786941.739
ag1570
aF1.0
aasbsI119
(imyfunction
mondai
p1579
(dp1580
g3
S'2017-11-10 20:58:25'
p1581
sg5
F0.5249616181692035
sg6
S'119.jpg'
p1582
sg8
(lp1583
sg13
(lp1584
S'physical'
p1585
asg16
F-2.8235804321054852e-18
sg17
F1510315105.107
sg18
I1
sg19
(lp1586
(lp1587
F1506295905.774
aS'2017-09-25 08:31:45'
p1588
aF0.0
aa(lp1589
F1509787202.415
aS'2017-11-04 18:20:02'
p1590
aF0.0
aa(lp1591
F1510315105.107
ag1581
aF0.0022205844297209115
aasbsI120
(imyfunction
mondai
p1592
(dp1593
g3
S'2017-11-04 18:26:36'
p1594
sg5
F0.02030208157580381
sg6
S'120.jpg'
p1595
sg8
(lp1596
sg13
(lp1597
S'physical'
p1598
asg16
F0.5
sg17
F1509787596.21
sg18
I2
sg19
(lp1599
(lp1600
F1506327418.434
aS'2017-09-25 17:16:58'
p1601
aF0.0
aa(lp1602
F1509787596.21
ag1594
aF0.5
aasbsI121
(imyfunction
mondai
p1603
(dp1604
g3
S'2017-11-10 20:58:29'
p1605
sg5
F0.5249895500291394
sg6
S'121.jpg'
p1606
sg8
(lp1607
sg13
(lp1608
S'physical'
p1609
asg16
F-4.1730886871002715e-18
sg17
F1510315109.704
sg18
I2
sg19
(lp1610
(lp1611
F1506332473.34
aS'2017-09-25 18:41:13'
p1612
aF0.0
aa(lp1613
F1509790017.759
aS'2017-11-04 19:06:57'
p1614
aF0.0
aa(lp1615
F1510315109.704
ag1605
aF0.002294011913108089
aasbsI122
(imyfunction
mondai
p1616
(dp1617
g3
S'2017-11-04 19:20:56'
p1618
sg5
F0.009362916179600304
sg6
S'122.jpg'
p1619
sg8
(lp1620
sg13
(lp1621
S'physical'
p1622
asg16
F0.33
sg17
F1509790856.665
sg18
I3
sg19
(lp1623
(lp1624
F1506334077.056
aS'2017-09-25 19:07:57'
p1625
aF0.0
aa(lp1626
F1509790856.665
ag1618
aF0.33
aasbsI123
(imyfunction
mondai
p1627
(dp1628
g3
S'2017-11-04 19:59:55'
p1629
sg5
F0.1077060467009039
sg6
S'123.jpg'
p1630
sg8
(lp1631
sg13
(lp1632
S'physical'
p1633
asg16
F1.0
sg17
F1509793195.666
sg18
I2
sg19
(lp1634
(lp1635
F1506335499.155
aS'2017-09-25 19:31:39'
p1636
aF0.0
aa(lp1637
F1509793195.666
ag1629
aF1.0
aasbsI124
(imyfunction
mondai
p1638
(dp1639
g3
S'2017-11-04 20:01:50'
p1640
sg5
F0.10775360326669253
sg6
S'124.jpg'
p1641
sg8
(lp1642
sg13
(lp1643
S'physical'
p1644
asg16
F1.0
sg17
F1509793310.088
sg18
I1
sg19
(lp1645
(lp1646
F1506370557.351
aS'2017-09-26 05:15:57'
p1647
aF0.0
aa(lp1648
F1509793310.088
ag1640
aF1.0
aasbsI125
(imyfunction
mondai
p1649
(dp1650
g3
S'2017-11-04 20:08:13'
p1651
sg5
F0.10791327077655867
sg6
S'125.jpg'
p1652
sg8
(lp1653
sg13
(lp1654
S'physical'
p1655
asg16
F1.0
sg17
F1509793693.882
sg18
I1
sg19
(lp1656
(lp1657
F1506372586.124
aS'2017-09-26 05:49:46'
p1658
aF0.0
aa(lp1659
F1509793693.882
ag1651
aF1.0
aasbsI126
(imyfunction
mondai
p1660
(dp1661
g3
S'2017-11-10 20:58:39'
p1662
sg5
F0.5250467186703324
sg6
S'126.jpg'
p1663
sg8
(lp1664
sg13
(lp1665
S'physical'
p1666
asg16
F-6.367176625891049e-18
sg17
F1510315119.112
sg18
I2
sg19
(lp1667
(lp1668
F1506373963.589
aS'2017-09-26 06:12:43'
p1669
aF0.0
aa(lp1670
F1509795004.035
aS'2017-11-04 20:30:04'
p1671
aF0.0
aa(lp1672
F1510315119.112
ag1662
aF0.0024300330602857125
aasbsI127
(imyfunction
mondai
p1673
(dp1674
g3
S'2017-11-04 21:00:56'
p1675
sg5
F0.10923789488794808
sg6
S'127.jpg'
p1676
sg8
(lp1677
sg13
(lp1678
S'physical'
p1679
asg16
F1.0
sg17
F1509796856.166
sg18
I1
sg19
(lp1680
(lp1681
F1506433333.109
aS'2017-09-26 22:42:13'
p1682
aF0.0
aa(lp1683
F1509796856.166
ag1675
aF1.0
aasbsI128
(imyfunction
mondai
p1684
(dp1685
g3
S'2017-11-10 20:58:43'
p1686
sg5
F0.5250740047933492
sg6
S'128.jpg'
p1687
sg8
(lp1688
sg13
(lp1689
S'physical'
p1690
asg16
F-1.2393336990361653e-17
sg17
F1510315123.602
sg18
I1
sg19
(lp1691
(lp1692
F1506433386.409
aS'2017-09-26 22:43:06'
p1693
aF0.0
aa(lp1694
F1509796884.209
aS'2017-11-04 21:01:24'
p1695
aF0.0
aa(lp1696
F1510315123.602
ag1686
aF0.002483364158085632
aasbsI129
(imyfunction
mondai
p1697
(dp1698
g3
S'2017-11-05 05:51:47'
p1699
sg5
F0.017545656263915545
sg6
S'129.png'
p1700
sg8
(lp1701
sg13
(lp1702
S'physical'
p1703
asg16
F0.39999999998787544
sg17
F1509828707.479
sg18
I5
sg19
(lp1704
(lp1705
F1506458514.65
aS'2017-09-27 05:41:54'
p1706
aF0.4
aa(lp1707
F1509828707.479
ag1699
aI0
aasbsI130
(imyfunction
mondai
p1708
(dp1709
g3
S'2017-11-10 20:58:49'
p1710
sg5
F0.5251069748845691
sg6
S'130.jpg'
p1711
sg8
(lp1712
sg13
(lp1713
S'physical'
p1714
asg16
F-1.6830748740452486e-17
sg17
F1510315129.027
sg18
I2
sg19
(lp1715
(lp1716
F1506459850.374
aS'2017-09-27 06:04:10'
p1717
aF0.0
aa(lp1718
F1509796905.583
aS'2017-11-04 21:01:45'
p1719
aF0.0
aa(lp1720
F1510315129.027
ag1710
aF0.0024838226167723217
aasbsI131
(imyfunction
mondai
p1721
(dp1722
g3
S'2017-11-11 12:19:30'
p1723
sg5
F0.9963674931260945
sg6
S'131.jpg'
p1724
sg8
(lp1725
sg13
(lp1726
S'physical'
p1727
asg16
F0.24999999999999997
sg17
F1510370370.07
sg18
I2
sg19
(lp1728
(lp1729
F1506462691.94
aS'2017-09-27 06:51:31'
p1730
aF0.0
aa(lp1731
F1509797136.172
aS'2017-11-04 21:05:36'
p1732
aF0.25
aa(lp1733
F1510370370.07
ag1723
aF0.006465693279877761
aasbsI132
(imyfunction
mondai
p1734
(dp1735
g3
S'2017-11-10 20:58:55'
p1736
sg5
F0.5251474959876474
sg6
S'132.jpg'
p1737
sg8
(lp1738
sg13
(lp1739
S'physical'
p1740
asg16
F-2.789510265903354e-17
sg17
F1510315135.694
sg18
I3
sg19
(lp1741
(lp1742
F1506503838.042
aS'2017-09-27 18:17:18'
p1743
aF0.0
aa(lp1744
F1509797240.2
aS'2017-11-04 21:07:20'
p1745
aF0.0
aa(lp1746
F1510315135.694
ag1736
aF0.002493268421439688
aasbsI133
(imyfunction
mondai
p1747
(dp1748
g3
S'2017-11-10 20:58:58'
p1749
sg5
F0.5251670860568003
sg6
S'133.jpg'
p1750
sg8
(lp1751
sg13
(lp1752
S'physical'
p1753
asg16
F-2.852001689060002e-17
sg17
F1510315138.917
sg18
I3
sg19
(lp1754
(lp1755
F1506505769.532
aS'2017-09-27 18:49:29'
p1756
aF0.0
aa(lp1757
F1509797257.494
aS'2017-11-04 21:07:37'
p1758
aF0.0
aa(lp1759
F1510315138.917
ag1749
aF0.0024936745051958873
aasbsI134
(imyfunction
mondai
p1760
(dp1761
g3
S'2017-11-10 20:59:01'
p1762
sg5
F0.5251839840657392
sg6
S'134.jpg'
p1763
sg8
(lp1764
sg13
(lp1765
S'physical'
p1766
asg16
F-2.914613422368457e-17
sg17
F1510315141.697
sg18
I2
sg19
(lp1767
(lp1768
F1506508264.869
aS'2017-09-27 19:31:04'
p1769
aF0.0
aa(lp1770
F1509797876.56
aS'2017-11-04 21:17:56'
p1771
aF0.0
aa(lp1772
F1510315141.697
ag1762
aF0.002511525324082287
aasbsI135
(imyfunction
mondai
p1773
(dp1774
g3
S'2017-11-10 20:59:04'
p1775
sg5
F0.5252039462988338
sg6
S'135.jpg'
p1776
sg8
(lp1777
sg13
(lp1778
S'physical'
p1779
asg16
F-2.9519835128344627e-17
sg17
F1510315144.981
sg18
I3
sg19
(lp1780
(lp1781
F1506509509.686
aS'2017-09-27 19:51:49'
p1782
aF0.0
aa(lp1783
F1509798020.631
aS'2017-11-04 21:20:20'
p1784
aF0.0
aa(lp1785
F1510315144.981
ag1775
aF0.002515621138395431
aasbsI136
(imyfunction
mondai
p1786
(dp1787
g3
S'2017-11-04 21:22:44'
p1788
sg5
F0.1097905560709996
sg6
S'136.jpg'
p1789
sg8
(lp1790
sg13
(lp1791
S'physical'
p1792
asg16
F1.0
sg17
F1509798164.216
sg18
I2
sg19
(lp1793
(lp1794
F1506516601.052
aS'2017-09-27 21:50:01'
p1795
aF0.0
aa(lp1796
F1509798164.216
ag1788
aF1.0
aasbsI137
(imyfunction
mondai
p1797
(dp1798
g3
S'2017-11-10 20:59:09'
p1799
sg5
F0.52523249896093
sg6
S'137.jpg'
p1800
sg8
(lp1801
sg13
(lp1802
S'physical'
p1803
asg16
F-3.152669138802942e-17
sg17
F1510315149.678
sg18
I1
sg19
(lp1804
(lp1805
F1506517911.457
aS'2017-09-27 22:11:51'
p1806
aF0.0
aa(lp1807
F1509800739.69
aS'2017-11-04 22:05:39'
p1808
aF0.0
aa(lp1809
F1510315149.678
ag1799
aF0.002595906998890413
aasbsI138
(imyfunction
mondai
p1810
(dp1811
g3
S'2017-11-05 03:29:03'
p1812
sg5
F0.11945272768402934
sg6
S'138.jpeg'
p1813
sg8
(lp1814
sg13
(lp1815
S'math'
p1816
asg16
F0.999802595053132
sg17
F1509820143.369
sg18
I1
sg19
(lp1817
(lp1818
F1506740752.301
aS'2017-09-30 12:05:52'
p1819
aF0.0
aa(lp1820
F1507477766.193
aS'2017-10-09 00:49:26'
p1821
aF0.0
aa(lp1822
F1509820143.369
ag1812
aF1.0
aasbsI139
(imyfunction
mondai
p1823
(dp1824
g3
S'2017-11-05 05:22:52'
p1825
sg5
F0.12264260195735717
sg6
S'139.jpeg'
p1826
sg8
(lp1827
sg13
(lp1828
S'math'
p1829
asg16
F0.9998028102740147
sg17
F1509826972.649
sg18
I1
sg19
(lp1830
(lp1831
F1506741552.498
aS'2017-09-30 12:19:12'
p1832
aF0.0
aa(lp1833
F1507478660.639
aS'2017-10-09 01:04:20'
p1834
aF0.0
aa(lp1835
F1509826972.649
ag1825
aF1.0
aasbsI140
(imyfunction
mondai
p1836
(dp1837
g3
S'2017-11-05 05:26:15'
p1838
sg5
F0.12273381875708937
sg6
S'140.jpeg'
p1839
sg8
(lp1840
sg13
(lp1841
S'math'
p1842
asg16
F0.999786192347198
sg17
F1509827175.243
sg18
I2
sg19
(lp1843
(lp1844
F1506749258.778
aS'2017-09-30 14:27:38'
p1845
aF0.0
aa(lp1846
F1507479376.256
aS'2017-10-09 01:16:16'
p1847
aF0.0
aa(lp1848
F1509827175.243
ag1838
aF1.0
aasbsI141
(imyfunction
mondai
p1849
(dp1850
g3
S'2017-11-10 21:26:59'
p1851
sg5
F0.696247802824083
sg6
S'141.jpeg'
p1852
sg8
(lp1853
sg13
(lp1854
S'math'
p1855
asg16
F0.4963160143668611
sg17
F1510316819.463
sg18
I1
sg19
(lp1856
(lp1857
F1506750516.768
aS'2017-09-30 14:48:36'
p1858
aF0.0
aa(lp1859
F1507479697.815
aS'2017-10-09 01:21:37'
p1860
aF0.0
aa(lp1861
F1509827546.958
aS'2017-11-05 05:32:26'
p1862
aF0.0
aa(lp1863
F1510316819.463
ag1851
aF0.5
aasbsI142
(imyfunction
mondai
p1864
(dp1865
g3
S'2017-11-06 19:20:38'
p1866
sg5
F0.15050407240381217
sg6
S'142.jpeg'
p1867
sg8
(lp1868
sg13
(lp1869
S'math'
p1870
asg16
F0.8297826811725624
sg17
F1509963638.208
sg18
I3
sg19
(lp1871
(lp1872
F1506751630.334
aS'2017-09-30 15:07:10'
p1873
aF0.0
aa(lp1874
F1507480341.279
aS'2017-10-09 01:32:21'
p1875
aF0.33
aa(lp1876
F1509963638.208
ag1866
aF0.5
aasbsI143
(imyfunction
mondai
p1877
(dp1878
g3
S'2017-11-10 21:31:08'
p1879
sg5
F0.6974086147568895
sg6
S'143.jpeg'
p1880
sg8
(lp1881
sg13
(lp1882
S'math'
p1883
asg16
F0.496308225558944
sg17
F1510317068.209
sg18
I1
sg19
(lp1884
(lp1885
F1506753424.981
aS'2017-09-30 15:37:04'
p1886
aF0.0
aa(lp1887
F1507481179.374
aS'2017-10-09 01:46:19'
p1888
aF0.0
aa(lp1889
F1509827901.949
aS'2017-11-05 05:38:21'
p1890
aF0.0
aa(lp1891
F1510317068.209
ag1879
aF0.5
aasbsI144
(imyfunction
mondai
p1892
(dp1893
g3
S'2017-11-10 03:16:14'
p1894
sg5
F0.6308088155046908
sg6
S'144.jpeg'
p1895
sg8
(lp1896
sg13
(lp1897
S'math'
p1898
asg16
F0.999846586668985
sg17
F1510251374.151
sg18
I1
sg19
(lp1899
(lp1900
F1506756245.305
aS'2017-09-30 16:24:05'
p1901
aF0.0
aa(lp1902
F1507532292.155
aS'2017-10-09 15:58:12'
p1903
aF1.0
aa(lp1904
F1510251374.151
ag1894
aF0.0
aasbsI145
(imyfunction
mondai
p1905
(dp1906
g3
S'2017-11-08 02:51:00'
p1907
sg5
F0.32195641301622113
sg6
S'145.jpeg'
p1908
sg8
(lp1909
sg13
(lp1910
S'math'
p1911
asg16
F0.9998731815992212
sg17
F1510077060.488
sg18
I2
sg19
(lp1912
(lp1913
F1506757681.878
aS'2017-09-30 16:48:01'
p1914
aF0.0
aa(lp1915
F1507532955.989
aS'2017-10-09 16:09:15'
p1916
aF0.5
aa(lp1917
F1510077060.488
ag1907
aF0.5
aasbsI146
(imyfunction
mondai
p1918
(dp1919
g3
S'2017-11-11 12:19:33'
p1920
sg5
F0.9957794167874953
sg6
S'146.png'
p1921
sg8
(lp1922
sg13
(lp1923
S'math'
p1924
asg16
F0.0999999999901644
sg17
F1510370373.194
sg18
I8
sg19
(lp1925
(lp1926
F1507448651.688
aS'2017-10-08 16:44:11'
p1927
aF0.1
aa(lp1928
F1509892748.304
aS'2017-11-05 23:39:08'
p1929
aI0
aa(lp1930
F1510370373.194
ag1920
aF0.007062774113540493
aasbsI147
(imyfunction
mondai
p1931
(dp1932
g3
S'2017-11-08 04:43:43'
p1933
sg5
F0.20019973209569794
sg6
S'147.png'
p1934
sg8
(lp1935
sg13
(lp1936
S'math'
p1937
asg16
F0.6599996071426554
sg17
F1510083823.03
sg18
I9
sg19
(lp1938
(lp1939
F1507452340.628
aS'2017-10-08 17:45:40'
p1940
aF0.66
aa(lp1941
F1510083823.03
ag1933
aI0
aasbsI148
(imyfunction
mondai
p1942
(dp1943
g3
S'2017-11-06 19:21:20'
p1944
sg5
F0.04801386595314137
sg6
S'148.png'
p1945
sg8
(lp1946
sg13
(lp1947
S'math'
p1948
asg16
F0.3999999916923502
sg17
F1509963680.24
sg18
I9
sg19
(lp1949
(lp1950
F1507468985.909
aS'2017-10-08 22:23:05'
p1951
aF0.4
aa(lp1952
F1509963680.24
ag1944
aI0
aasbsI149
(imyfunction
mondai
p1953
(dp1954
g3
S'2017-11-09 05:58:29'
p1955
sg5
F0.3897185869872262
sg6
S'149.png'
p1956
sg8
(lp1957
sg13
(lp1958
S'math'
p1959
asg16
F0.8
sg17
F1510174709.801
sg18
I10
sg19
(lp1960
(lp1961
F1507471003.735
aS'2017-10-08 22:56:43'
p1962
aF0.8
aa(lp1963
F1510174709.801
ag1955
aF2.2735330367174012e-06
aasbsI150
(imyfunction
mondai
p1964
(dp1965
g3
S'2017-11-06 00:47:37'
p1966
sg5
F0.010041432675292165
sg6
S'150.jpg'
p1967
sg8
(lp1968
sg13
(lp1969
S'math'
p1970
asg16
F0.15999999993740666
sg17
F1509896857.034
sg18
I6
sg19
(lp1971
(lp1972
F1507476849.026
aS'2017-10-09 00:34:09'
p1973
aF0.16
aa(lp1974
F1509896857.034
ag1966
aF0.0
aasbsI151
(imyfunction
mondai
p1975
(dp1976
g3
S'2017-11-06 18:48:03'
p1977
sg5
F0.30141832609847324
sg6
S'151.jpg'
p1978
sg8
(lp1979
sg13
(lp1980
S'math'
p1981
asg16
F1.249999999448792
sg17
F1509961683.131
sg18
I2
sg19
(lp1982
(lp1983
F1507537535.679
aS'2017-10-09 17:25:35'
p1984
aF0.25
aa(lp1985
F1509961683.131
ag1977
aF1.0
aasbsI152
(imyfunction
mondai
p1986
(dp1987
g3
S'2017-11-10 21:32:00'
p1988
sg5
F0.5373658858465774
sg6
S'152.jpg'
p1989
sg8
(lp1990
sg13
(lp1991
S'math'
p1992
asg16
F-3.0869933330651437e-12
sg17
F1510317120.087
sg18
I2
sg19
(lp1993
(lp1994
F1507538724.533
aS'2017-10-09 17:45:24'
p1995
aF0.0
aa(lp1996
F1509828654.886
aS'2017-11-05 05:50:54'
p1997
aI0
aa(lp1998
F1510317120.087
ag1988
aF0.0035051133517635916
aasbsI153
(imyfunction
mondai
p1999
(dp2000
g3
S'2017-11-10 21:32:01'
p2001
sg5
F0.5373776843918936
sg6
S'153.jpeg'
p2002
sg8
(lp2003
sg13
(lp2004
S'chemistry'
p2005
asg16
F-3.11829457951147e-12
sg17
F1510317121.984
sg18
I3
sg19
(lp2006
(lp2007
F1507539602.653
aS'2017-10-09 18:00:02'
p2008
aF0.0
aa(lp2009
F1509828661.346
aS'2017-11-05 05:51:01'
p2010
aI0
aa(lp2011
F1510317121.984
ag2001
aF0.0035052984704485772
aasbsI154
(imyfunction
mondai
p2012
(dp2013
g3
S'2017-11-08 02:52:23'
p2014
sg5
F0.14055295686102234
sg6
S'154.jpeg'
p2015
sg8
(lp2016
sg13
(lp2017
S'chemistry'
p2018
asg16
F0.4999999566731249
sg17
F1510077143.781
sg18
I1
sg19
(lp2019
(lp2020
F1507539917.682
aS'2017-10-09 18:05:17'
p2021
aF0.5
aa(lp2022
F1510077143.781
ag2014
aF0.0
aasbsI155
(imyfunction
mondai
p2023
(dp2024
g3
S'2017-11-10 21:33:44'
p2025
sg5
F0.6981929593570497
sg6
S'155.jpeg'
p2026
sg8
(lp2027
sg13
(lp2028
S'chemistry'
p2029
asg16
F0.4964978241508289
sg17
F1510317224.583
sg18
I1
sg19
(lp2030
(lp2031
F1507540444.282
aS'2017-10-09 18:14:04'
p2032
aF0.0
aa(lp2033
F1509828686.943
aS'2017-11-05 05:51:26'
p2034
aI0
aa(lp2035
F1510317224.583
ag2025
aF0.5
aasbsI156
(imyfunction
mondai
p2036
(dp2037
g3
S'2017-11-10 21:34:54'
p2038
sg5
F0.5384498632340893
sg6
S'156.jpeg'
p2039
sg8
(lp2040
sg13
(lp2041
S'chemistry'
p2042
asg16
F-3.155761394908366e-12
sg17
F1510317294.198
sg18
I1
sg19
(lp2043
(lp2044
F1507540663.236
aS'2017-10-09 18:17:43'
p2045
aF0.0
aa(lp2046
F1509828690.006
aS'2017-11-05 05:51:30'
p2047
aI0
aa(lp2048
F1510317294.198
ag2038
aF0.003499479236495668
aasbsI157
(imyfunction
mondai
p2049
(dp2050
g3
S'2017-11-10 21:34:56'
p2051
sg5
F0.5384614175952579
sg6
S'157.jpeg'
p2052
sg8
(lp2053
sg13
(lp2054
S'chemistry'
p2055
asg16
F-3.2072770561896786e-12
sg17
F1510317296.052
sg18
I3
sg19
(lp2056
(lp2057
F1507542063.935
aS'2017-10-09 18:41:03'
p2058
aF0.0
aa(lp2059
F1509828691.672
aS'2017-11-05 05:51:31'
p2060
aI0
aa(lp2061
F1510317296.052
ag2051
aF0.0034994716218870463
aasbsI158
(imyfunction
mondai
p2062
(dp2063
g3
S'2017-11-08 05:16:34'
p2064
sg5
F0.2024247422234842
sg6
S'158.jpeg'
p2065
sg8
(lp2066
sg13
(lp2067
S'chemistry'
p2068
asg16
F0.66
sg17
F1510085794.784
sg18
I2
sg19
(lp2069
(lp2070
F1507542428.917
aS'2017-10-09 18:47:08'
p2071
aF0.66
aa(lp2072
F1510085794.784
ag2064
aF6.437766166281539e-07
aasbsI159
(imyfunction
mondai
p2073
(dp2074
g3
S'2017-11-10 21:34:57'
p2075
sg5
F0.5384678243263177
sg6
S'159.jpeg'
p2076
sg8
(lp2077
sg13
(lp2078
S'chemistry'
p2079
asg16
F-3.2404161537661128e-12
sg17
F1510317297.08
sg18
I1
sg19
(lp2080
(lp2081
F1507542953.359
aS'2017-10-09 18:55:53'
p2082
aF0.0
aa(lp2083
F1509828692.951
aS'2017-11-05 05:51:32'
p2084
aI0
aa(lp2085
F1510317297.08
ag2075
aF0.0034994818286972255
aasbsI160
(imyfunction
mondai
p2086
(dp2087
g3
S'2017-11-10 21:34:58'
p2088
sg5
F0.5384752844011315
sg6
S'160.jpeg'
p2089
sg8
(lp2090
sg13
(lp2091
S'chemistry'
p2092
asg16
F-3.2728358996630952e-12
sg17
F1510317298.277
sg18
I3
sg19
(lp2093
(lp2094
F1507543815.607
aS'2017-10-09 19:10:15'
p2095
aF0.0
aa(lp2096
F1509828695.079
aS'2017-11-05 05:51:35'
p2097
aI0
aa(lp2098
F1510317298.277
ag2088
aF0.00349951949693553
aasbsI161
(imyfunction
mondai
p2099
(dp2100
g3
S'2017-11-09 06:30:28'
p2101
sg5
F0.7326859656321525
sg6
S'161.jpeg'
p2102
sg8
(lp2103
sg13
(lp2104
S'chemistry'
p2105
asg16
F1.79999679593364
sg17
F1510176628.083
sg18
I1
sg19
(lp2106
(lp2107
F1507544308.072
aS'2017-10-09 19:18:28'
p2108
aF0.8
aa(lp2109
F1510176628.083
ag2101
aF1.0
aasbsI162
(imyfunction
mondai
p2110
(dp2111
g3
S'2017-11-10 21:35:00'
p2112
sg5
F0.5384865837751205
sg6
S'162.jpeg'
p2113
sg8
(lp2114
sg13
(lp2115
S'chemistry'
p2116
asg16
F-3.31423198867083e-12
sg17
F1510317300.09
sg18
I2
sg19
(lp2117
(lp2118
F1507544903.377
aS'2017-10-09 19:28:23'
p2119
aF0.0
aa(lp2120
F1509828696.882
aS'2017-11-05 05:51:36'
p2121
aI0
aa(lp2122
F1510317300.09
ag2112
aF0.0034995190918980595
aasbsI163
(imyfunction
mondai
p2123
(dp2124
g3
S'2017-11-10 21:35:01'
p2125
sg5
F0.5384943869016438
sg6
S'163.jpeg'
p2126
sg8
(lp2127
sg13
(lp2128
S'chemistry'
p2129
asg16
F-3.5148169494847655e-12
sg17
F1510317301.342
sg18
I2
sg19
(lp2130
(lp2131
F1507549981.563
aS'2017-10-09 20:53:01'
p2132
aF0.0
aa(lp2133
F1509828698.072
aS'2017-11-05 05:51:38'
p2134
aI0
aa(lp2135
F1510317301.342
ag2125
aF0.003499516580664152
aasbsI164
(imyfunction
mondai
p2136
(dp2137
g3
S'2017-11-10 21:35:02'
p2138
sg5
F0.5385002642514054
sg6
S'164.jpeg'
p2139
sg8
(lp2140
sg13
(lp2141
S'chemistry'
p2142
asg16
F-3.5376187660107267e-12
sg17
F1510317302.285
sg18
I2
sg19
(lp2143
(lp2144
F1507550541.506
aS'2017-10-09 21:02:21'
p2145
aF0.0
aa(lp2146
F1509828699.319
aS'2017-11-05 05:51:39'
p2147
aI0
aa(lp2148
F1510317302.285
ag2138
aF0.003499528893795198
aasbsI165
(imyfunction
mondai
p2149
(dp2150
g3
S'2017-11-10 21:35:03'
p2151
sg5
F0.5385082420920093
sg6
S'165.jpeg'
p2152
sg8
(lp2153
sg13
(lp2154
S'chemistry'
p2155
asg16
F-3.5523812489298874e-12
sg17
F1510317303.565
sg18
I3
sg19
(lp2156
(lp2157
F1507550902.297
aS'2017-10-09 21:08:22'
p2158
aF0.0
aa(lp2159
F1509828700.313
aS'2017-11-05 05:51:40'
p2160
aI0
aa(lp2161
F1510317303.565
ag2151
aF0.0034995173097248063
aasbsI166
(imyfunction
mondai
p2162
(dp2163
g3
S'2017-11-05 23:31:57'
p2164
sg5
F0.15787760337450152
sg6
S'166.jpg'
p2165
sg8
(lp2166
(lp2167
S'2017-10-11 07:58:16'
p2168
aS'answer is 3'
p2169
aasg13
(lp2170
S'physical'
p2171
asg16
F0.9999999999927383
sg17
F1509892317.464
sg18
I1
sg19
(lp2172
(lp2173
F1507676296.193
ag2168
aF0.0
aa(lp2174
F1509892317.464
ag2164
aF1.0
aasbsI167
(imyfunction
mondai
p2175
(dp2176
g3
S'2017-11-05 23:38:58'
p2177
sg5
F0.1581340683692935
sg6
S'167.jpg'
p2178
sg8
(lp2179
(lp2180
S'2017-10-11 08:23:17'
p2181
aS'answer is 1'
p2182
aasg13
(lp2183
S'physical'
p2184
asg16
F0.9999999999926468
sg17
F1509892738.181
sg18
I1
sg19
(lp2185
(lp2186
F1507677797.802
ag2181
aF0.0
aa(lp2187
F1509892738.181
ag2177
aF1.0
aasbsI168
(imyfunction
mondai
p2188
(dp2189
g3
S'2017-11-05 23:42:53'
p2190
sg5
F0.1582777677950573
sg6
S'168.jpg'
p2191
sg8
(lp2192
(lp2193
S'2017-10-11 15:27:59'
p2194
aS'answer is 4'
p2195
aasg13
(lp2196
S'physical'
p2197
asg16
F0.9999999999901513
sg17
F1509892973.614
sg18
I1
sg19
(lp2198
(lp2199
F1507703279.013
ag2194
aF0.0
aa(lp2200
F1509892973.614
ag2190
aF1.0
aasbsI169
(imyfunction
mondai
p2201
(dp2202
g3
S'2017-11-05 23:48:15'
p2203
sg5
F0.15847456665482615
sg6
S'169.jpg'
p2204
sg8
(lp2205
(lp2206
S'2017-10-11 16:49:30'
p2207
aS'ans'
p2208
aasg13
(lp2209
S'physical'
p2210
asg16
F0.9999999999896164
sg17
F1509893295.697
sg18
I1
sg19
(lp2211
(lp2212
F1507708170.907
ag2207
aF0.0
aa(lp2213
F1509893295.697
ag2203
aF1.0
aasbsI170
(imyfunction
mondai
p2214
(dp2215
g3
S'2017-11-05 23:50:34'
p2216
sg5
F0.15855918604336464
sg6
S'170.jpg'
p2217
sg8
(lp2218
(lp2219
S'2017-10-11 18:48:58'
p2220
aS'answer is 1'
p2221
aasg13
(lp2222
S'physical'
p2223
asg16
F0.9999999999887363
sg17
F1509893434.063
sg18
I1
sg19
(lp2224
(lp2225
F1507715338.734
ag2220
aF0.0
aa(lp2226
F1509893434.063
ag2216
aF1.0
aasbsI171
(imyfunction
mondai
p2227
(dp2228
g3
S'2017-11-05 23:53:12'
p2229
sg5
F0.15865633145667998
sg6
S'171.jpg'
p2230
sg8
(lp2231
(lp2232
S'2017-10-11 19:41:13'
p2233
aS'answer is 3'
p2234
aasg13
(lp2235
S'physical'
p2236
asg16
F0.9999999999883415
sg17
F1509893592.82
sg18
I1
sg19
(lp2237
(lp2238
F1507718473.631
ag2233
aF0.0
aa(lp2239
F1509893592.82
ag2229
aF1.0
aasbsI172
(imyfunction
mondai
p2240
(dp2241
g3
S'2017-11-05 23:54:22'
p2242
sg5
F0.1587008875772485
sg6
S'172.jpg'
p2243
sg8
(lp2244
(lp2245
S'2017-10-11 19:47:11'
p2246
aS'answer is 4'
p2247
aasg13
(lp2248
S'chemistry'
p2249
asg16
F0.9999999999883027
sg17
F1509893662.791
sg18
I1
sg19
(lp2250
(lp2251
F1507718831.233
ag2246
aF0.0
aa(lp2252
F1509893662.791
ag2242
aF1.0
aasbsI173
(imyfunction
mondai
p2253
(dp2254
g3
S'2017-11-05 23:57:41'
p2255
sg5
F0.15882247929816898
sg6
S'173.jpg'
p2256
sg8
(lp2257
(lp2258
S'2017-10-11 19:52:49'
p2259
aS'answer is 4'
p2260
aasg13
(lp2261
S'chemistry'
p2262
asg16
F0.9999999999882838
sg17
F1509893861.306
sg18
I1
sg19
(lp2263
(lp2264
F1507719169.331
ag2259
aF0.0
aa(lp2265
F1509893861.306
ag2255
aF1.0
aasbsI174
(imyfunction
mondai
p2266
(dp2267
g3
S'2017-11-05 23:59:35'
p2268
sg5
F0.15889267632772486
sg6
S'174.jpg'
p2269
sg8
(lp2270
(lp2271
S'2017-10-11 20:29:32'
p2272
aS'answer is 1'
p2273
aasg13
(lp2274
S'chemistry'
p2275
asg16
F0.9999999999879972
sg17
F1509893975.843
sg18
I1
sg19
(lp2276
(lp2277
F1507721372.248
ag2272
aF0.0
aa(lp2278
F1509893975.843
ag2268
aF1.0
aasbsI175
(imyfunction
mondai
p2279
(dp2280
g3
S'2017-11-11 12:19:25'
p2281
sg5
F0.9983906923470192
sg6
S'175.jpg'
p2282
sg8
(lp2283
(lp2284
S'2017-10-11 20:40:42'
p2285
aS'answer is 6'
p2286
aasg13
(lp2287
S'chemistry'
p2288
asg16
F0.9959626992127378
sg17
F1510370365.438
sg18
I1
sg19
(lp2289
(lp2290
F1507722042.07
ag2285
aF0.0
aa(lp2291
F1509894113.178
aS'2017-11-06 00:01:53'
p2292
aF0.0
aa(lp2293
F1510370365.438
ag2281
aF1.0
aasbsI176
(imyfunction
mondai
p2294
(dp2295
g3
S'2017-11-06 00:04:14'
p2296
sg5
F0.1590636336418636
sg6
S'176.jpg'
p2297
sg8
(lp2298
(lp2299
S'2017-10-11 20:54:35'
p2300
aS'answer is 2'
p2301
aasg13
(lp2302
S'chemistry'
p2303
asg16
F0.9999999999878258
sg17
F1509894254.574
sg18
I1
sg19
(lp2304
(lp2305
F1507722875.516
ag2300
aF0.0
aa(lp2306
F1509894254.574
ag2296
aF1.0
aasbsI177
(imyfunction
mondai
p2307
(dp2308
g3
S'2017-11-06 00:05:54'
p2309
sg5
F0.1591252520482218
sg6
S'177.jpg'
p2310
sg8
(lp2311
(lp2312
S'2017-10-11 21:05:20'
p2313
aS'answer is 8'
p2314
aasg13
(lp2315
S'chemistry'
p2316
asg16
F0.9999999999877488
sg17
F1509894354.964
sg18
I1
sg19
(lp2317
(lp2318
F1507723520.985
ag2313
aF0.0
aa(lp2319
F1509894354.964
ag2309
aF1.0
aasbsI178
(imyfunction
mondai
p2320
(dp2321
g3
S'2017-11-06 00:13:54'
p2322
sg5
F0.15941799775304896
sg6
S'178.jpg'
p2323
sg8
(lp2324
(lp2325
S'2017-10-12 20:33:01'
p2326
aS'answer is 3'
p2327
aasg13
(lp2328
S'physical'
p2329
asg16
F0.999999999967617
sg17
F1509894834.192
sg18
I1
sg19
(lp2330
(lp2331
F1507807981.467
ag2326
aF0.0
aa(lp2332
F1509894834.192
ag2322
aF1.0
aasbsI179
(imyfunction
mondai
p2333
(dp2334
g3
S'2017-11-06 00:15:36'
p2335
sg5
F0.15948079940759902
sg6
S'179.jpg'
p2336
sg8
(lp2337
(lp2338
S'2017-10-12 21:04:22'
p2339
aS'answer is 4'
p2340
aasg13
(lp2341
S'physical'
p2342
asg16
F0.9999999999669433
sg17
F1509894936.282
sg18
I1
sg19
(lp2343
(lp2344
F1507809862.47
ag2339
aF0.0
aa(lp2345
F1509894936.282
ag2335
aF1.0
aasbsI180
(imyfunction
mondai
p2346
(dp2347
g3
S'2017-11-06 00:18:01'
p2348
sg5
F0.1595699754507292
sg6
S'180.jpg'
p2349
sg8
(lp2350
(lp2351
S'2017-10-12 21:21:23'
p2352
aS'answer is 2'
p2353
aasg13
(lp2354
S'physical'
p2355
asg16
F0.9999999999666065
sg17
F1509895081.177
sg18
I1
sg19
(lp2356
(lp2357
F1507810883.52
ag2352
aF0.0
aa(lp2358
F1509895081.177
ag2348
aF1.0
aasbsI181
(imyfunction
mondai
p2359
(dp2360
g3
S'2017-11-06 00:25:10'
p2361
sg5
F0.15983455558588278
sg6
S'181.jpg'
p2362
sg8
(lp2363
(lp2364
S'2017-10-13 00:54:07'
p2365
aS'answer is 2'
p2366
aasg13
(lp2367
S'physical'
p2368
asg16
F0.9999999999614821
sg17
F1509895510.596
sg18
I1
sg19
(lp2369
(lp2370
F1507823647.317
ag2365
aF0.0
aa(lp2371
F1509895510.596
ag2361
aF1.0
aasbsI182
(imyfunction
mondai
p2372
(dp2373
g3
S'2017-11-06 00:36:54'
p2374
sg5
F0.1602691479647047
sg6
S'182.jpg'
p2375
sg8
(lp2376
(lp2377
S'2017-10-13 01:54:17'
p2378
aS'answer is 3'
p2379
aasg13
(lp2380
S'physical'
p2381
asg16
F0.9999999999601644
sg17
F1509896214.408
sg18
I1
sg19
(lp2382
(lp2383
F1507827257.484
ag2378
aF0.0
aa(lp2384
F1509896214.408
ag2374
aF1.0
aasbsI183
(imyfunction
mondai
p2385
(dp2386
g3
S'2017-11-06 00:43:43'
p2387
sg5
F0.16052206368142508
sg6
S'183.jpg'
p2388
sg8
(lp2389
(lp2390
S'2017-10-13 12:50:55'
p2391
aS'answer is 7'
p2392
aasg13
(lp2393
S'physical'
p2394
asg16
F0.9999999999374461
sg17
F1509896623.121
sg18
I1
sg19
(lp2395
(lp2396
F1507866655.695
ag2391
aF0.0
aa(lp2397
F1509896623.121
ag2387
aF1.0
aasbsI184
(imyfunction
mondai
p2398
(dp2399
g3
S'2017-11-06 01:01:19'
p2400
sg5
F0.1611777221851375
sg6
S'184.jpg'
p2401
sg8
(lp2402
(lp2403
S'2017-10-13 13:01:36'
p2404
aS'answer is 6'
p2405
aasg13
(lp2406
S'physical'
p2407
asg16
F0.9999999999377462
sg17
F1509897679.678
sg18
I1
sg19
(lp2408
(lp2409
F1507867296.778
ag2404
aF0.0
aa(lp2410
F1509897679.678
ag2400
aF1.0
aasbsI185
(imyfunction
mondai
p2411
(dp2412
g3
S'2017-11-06 01:03:40'
p2413
sg5
F0.16126709612343593
sg6
S'185.jpg'
p2414
sg8
(lp2415
(lp2416
S'2017-10-13 13:37:17'
p2417
aS'answer is 4'
p2418
aasg13
(lp2419
S'chemistry'
p2420
asg16
F0.9999999999362886
sg17
F1509897820.554
sg18
I1
sg19
(lp2421
(lp2422
F1507869437.306
ag2417
aF0.0
aa(lp2423
F1509897820.554
ag2413
aF1.0
aasbsI186
(imyfunction
mondai
p2424
(dp2425
g3
S'2017-11-06 01:05:36'
p2426
sg5
F0.16133739390236326
sg6
S'186.jpg'
p2427
sg8
(lp2428
(lp2429
S'2017-10-13 17:29:58'
p2430
aS'answer is 4'
p2431
aasg13
(lp2432
S'physical'
p2433
asg16
F0.9999999999252155
sg17
F1509897936.329
sg18
I1
sg19
(lp2434
(lp2435
F1507883398.421
ag2430
aF0.0
aa(lp2436
F1509897936.329
ag2426
aF1.0
aasbsI187
(imyfunction
mondai
p2437
(dp2438
g3
S'2017-11-06 16:22:41'
p2439
sg5
F0.19949410147335647
sg6
S'187.jpg'
p2440
sg8
(lp2441
(lp2442
S'2017-10-13 17:44:23'
p2443
aS'answer is 3'
p2444
aasg13
(lp2445
S'physical'
p2446
asg16
F0.9999999999600446
sg17
F1509952961.089
sg18
I1
sg19
(lp2447
(lp2448
F1507884263.63
ag2443
aF0.0
aa(lp2449
F1509952961.089
ag2439
aF1.0
aasbsI188
(imyfunction
mondai
p2450
(dp2451
g3
S'2017-11-06 16:25:27'
p2452
sg5
F0.19962256791679325
sg6
S'188.jpg'
p2453
sg8
(lp2454
(lp2455
S'2017-10-13 17:51:16'
p2456
aS'answer is 1'
p2457
aasg13
(lp2458
S'physical'
p2459
asg16
F0.9999999999599307
sg17
F1509953127.95
sg18
I1
sg19
(lp2460
(lp2461
F1507884676.435
ag2456
aF0.0
aa(lp2462
F1509953127.95
ag2452
aF1.0
aasbsI189
(imyfunction
mondai
p2463
(dp2464
g3
S'2017-11-06 16:28:13'
p2465
sg5
F0.19974978233531862
sg6
S'189.jpg'
p2466
sg8
(lp2467
(lp2468
S'2017-10-13 17:56:35'
p2469
aS'answer is 1'
p2470
aasg13
(lp2471
S'physical'
p2472
asg16
F0.9999999999598592
sg17
F1509953293.079
sg18
I1
sg19
(lp2473
(lp2474
F1507884995.554
ag2469
aF0.0
aa(lp2475
F1509953293.079
ag2465
aF1.0
aasbsI190
(imyfunction
mondai
p2476
(dp2477
g3
S'2017-11-06 16:30:51'
p2478
sg5
F0.1998740804433838
sg6
S'190.jpg'
p2479
sg8
(lp2480
(lp2481
S'2017-10-14 14:04:14'
p2482
aS'answer is 1'
p2483
aasg13
(lp2484
S'chemistry'
p2485
asg16
F0.9999999999073149
sg17
F1509953451.509
sg18
I1
sg19
(lp2486
(lp2487
F1507957454.81
ag2482
aF0.0
aa(lp2488
F1509953451.509
ag2478
aF1.0
aasbsI191
(imyfunction
mondai
p2489
(dp2490
g3
S'2017-11-06 16:46:12'
p2491
sg5
F0.2005857572344717
sg6
S'191.jpg'
p2492
sg8
(lp2493
(lp2494
S'2017-10-14 14:23:02'
p2495
aS'answer is 6'
p2496
aasg13
(lp2497
S'chemistry'
p2498
asg16
F0.9999999999070927
sg17
F1509954372.784
sg18
I1
sg19
(lp2499
(lp2500
F1507958582.999
ag2495
aF0.0
aa(lp2501
F1509954372.784
ag2491
aF1.0
aasbsI192
(imyfunction
mondai
p2502
(dp2503
g3
S'2017-11-06 16:48:00'
p2504
sg5
F0.20066902843762055
sg6
S'192.jpg'
p2505
sg8
(lp2506
(lp2507
S'2017-10-14 14:27:29'
p2508
aS'answer is 2'
p2509
aasg13
(lp2510
S'chemistry'
p2511
asg16
F0.9999999999069217
sg17
F1509954480.366
sg18
I1
sg19
(lp2512
(lp2513
F1507958849.5
ag2508
aF0.0
aa(lp2514
F1509954480.366
ag2504
aF1.0
aasbsI193
(imyfunction
mondai
p2515
(dp2516
g3
S'2017-11-11 12:27:07'
p2517
sg5
F0.00810195268327658
sg6
S'193.jpg'
p2518
sg8
(lp2519
(lp2520
S'2017-10-15 00:07:09'
p2521
aS'answer is 3'
p2522
aasg13
(lp2523
S'physical'
p2524
asg16
F-0.008101952822045073
sg17
F1510370827.525
sg18
I1
sg19
(lp2525
(lp2526
F1507993629.653
ag2521
aF0.0
aa(lp2527
F1509954755.35
aS'2017-11-06 16:52:35'
p2528
aF0.0
aa(lp2529
F1510370827.525
ag2517
aF0.0
aasbsI194
(imyfunction
mondai
p2530
(dp2531
g3
S'2017-11-06 16:54:35'
p2532
sg5
F0.00811729761000603
sg6
S'194.jpg'
p2533
sg8
(lp2534
(lp2535
S'2017-10-15 00:18:36'
p2536
aS'answer is 1'
p2537
aasg13
(lp2538
S'physical'
p2539
asg16
F-1.396824538944575e-10
sg17
F1509954875.181
sg18
I1
sg19
(lp2540
(lp2541
F1507994316.668
ag2536
aF0.0
aa(lp2542
F1509954875.181
ag2532
aF0.0
aasbsI195
(imyfunction
mondai
p2543
(dp2544
g3
S'2017-11-06 16:57:16'
p2545
sg5
F0.2010977701633912
sg6
S'195.jpg'
p2546
sg8
(lp2547
(lp2548
S'2017-10-15 00:26:03'
p2549
aS'answer is 4'
p2550
aasg13
(lp2551
S'physical'
p2552
asg16
F0.9999999998598544
sg17
F1509955036.384
sg18
I1
sg19
(lp2553
(lp2554
F1507994763.883
ag2549
aF0.0
aa(lp2555
F1509955036.384
ag2545
aF1.0
aasbsI196
(imyfunction
mondai
p2556
(dp2557
g3
S'2017-11-06 17:07:35'
p2558
sg5
F0.008190944868141578
sg6
S'196.jpg'
p2559
sg8
(lp2560
(lp2561
S'2017-10-15 00:30:39'
p2562
aS'answer is 1'
p2563
aasg13
(lp2564
S'physical'
p2565
asg16
F-1.3958915487789495e-10
sg17
F1509955655.543
sg18
I1
sg19
(lp2566
(lp2567
F1507995039.301
ag2562
aF0.0
aa(lp2568
F1509955655.543
ag2558
aF0.0
aasbsI197
(imyfunction
mondai
p2569
(dp2570
g3
S'2017-11-06 17:08:18'
p2571
sg5
F0.20161215334830115
sg6
S'197.jpg'
p2572
sg8
(lp2573
(lp2574
S'2017-10-15 01:51:08'
p2575
aS'answer is 2'
p2576
aasg13
(lp2577
S'physical'
p2578
asg16
F0.9999999998524607
sg17
F1509955698.539
sg18
I1
sg19
(lp2579
(lp2580
F1507999868.093
ag2575
aF0.0
aa(lp2581
F1509955698.539
ag2571
aF1.0
aasbsI198
(imyfunction
mondai
p2582
(dp2583
g3
S'2017-11-06 17:12:21'
p2584
sg5
F0.008218115036508707
sg6
S'198.jpg'
p2585
sg8
(lp2586
(lp2587
S'2017-10-15 01:58:06'
p2588
aS'answer is 6'
p2589
aasg13
(lp2590
S'physical'
p2591
asg16
F-1.4783945910900137e-10
sg17
F1509955941.666
sg18
I1
sg19
(lp2592
(lp2593
F1508000286.81
ag2588
aF0.0
aa(lp2594
F1509955941.666
ag2584
aF0.0
aasbsI199
(imyfunction
mondai
p2595
(dp2596
g3
S'2017-11-06 17:13:52'
p2597
sg5
F0.20187393514791638
sg6
S'199.jpg'
p2598
sg8
(lp2599
(lp2600
S'2017-10-15 02:02:51'
p2601
aS'answer is 4'
p2602
aasg13
(lp2603
S'chemistry'
p2604
asg16
F0.9999999998518283
sg17
F1509956032.065
sg18
I1
sg19
(lp2605
(lp2606
F1508000571.139
ag2601
aF0.0
aa(lp2607
F1509956032.065
ag2597
aF1.0
aasbsI200
(imyfunction
mondai
p2608
(dp2609
g3
S'2017-11-06 17:16:59'
p2610
sg5
F0.2020201808061507
sg6
S'200.jpg'
p2611
sg8
(lp2612
(lp2613
S'2017-10-15 02:21:46'
p2614
aS'answer is 2'
p2615
aasg13
(lp2616
S'chemistry'
p2617
asg16
F0.9999999998501934
sg17
F1509956219.772
sg18
I1
sg19
(lp2618
(lp2619
F1508001706.966
ag2614
aF0.0
aa(lp2620
F1509956219.772
ag2610
aF1.0
aasbsI201
(imyfunction
mondai
p2621
(dp2622
g3
S'2017-11-06 17:20:39'
p2623
sg5
F0.008265910180955233
sg6
S'201.jpg'
p2624
sg8
(lp2625
(lp2626
S'2017-10-15 02:32:25'
p2627
aS'answer is 5'
p2628
aasg13
(lp2629
S'chemistry'
p2630
asg16
F-1.5053402475779e-10
sg17
F1509956439.886
sg18
I1
sg19
(lp2631
(lp2632
F1508002345.603
ag2627
aF0.0
aa(lp2633
F1509956439.886
ag2623
aF0.0
aasbsI202
(imyfunction
mondai
p2634
(dp2635
g3
S'2017-11-06 18:06:21'
p2636
sg5
F0.008532119253554404
sg6
S'202.jpg'
p2637
sg8
(lp2638
(lp2639
S'2017-10-15 14:33:39'
p2640
aS'answer is 3'
p2641
aasg13
(lp2642
S'physical'
p2643
asg16
F-2.4064339264238433e-10
sg17
F1509959181.399
sg18
I1
sg19
(lp2644
(lp2645
F1508045619.689
ag2640
aF0.0
aa(lp2646
F1509959181.399
ag2636
aF0.0
aasbsI203
(imyfunction
mondai
p2647
(dp2648
g3
S'2017-11-06 18:07:12'
p2649
sg5
F0.20438008626060616
sg6
S'203.jpg'
p2650
sg8
(lp2651
(lp2652
S'2017-10-15 15:06:25'
p2653
aS'answer is 4'
p2654
aasg13
(lp2655
S'physical'
p2656
asg16
F0.9999999997539664
sg17
F1509959232.889
sg18
I1
sg19
(lp2657
(lp2658
F1508047585.104
ag2653
aF0.0
aa(lp2659
F1509959232.889
ag2649
aF1.0
aasbsI204
(imyfunction
mondai
p2660
(dp2661
g3
S'2017-11-06 18:25:55'
p2662
sg5
F0.20526704044245103
sg6
S'204.jpg'
p2663
sg8
(lp2664
(lp2665
S'2017-10-15 15:34:46'
p2666
aS'answer is 2'
p2667
aasg13
(lp2668
S'physical'
p2669
asg16
F0.9999999997523126
sg17
F1509960355.313
sg18
I1
sg19
(lp2670
(lp2671
F1508049286.372
ag2666
aF0.0
aa(lp2672
F1509960355.313
ag2662
aF1.0
aasbsI205
(imyfunction
mondai
p2673
(dp2674
g3
S'2017-11-06 18:26:37'
p2675
sg5
F0.20530013925316618
sg6
S'205.jpg'
p2676
sg8
(lp2677
(lp2678
S'2017-10-15 15:38:16'
p2679
aS'answer is 6'
p2680
aasg13
(lp2681
S'physical'
p2682
asg16
F0.9999999997518302
sg17
F1509960397.105
sg18
I1
sg19
(lp2683
(lp2684
F1508049496.279
ag2679
aF0.0
aa(lp2685
F1509960397.105
ag2675
aF1.0
aasbsI206
(imyfunction
mondai
p2686
(dp2687
g3
S'2017-11-06 18:28:44'
p2688
sg5
F0.2054033348333958
sg6
S'206.jpg'
p2689
sg8
(lp2690
(lp2691
S'2017-10-15 16:36:48'
p2692
aS'answer is 2'
p2693
aasg13
(lp2694
S'chemistry'
p2695
asg16
F0.9999999997419139
sg17
F1509960524.549
sg18
I1
sg19
(lp2696
(lp2697
F1508053008.871
ag2692
aF0.0
aa(lp2698
F1509960524.549
ag2688
aF1.0
aasbsI207
(imyfunction
mondai
p2699
(dp2700
g3
S'2017-11-06 18:36:04'
p2701
sg5
F0.20575197287806365
sg6
S'207.jpg'
p2702
sg8
(lp2703
(lp2704
S'2017-10-15 16:41:27'
p2705
aS'answer is 5'
p2706
aasg13
(lp2707
S'chemistry'
p2708
asg16
F0.9999999997423948
sg17
F1509960964.125
sg18
I1
sg19
(lp2709
(lp2710
F1508053287.288
ag2705
aF0.0
aa(lp2711
F1509960964.125
ag2701
aF1.0
aasbsI208
(imyfunction
mondai
p2712
(dp2713
g3
S'2017-11-06 18:38:16'
p2714
sg5
F0.20585471493552074
sg6
S'208.jpg'
p2715
sg8
(lp2716
(lp2717
S'2017-10-15 21:19:51'
p2718
aS'answer is 2'
p2719
aasg13
(lp2720
S'physical'
p2721
asg16
F0.999999999687928
sg17
F1509961096.336
sg18
I1
sg19
(lp2722
(lp2723
F1508069991.529
ag2718
aF0.0
aa(lp2724
F1509961096.336
ag2714
aF1.0
aasbsI209
(imyfunction
mondai
p2725
(dp2726
g3
S'2017-11-06 18:39:31'
p2727
sg5
F0.20591448101966073
sg6
S'209.jpg'
p2728
sg8
(lp2729
(lp2730
S'2017-10-16 01:40:11'
p2731
aS'answer is 2'
p2732
aasg13
(lp2733
S'physical'
p2734
asg16
F0.9999999996264125
sg17
F1509961171.579
sg18
I1
sg19
(lp2735
(lp2736
F1508085611.712
ag2731
aF0.0
aa(lp2737
F1509961171.579
ag2727
aF1.0
aasbsI210
(imyfunction
mondai
p2738
(dp2739
g3
S'2017-11-06 18:45:04'
p2740
sg5
F0.20617895291310412
sg6
S'210.jpg'
p2741
sg8
(lp2742
(lp2743
S'2017-10-16 02:03:46'
p2744
aS'answer is 4'
p2745
aasg13
(lp2746
S'physical'
p2747
asg16
F0.999999999621705
sg17
F1509961504.276
sg18
I1
sg19
(lp2748
(lp2749
F1508087026.29
ag2744
aF0.0
aa(lp2750
F1509961504.276
ag2740
aF1.0
aasbsI211
(imyfunction
mondai
p2751
(dp2752
g3
S'2017-11-06 19:02:21'
p2753
sg5
F0.20700549835667814
sg6
S'211.jpg'
p2754
sg8
(lp2755
(lp2756
S'2017-10-16 15:14:57'
p2757
aS'answer is 4'
p2758
aasg13
(lp2759
S'physical'
p2760
asg16
F0.9999999993525095
sg17
F1509962541.299
sg18
I1
sg19
(lp2761
(lp2762
F1508134497.273
ag2757
aF0.0
aa(lp2763
F1509962541.299
ag2753
aF1.0
aasbsI212
(imyfunction
mondai
p2764
(dp2765
g3
S'2017-11-06 19:05:26'
p2766
sg5
F0.008889760850660858
sg6
S'212.jpg'
p2767
sg8
(lp2768
(lp2769
S'2017-10-16 15:52:15'
p2770
aS'answer is 4'
p2771
aasg13
(lp2772
S'chemistry'
p2773
asg16
F-6.630643867513114e-10
sg17
F1509962726.376
sg18
I1
sg19
(lp2774
(lp2775
F1508136735.901
ag2770
aF0.0
aa(lp2776
F1509962726.376
ag2766
aF0.0
aasbsI213
(imyfunction
mondai
p2777
(dp2778
g3
S'2017-11-09 02:26:54'
p2779
sg5
F0.6281261526617826
sg6
S'213.jpg'
p2780
sg8
(lp2781
sg13
(lp2782
S'math'
p2783
asg16
F1.4999986029071528
sg17
F1510162014.361
sg18
I4
sg19
(lp2784
(lp2785
F1508144576.122
aS'2017-10-16 18:02:56'
p2786
aF0.5
aa(lp2787
F1510162014.361
ag2779
aF1.0
aasbsI214
(imyfunction
mondai
p2788
(dp2789
g3
S'2017-11-08 05:14:31'
p2790
sg5
F0.11926301632582269
sg6
S'214.jpg'
p2791
sg8
(lp2792
sg13
(lp2793
S'math'
p2794
asg16
F0.4
sg17
F1510085671.282
sg18
I5
sg19
(lp2795
(lp2796
F1508166942.318
aS'2017-10-17 00:15:42'
p2797
aF0.4
aa(lp2798
F1510085671.282
ag2790
aF6.096460601900306e-07
aasbsI215
(imyfunction
mondai
p2799
(dp2800
g3
S'2017-11-10 03:14:05'
p2801
sg5
F0.8168359813391799
sg6
S'215.jpg'
p2802
sg8
(lp2803
sg13
(lp2804
S'math'
p2805
asg16
F1.7499736421354513
sg17
F1510251245.902
sg18
I4
sg19
(lp2806
(lp2807
F1508174661.772
aS'2017-10-17 02:24:21'
p2808
aF0.75
aa(lp2809
F1510251245.902
ag2801
aF1.0
aasbsI216
(imyfunction
mondai
p2810
(dp2811
g3
S'2017-11-10 01:33:55'
p2812
sg5
F0.7909112441818552
sg6
S'216.jpg'
p2813
sg8
(lp2814
sg13
(lp2815
S'math'
p2816
asg16
F1.6599908280325435
sg17
F1510245235.245
sg18
I3
sg19
(lp2817
(lp2818
F1508175819.491
aS'2017-10-17 02:43:39'
p2819
aF0.66
aa(lp2820
F1510245235.245
ag2812
aF1.0
aasbsI217
(imyfunction
mondai
p2821
(dp2822
g3
S'2017-11-10 03:33:06'
p2823
sg5
F0.7681838811355858
sg6
S'217.jpg'
p2824
sg8
(lp2825
sg13
(lp2826
S'math'
p2827
asg16
F1.499967047738577
sg17
F1510252386.133
sg18
I4
sg19
(lp2828
(lp2829
F1508219779.466
aS'2017-10-17 14:56:19'
p2830
aF0.75
aa(lp2831
F1510252386.133
ag2823
aF0.75
aasbsI218
(imyfunction
mondai
p2832
(dp2833
g3
S'2017-11-09 05:55:27'
p2834
sg5
F0.6458801089898344
sg6
S'218.jpg'
p2835
sg8
(lp2836
sg13
(lp2837
S'math'
p2838
asg16
F1.499997801554907
sg17
F1510174527.972
sg18
I5
sg19
(lp2839
(lp2840
F1508224934.21
aS'2017-10-17 16:22:14'
p2841
aF0.5
aa(lp2842
F1510174527.972
ag2834
aF1.0
aasbsI219
(imyfunction
mondai
p2843
(dp2844
g3
S'2017-11-08 03:14:19'
p2845
sg5
F0.44435590870264075
sg6
S'219.jpg'
p2846
sg8
(lp2847
sg13
(lp2848
S'math'
p2849
asg16
F1.2999998000052295
sg17
F1510078459.098
sg18
I4
sg19
(lp2850
(lp2851
F1508225462.692
aS'2017-10-17 16:31:02'
p2852
aF0.3
aa(lp2853
F1510078459.098
ag2845
aF1.0
aasbsI220
(imyfunction
mondai
p2854
(dp2855
g3
S'2017-11-10 05:06:46'
p2856
sg5
F0.5815633528339762
sg6
S'220.jpg'
p2857
sg8
(lp2858
sg13
(lp2859
S'math'
p2860
asg16
F0.7999414144891381
sg17
F1510258006.687
sg18
I5
sg19
(lp2861
(lp2862
F1508230353.749
aS'2017-10-17 17:52:33'
p2863
aF0.8
aa(lp2864
F1510258006.687
ag2856
aF0.0
aasbsI221
(imyfunction
mondai
p2865
(dp2866
g3
S'2017-11-10 01:14:31'
p2867
sg5
F0.4683134147618364
sg6
S'221.jpg'
p2868
sg8
(lp2869
sg13
(lp2870
S'math'
p2871
asg16
F0.6
sg17
F1510244071.505
sg18
I10
sg19
(lp2872
(lp2873
F1508241590.206
aS'2017-10-17 20:59:50'
p2874
aF0.6
aa(lp2875
F1510244071.505
ag2867
aF6.212340971289375e-06
aasbsI222
(imyfunction
mondai
p2876
(dp2877
g3
S'2017-11-10 00:48:31'
p2878
sg5
F0.4243774484406769
sg6
S'222.jpg'
p2879
sg8
(lp2880
sg13
(lp2881
S'math'
p2882
asg16
F0.5
sg17
F1510242511.948
sg18
I6
sg19
(lp2883
(lp2884
F1508350007.402
aS'2017-10-19 03:06:47'
p2885
aF0.5
aa(lp2886
F1510242511.948
ag2878
aF3.2195361770077225e-06
aasbsI223
(imyfunction
mondai
p2887
(dp2888
g3
S'2017-11-10 01:26:03'
p2889
sg5
F0.7711130127663528
sg6
S'223.jpg'
p2890
sg8
(lp2891
sg13
(lp2892
S'math'
p2893
asg16
F1.5699918555322998
sg17
F1510244763.667
sg18
I7
sg19
(lp2894
(lp2895
F1508350969.765
aS'2017-10-19 03:22:49'
p2896
aF0.57
aa(lp2897
F1510244763.667
ag2889
aF1.0
aasbsI224
(imyfunction
mondai
p2898
(dp2899
g3
S'2017-11-08 21:47:43'
p2900
sg5
F0.5458158371700111
sg6
S'224.jpg'
p2901
sg8
(lp2902
sg13
(lp2903
S'math'
p2904
asg16
F1.3299994627190304
sg17
F1510145263.685
sg18
I6
sg19
(lp2905
(lp2906
F1508352871.541
aS'2017-10-19 03:54:31'
p2907
aF0.33
aa(lp2908
F1510145263.685
ag2900
aF1.0
aasbsI225
(imyfunction
mondai
p2909
(dp2910
g3
S'2017-11-09 05:48:12'
p2911
sg5
F0.5438148329140754
sg6
S'225.jpg'
p2912
sg8
(lp2913
sg13
(lp2914
S'math'
p2915
asg16
F1.1999978373831555
sg17
F1510174092.115
sg18
I5
sg19
(lp2916
(lp2917
F1508425133.985
aS'2017-10-19 23:58:53'
p2918
aF0.4
aa(lp2919
F1510174092.115
ag2911
aF0.8
aasbsI226
(imyfunction
mondai
p2920
(dp2921
g3
S'2017-11-10 15:53:31'
p2922
sg5
F0.872858622586028
sg6
S'226.jpg'
p2923
sg8
(lp2924
sg13
(lp2925
S'math'
p2926
asg16
F1.674746289188596
sg17
F1510296811.812
sg18
I6
sg19
(lp2927
(lp2928
F1508426175.882
aS'2017-10-20 00:16:15'
p2929
aF0.875
aa(lp2930
F1510296811.812
ag2922
aF0.8
aasbsI227
(imyfunction
mondai
p2931
(dp2932
g3
S'2017-11-10 01:12:30'
p2933
sg5
F0.7538902105863504
sg6
S'227.jpg'
p2934
sg8
(lp2935
sg13
(lp2936
S'math'
p2937
asg16
F1.4999943213686349
sg17
F1510243950.332
sg18
I4
sg19
(lp2938
(lp2939
F1508436367.652
aS'2017-10-20 03:06:07'
p2940
aF0.5
aa(lp2941
F1510243950.332
ag2933
aF1.0
aasbsI228
(imyfunction
mondai
p2942
(dp2943
g3
S'2017-11-09 02:18:06'
p2944
sg5
F0.5701142326485208
sg6
S'228.jpg'
p2945
sg8
(lp2946
sg13
(lp2947
S'math'
p2948
asg16
F1.3299990661564391
sg17
F1510161486.509
sg18
I6
sg19
(lp2949
(lp2950
F1508437725.656
aS'2017-10-20 03:28:45'
p2951
aF0.33
aa(lp2952
F1510161486.509
ag2944
aF1.0
aasbsI229
(imyfunction
mondai
p2953
(dp2954
g3
S'2017-11-08 04:50:03'
p2955
sg5
F0.43167064811430833
sg6
S'229.jpg'
p2956
sg8
(lp2957
sg13
(lp2958
S'math'
p2959
asg16
F1.2499994518444923
sg17
F1510084203.559
sg18
I4
sg19
(lp2960
(lp2961
F1508444897.203
aS'2017-10-20 05:28:17'
p2962
aF0.25
aa(lp2963
F1510084203.559
ag2955
aF1.0
aasbsI230
(imyfunction
mondai
p2964
(dp2965
g3
S'2017-11-10 12:04:02'
p2966
sg5
F0.6559026173024446
sg6
S'230.jpg'
p2967
sg8
(lp2968
sg13
(lp2969
S'math'
p2970
asg16
F0.7998542697264029
sg17
F1510283042.793
sg18
I1
sg19
(lp2971
(lp2972
F1508444998.374
aS'2017-10-20 05:29:58'
p2973
aF0.8
aa(lp2974
F1510283042.793
ag2966
aF0.0
aasbsI231
(imyfunction
mondai
p2975
(dp2976
g3
S'2017-11-10 01:14:24'
p2977
sg5
F0.7540812789332932
sg6
S'231.jpg'
p2978
sg8
(lp2979
sg13
(lp2980
S'math'
p2981
asg16
F1.4999939663894453
sg17
F1510244064.149
sg18
I2
sg19
(lp2982
(lp2983
F1508445555.5
aS'2017-10-20 05:39:15'
p2984
aF0.5
aa(lp2985
F1510244064.149
ag2977
aF1.0
aasbsI232
(imyfunction
mondai
p2986
(dp2987
g3
S'2017-11-08 02:26:11'
p2988
sg5
F0.13908380422219144
sg6
S'232.jpg'
p2989
sg8
(lp2990
sg13
(lp2991
S'math'
p2992
asg16
F0.49999999356933633
sg17
F1510075571.304
sg18
I2
sg19
(lp2993
(lp2994
F1508445878.253
aS'2017-10-20 05:44:38'
p2995
aF0.0
aa(lp2996
F1510075571.304
ag2988
aF0.5
aasbsI233
(imyfunction
mondai
p2997
(dp2998
g3
S'2017-11-08 02:26:39'
p2999
sg5
F0.32019674499808176
sg6
S'233.jpg'
p3000
sg8
(lp3001
sg13
(lp3002
S'math'
p3003
asg16
F0.9999999915987503
sg17
F1510075599.01
sg18
I1
sg19
(lp3004
(lp3005
F1508469000.914
aS'2017-10-20 12:10:00'
p3006
aF0.0
aa(lp3007
F1510075599.01
ag2999
aF1.0
aasbsI234
(imyfunction
mondai
p3008
(dp3009
g3
S'2017-11-08 02:37:03'
p3010
sg5
F0.32096969438249096
sg6
S'234.jpg'
p3011
sg8
(lp3012
sg13
(lp3013
S'math'
p3014
asg16
F0.9999999894002752
sg17
F1510076223.961
sg18
I1
sg19
(lp3015
(lp3016
F1508489709.335
aS'2017-10-20 17:55:09'
p3017
aF0.0
aa(lp3018
F1510076223.961
ag3010
aF1.0
aasbsI235
(imyfunction
mondai
p3019
(dp3020
g3
S'2017-11-09 02:29:37'
p3021
sg5
F0.5711722460333143
sg6
S'235.jpg'
p3022
sg8
(lp3023
sg13
(lp3024
S'math'
p3025
asg16
F1.3299982524312903
sg17
F1510162177.271
sg18
I3
sg19
(lp3026
(lp3027
F1508516220.781
aS'2017-10-21 01:17:00'
p3028
aF0.33
aa(lp3029
F1510162177.271
ag3021
aF1.0
aasbsI236
(imyfunction
mondai
p3030
(dp3031
g3
S'2017-11-09 02:58:36'
p3032
sg5
F0.44623695891921383
sg6
S'236.jpg'
p3033
sg8
(lp3034
sg13
(lp3035
S'math'
p3036
asg16
F0.9899981694876552
sg17
F1510163916.825
sg18
I1
sg19
(lp3037
(lp3038
F1508523717.444
aS'2017-10-21 03:21:57'
p3039
aF0.33
aa(lp3040
F1510163916.825
ag3032
aF0.66
aasbsI237
(imyfunction
mondai
p3041
(dp3042
g3
S'2017-11-08 02:46:57'
p3043
sg5
F0.3217058058166695
sg6
S'237.jpg'
p3044
sg8
(lp3045
(lp3046
S'2017-10-21 20:08:26'
p3047
aS'answer is 4'
p3048
aasg13
(lp3049
S'math'
p3050
asg16
F0.9999999686090592
sg17
F1510076817.736
sg18
I1
sg19
(lp3051
(lp3052
F1508584106.839
ag3047
aF0.0
aa(lp3053
F1510076817.736
ag3043
aF1.0
aasbsI238
(imyfunction
mondai
p3054
(dp3055
g3
S'2017-11-08 02:55:29'
p3056
sg5
F0.3223410752662441
sg6
S'238.jpg'
p3057
sg8
(lp3058
sg13
(lp3059
S'math'
p3060
asg16
F0.9999999472148691
sg17
F1510077329.078
sg18
I1
sg19
(lp3061
(lp3062
F1508629521.142
aS'2017-10-22 08:45:21'
p3063
aF0.0
aa(lp3064
F1510077329.078
ag3056
aF1.0
aasbsI239
(imyfunction
mondai
p3065
(dp3066
g3
S'2017-11-10 11:57:03'
p3067
sg5
F0.7116637772530249
sg6
S'239.jpeg'
p3068
sg8
(lp3069
sg13
(lp3070
S'math'
p3071
asg16
F0.9999018152375447
sg17
F1510282623.766
sg18
I5
sg19
(lp3072
(lp3073
F1508741189.11
aS'2017-10-23 15:46:29'
p3074
aF0.6
aa(lp3075
F1510282623.766
ag3067
aF0.4
aasbsI240
(imyfunction
mondai
p3076
(dp3077
g3
S'2017-11-08 03:02:04'
p3078
sg5
F0.3228328980150268
sg6
S'240.jpg'
p3079
sg8
(lp3080
sg13
(lp3081
S'math'
p3082
asg16
F0.9999998065123884
sg17
F1510077724.305
sg18
I1
sg19
(lp3083
(lp3084
F1508742148.582
aS'2017-10-23 16:02:28'
p3085
aF0.0
aa(lp3086
F1510077724.305
ag3078
aF1.0
aasbsI241
(imyfunction
mondai
p3087
(dp3088
g3
S'2017-11-08 03:05:30'
p3089
sg5
F0.03372635817104371
sg6
S'241.jpg'
p3090
sg8
(lp3091
(lp3092
S'2017-10-23 16:07:55'
p3093
aS'answer is 0'
p3094
aasg13
(lp3095
S'math'
p3096
asg16
F-1.9375858747914604e-07
sg17
F1510077930.429
sg18
I1
sg19
(lp3097
(lp3098
F1508742475.623
ag3093
aF0.0
aa(lp3099
F1510077930.429
ag3089
aF0.0
aasbsI242
(imyfunction
mondai
p3100
(dp3101
g3
S'2017-11-10 00:47:11'
p3102
sg5
F0.6864296048192652
sg6
S'242.jpg'
p3103
sg8
(lp3104
sg13
(lp3105
S'math'
p3106
asg16
F1.249998118931253
sg17
F1510242431.976
sg18
I4
sg19
(lp3107
(lp3108
F1508743332.698
aS'2017-10-23 16:22:12'
p3109
aF0.25
aa(lp3110
F1510242431.976
ag3102
aF1.0
aasbsI243
(imyfunction
mondai
p3111
(dp3112
g3
S'2017-11-08 05:32:57'
p3113
sg5
F0.037362606150537846
sg6
S'243.jpg'
p3114
sg8
(lp3115
sg13
(lp3116
S'math'
p3117
asg16
F-6.738491214698136e-07
sg17
F1510086777.133
sg18
I1
sg19
(lp3118
(lp3119
F1508859010.703
aS'2017-10-25 00:30:10'
p3120
aF0.0
aa(lp3121
F1510086777.133
ag3113
aF0.0
aasbsI244
(imyfunction
mondai
p3122
(dp3123
g3
S'2017-11-08 05:40:14'
p3124
sg5
F0.037552095698489295
sg6
S'244.jpg'
p3125
sg8
(lp3126
(lp3127
S'2017-10-25 00:46:52'
p3128
aS'answer is 7'
p3129
aasg13
(lp3130
S'math'
p3131
asg16
F-6.782695870993274e-07
sg17
F1510087214.216
sg18
I1
sg19
(lp3132
(lp3133
F1508860012.721
ag3128
aF0.0
aa(lp3134
F1510087214.216
ag3124
aF0.0
aasbsI245
(imyfunction
mondai
p3135
(dp3136
g3
S'2017-11-09 02:09:48'
p3137
sg5
F0.3648467277236855
sg6
S'245.jpg'
p3138
sg8
(lp3139
sg13
(lp3140
S'math'
p3141
asg16
F0.7999995385077565
sg17
F1510160988.157
sg18
I4
sg19
(lp3142
(lp3143
F1508900515.786
aS'2017-10-25 12:01:55'
p3144
aF0.0
aa(lp3145
F1510160988.157
ag3137
aF0.8
aasbsI246
(imyfunction
mondai
p3146
(dp3147
g3
S'2017-11-10 02:40:01'
p3148
sg5
F0.6862335375152686
sg6
S'246.jpg'
p3149
sg8
(lp3150
sg13
(lp3151
S'math'
p3152
asg16
F1.1999881071068146
sg17
F1510249201.224
sg18
I5
sg19
(lp3153
(lp3154
F1509028710.277
aS'2017-10-26 23:38:30'
p3155
aF0.2
aa(lp3156
F1510249201.224
ag3148
aF1.0
aasbsI247
(imyfunction
mondai
p3157
(dp3158
g3
S'2017-11-10 00:47:51'
p3159
sg5
F0.6095566596683974
sg6
S'247.jpg'
p3160
sg8
(lp3161
(lp3162
S'2017-10-27 22:14:21'
p3163
aS'answer is 1'
p3164
aasg13
(lp3165
S'math'
p3166
asg16
F0.9999979682138087
sg17
F1510242471.287
sg18
I1
sg19
(lp3167
(lp3168
F1509110061.457
ag3163
aF0.0
aa(lp3169
F1510242471.287
ag3159
aF1.0
aasbsI248
(imyfunction
mondai
p3170
(dp3171
g3
S'2017-11-10 04:24:35'
p3172
sg5
F0.6409049448568008
sg6
S'248.jpg'
p3173
sg8
(lp3174
(lp3175
S'2017-10-31 04:53:35'
p3176
aS'answer is 85'
p3177
aasg13
(lp3178
S'math'
p3179
asg16
F0.9999536766883157
sg17
F1510255475.554
sg18
I1
sg19
(lp3180
(lp3181
F1509393215.198
ag3176
aF0.0
aa(lp3182
F1510255475.554
ag3172
aF1.0
aasbsI249
(imyfunction
mondai
p3183
(dp3184
g3
S'2017-11-10 04:59:15'
p3185
sg5
F0.2696730314679796
sg6
S'249.jpg'
p3186
sg8
(lp3187
sg13
(lp3188
S'math'
p3189
asg16
F-4.60969568217463e-05
sg17
F1510257555.701
sg18
I3
sg19
(lp3190
(lp3191
F1509394872.124
aS'2017-10-31 05:21:12'
p3192
aF0.0
aa(lp3193
F1510257555.701
ag3185
aF0.0
aasbsI250
(imyfunction
mondai
p3194
(dp3195
g3
S'2017-11-10 11:44:21'
p3196
sg5
F0.3572742058824752
sg6
S'250.jpg'
p3197
sg8
(lp3198
(lp3199
S'2017-11-01 00:55:27'
p3200
aS'answer is 1340'
p3201
aasg13
(lp3202
S'math'
p3203
asg16
F-7.864065906373914e-05
sg17
F1510281861.394
sg18
I1
sg19
(lp3204
(lp3205
F1509465327.679
ag3200
aF0.0
aa(lp3206
F1510281861.394
ag3196
aF0.0
aasbsI251
(imyfunction
mondai
p3207
(dp3208
g3
S'2017-11-10 16:45:16'
p3209
sg5
F0.8177551168015095
sg6
S'251.jpg'
p3210
sg8
(lp3211
sg13
(lp3212
S'math'
p3213
asg16
F1.27913730404806
sg17
F1510299916.545
sg18
I7
sg19
(lp3214
(lp3215
F1509470768.074
aS'2017-11-01 02:26:08'
p3216
aF0.28
aa(lp3217
F1510299916.545
ag3209
aF1.0
aasbsI252
(imyfunction
mondai
p3218
(dp3219
g3
S'2017-11-10 16:12:45'
p3220
sg5
F0.8076507729524597
sg6
S'252.jpg'
p3221
sg8
(lp3222
sg13
(lp3223
S'math'
p3224
asg16
F1.2492723989411336
sg17
F1510297965.984
sg18
I4
sg19
(lp3225
(lp3226
F1509476333.79
aS'2017-11-01 03:58:53'
p3227
aF0.25
aa(lp3228
F1510297965.984
ag3220
aF1.0
aasbsI253
(imyfunction
mondai
p3229
(dp3230
g3
S'2017-11-10 12:10:32'
p3231
sg5
F0.3637694054339105
sg6
S'253.jpg'
p3232
sg8
(lp3233
(lp3234
S'2017-11-02 00:22:21'
p3235
aS'answer is 5'
p3236
aasg13
(lp3237
S'physical'
p3238
asg16
F-0.00020514374020957896
sg17
F1510283432.846
sg18
I1
sg19
(lp3239
(lp3240
F1509549741.356
ag3235
aF0.0
aa(lp3241
F1510283432.846
ag3231
aF0.0
aasbsI254
(imyfunction
mondai
p3242
(dp3243
g3
S'2017-11-10 12:12:31'
p3244
sg5
F0.714179042980667
sg6
S'254.jpg'
p3245
sg8
(lp3246
(lp3247
S'2017-11-02 00:25:22'
p3248
aS'answer is 6'
p3249
aasg13
(lp3250
S'physical'
p3251
asg16
F0.9997947063361344
sg17
F1510283551.232
sg18
I1
sg19
(lp3252
(lp3253
F1509549922.862
ag3248
aF0.0
aa(lp3254
F1510283551.232
ag3244
aF1.0
aasbsI255
(imyfunction
mondai
p3255
(dp3256
g3
S'2017-11-10 15:30:19'
p3257
sg5
F0.7476527197747276
sg6
S'255.jpg'
p3258
sg8
(lp3259
(lp3260
S'2017-11-02 00:29:37'
p3261
aS'answer is 2'
p3262
aasg13
(lp3263
S'physical'
p3264
asg16
F0.9998205260396484
sg17
F1510295419.047
sg18
I1
sg19
(lp3265
(lp3266
F1509550177.538
ag3261
aF0.0
aa(lp3267
F1510295419.047
ag3257
aF1.0
aasbsI256
(imyfunction
mondai
p3268
(dp3269
g3
S'2017-11-10 15:31:13'
p3270
sg5
F0.7478087891560709
sg6
S'256.jpg'
p3271
sg8
(lp3272
(lp3273
S'2017-11-02 00:37:20'
p3274
aS'answer is 3'
p3275
aasg13
(lp3276
S'physical'
p3277
asg16
F0.9998196752046284
sg17
F1510295473.208
sg18
I1
sg19
(lp3278
(lp3279
F1509550640.329
ag3274
aF0.0
aa(lp3280
F1510295473.208
ag3270
aF1.0
aasbsI257
(imyfunction
mondai
p3281
(dp3282
g3
S'2017-11-10 15:32:10'
p3283
sg5
F0.7479753897439847
sg6
S'257.jpg'
p3284
sg8
(lp3285
(lp3286
S'2017-11-02 00:43:18'
p3287
aS'answer is 6'
p3288
aasg13
(lp3289
S'physical'
p3290
asg16
F0.9998190462921472
sg17
F1510295530.988
sg18
I1
sg19
(lp3291
(lp3292
F1509550998.919
ag3287
aF0.0
aa(lp3293
F1510295530.988
ag3283
aF1.0
aasbsI258
(imyfunction
mondai
p3294
(dp3295
g3
S'2017-11-10 15:37:17'
p3296
sg5
F0.7488618552683238
sg6
S'258.jpg'
p3297
sg8
(lp3298
(lp3299
S'2017-11-02 00:48:55'
p3300
aS'answer is 3'
p3301
aasg13
(lp3302
S'physical'
p3303
asg16
F0.9998189834458988
sg17
F1510295837.942
sg18
I1
sg19
(lp3304
(lp3305
F1509551335.875
ag3300
aF0.0
aa(lp3306
F1510295837.942
ag3296
aF1.0
aasbsI259
(imyfunction
mondai
p3307
(dp3308
g3
S'2017-11-10 15:39:29'
p3309
sg5
F0.749237326186995
sg6
S'259.jpg'
p3310
sg8
(lp3311
(lp3312
S'2017-11-02 03:12:43'
p3313
aS'answer is 2'
p3314
aasg13
(lp3315
S'physical'
p3316
asg16
F0.9998002782189487
sg17
F1510295969.381
sg18
I1
sg19
(lp3317
(lp3318
F1509559963.615
ag3313
aF0.0
aa(lp3319
F1510295969.381
ag3309
aF1.0
aasbsI260
(imyfunction
mondai
p3320
(dp3321
g3
S'2017-11-10 15:41:41'
p3322
sg5
F0.7496186156756143
sg6
S'260.jpg'
p3323
sg8
(lp3324
(lp3325
S'2017-11-02 03:34:11'
p3326
aS'answer is 4'
p3327
aasg13
(lp3328
S'physical'
p3329
asg16
F0.9997975882908785
sg17
F1510296101.447
sg18
I1
sg19
(lp3330
(lp3331
F1509561251.582
ag3326
aF0.0
aa(lp3332
F1510296101.447
ag3322
aF1.0
aasbsI261
(imyfunction
mondai
p3333
(dp3334
g3
S'2017-11-10 15:44:28'
p3335
sg5
F0.4220467239169412
sg6
S'261.jpg'
p3336
sg8
(lp3337
(lp3338
S'2017-11-02 04:23:31'
p3339
aS'answer is 1'
p3340
aasg13
(lp3341
S'physical'
p3342
asg16
F-0.0002090603982067021
sg17
F1510296268.956
sg18
I1
sg19
(lp3343
(lp3344
F1509564211.488
ag3339
aF0.0
aa(lp3345
F1510296268.956
ag3335
aF0.0
aasbsI262
(imyfunction
mondai
p3346
(dp3347
g3
S'2017-11-10 15:45:58'
p3348
sg5
F0.7503688676297441
sg6
S'262.jpg'
p3349
sg8
(lp3350
(lp3351
S'2017-11-02 04:26:05'
p3352
aS'answer is 6'
p3353
aasg13
(lp3354
S'chemistry'
p3355
asg16
F0.9997907832683026
sg17
F1510296358.423
sg18
I1
sg19
(lp3356
(lp3357
F1509564365.54
ag3352
aF0.0
aa(lp3358
F1510296358.423
ag3348
aF1.0
aasbsI263
(imyfunction
mondai
p3359
(dp3360
g3
S'2017-11-10 16:50:44'
p3361
sg5
F0.7615301494634392
sg6
S'263.jpg'
p3362
sg8
(lp3363
(lp3364
S'2017-11-03 17:43:00'
p3365
aS'answer is 2'
p3366
aasg13
(lp3367
S'physical'
p3368
asg16
F0.999054415532912
sg17
F1510300244.494
sg18
I1
sg19
(lp3369
(lp3370
F1509698580.18
ag3365
aF0.0
aa(lp3371
F1510300244.494
ag3361
aF1.0
aasbsI264
(imyfunction
mondai
p3372
(dp3373
g3
S'2017-11-10 17:11:33'
p3374
sg5
F0.7652141171860793
sg6
S'264.jpg'
p3375
sg8
(lp3376
(lp3377
S'2017-11-03 17:59:10'
p3378
aS'answer is 3'
p3379
aasg13
(lp3380
S'physical'
p3381
asg16
F0.9990574681706845
sg17
F1510301493.842
sg18
I1
sg19
(lp3382
(lp3383
F1509699550.151
ag3378
aF0.0
aa(lp3384
F1510301493.842
ag3374
aF1.0
aasbsI265
(imyfunction
mondai
p3385
(dp3386
g3
S'2017-11-10 17:42:31'
p3387
sg5
F0.4578277106274079
sg6
S'265.jpg'
p3388
sg8
(lp3389
(lp3390
S'2017-11-03 18:06:16'
p3391
aS'answer is 1'
p3392
aasg13
(lp3393
S'physical'
p3394
asg16
F-0.0009270465887503642
sg17
F1510303351.517
sg18
I1
sg19
(lp3395
(lp3396
F1509699976.535
ag3391
aF0.0
aa(lp3397
F1510303351.517
ag3387
aF0.0
aasbsI266
(imyfunction
mondai
p3398
(dp3399
g3
S'2017-11-10 17:42:59'
p3400
sg5
F0.7708085201961167
sg6
S'266.jpg'
p3401
sg8
(lp3402
(lp3403
S'2017-11-03 18:28:39'
p3404
aS'answer is 3'
p3405
aasg13
(lp3406
S'physical'
p3407
asg16
F0.9990587439788927
sg17
F1510303379.885
sg18
I1
sg19
(lp3408
(lp3409
F1509701319.164
ag3404
aF0.0
aa(lp3410
F1510303379.885
ag3400
aF1.0
aasbsI267
(imyfunction
mondai
p3411
(dp3412
g3
S'2017-11-10 17:44:25'
p3413
sg5
F0.7710516146900019
sg6
S'267.jpg'
p3414
sg8
(lp3415
(lp3416
S'2017-11-03 19:59:11'
p3417
aS'answer is 2'
p3418
aasg13
(lp3419
S'physical'
p3420
asg16
F0.9989986576518923
sg17
F1510303465.977
sg18
I1
sg19
(lp3421
(lp3422
F1509706751.822
ag3417
aF0.0
aa(lp3423
F1510303465.977
ag3413
aF1.0
aasbsI268
(imyfunction
mondai
p3424
(dp3425
g3
S'2017-11-10 17:46:14'
p3426
sg5
F0.7713674890713829
sg6
S'268.jpg'
p3427
sg8
(lp3428
(lp3429
S'2017-11-03 20:48:23'
p3430
aS'answer is 1'
p3431
aasg13
(lp3432
S'physical'
p3433
asg16
F0.9989651548929811
sg17
F1510303574.498
sg18
I1
sg19
(lp3434
(lp3435
F1509709703.794
ag3430
aF0.0
aa(lp3436
F1510303574.498
ag3426
aF1.0
aasbsI269
(imyfunction
mondai
p3437
(dp3438
g3
S'2017-11-10 17:46:43'
p3439
sg5
F0.7714599501920124
sg6
S'269.jpg'
p3440
sg8
(lp3441
(lp3442
S'2017-11-03 21:00:05'
p3443
aS'answer is 6'
p3444
aasg13
(lp3445
S'chemistry'
p3446
asg16
F0.9989570689214796
sg17
F1510303603.315
sg18
I1
sg19
(lp3447
(lp3448
F1509710405.091
ag3443
aF0.0
aa(lp3449
F1510303603.315
ag3439
aF1.0
aasbsI270
(imyfunction
mondai
p3450
(dp3451
g3
S'2017-11-10 17:49:38'
p3452
sg5
F0.7718928196945105
sg6
S'270.jpg'
p3453
sg8
(lp3454
(lp3455
S'2017-11-04 04:12:37'
p3456
aS'answer is 5'
p3457
aasg13
(lp3458
S'physical'
p3459
asg16
F0.9985945027771272
sg17
F1510303778.053
sg18
I1
sg19
(lp3460
(lp3461
F1509736357.791
ag3456
aF0.0
aa(lp3462
F1510303778.053
ag3452
aF1.0
aasbsI271
(imyfunction
mondai
p3463
(dp3464
g3
S'2017-11-10 17:51:26'
p3465
sg5
F0.7722156731092574
sg6
S'271.jpg'
p3466
sg8
(lp3467
(lp3468
S'2017-11-04 04:14:00'
p3469
aS'answer is 2'
p3470
aasg13
(lp3471
S'physical'
p3472
asg16
F0.9985949191427967
sg17
F1510303886.246
sg18
I1
sg19
(lp3473
(lp3474
F1509736440.385
ag3469
aF0.0
aa(lp3475
F1510303886.246
ag3465
aF1.0
aasbsI272
(imyfunction
mondai
p3476
(dp3477
g3
S'2017-11-10 20:53:17'
p3478
sg5
F0.8054953507576361
sg6
S'272.jpg'
p3479
sg8
(lp3480
(lp3481
S'2017-11-04 04:44:56'
p3482
aS'answer is 6'
p3483
aasg13
(lp3484
S'physical'
p3485
asg16
F0.9987347205893878
sg17
F1510314797.347
sg18
I1
sg19
(lp3486
(lp3487
F1509738296.604
ag3482
aF0.0
aa(lp3488
F1510314797.347
ag3478
aF1.0
aasbsI273
(imyfunction
mondai
p3489
(dp3490
g3
S'2017-11-10 20:54:41'
p3491
sg5
F0.8057556345279936
sg6
S'273.jpg'
p3492
sg8
(lp3493
(lp3494
S'2017-11-04 04:47:26'
p3495
aS'answer is 4'
p3496
aasg13
(lp3497
S'physical'
p3498
asg16
F0.9987337557830038
sg17
F1510314881.033
sg18
I1
sg19
(lp3499
(lp3500
F1509738446.147
ag3495
aF0.0
aa(lp3501
F1510314881.033
ag3491
aF1.0
aasbsI274
(imyfunction
mondai
p3502
(dp3503
g3
S'2017-11-10 20:55:11'
p3504
sg5
F0.8058583615357282
sg6
S'274.jpg'
p3505
sg8
(lp3506
(lp3507
S'2017-11-04 04:55:51'
p3508
aS'answer is 6'
p3509
aasg13
(lp3510
S'chemistry'
p3511
asg16
F0.9987267787956684
sg17
F1510314911.647
sg18
I1
sg19
(lp3512
(lp3513
F1509738951.517
ag3508
aF0.0
aa(lp3514
F1510314911.647
ag3504
aF1.0
aasbsI275
(imyfunction
mondai
p3515
(dp3516
g3
S'2017-11-10 20:56:12'
p3517
sg5
F0.8060472862967791
sg6
S'275.jpg'
p3518
sg8
(lp3519
(lp3520
S'2017-11-04 05:02:08'
p3521
aS'answer is 1'
p3522
aasg13
(lp3523
S'chemistry'
p3524
asg16
F0.998722107280202
sg17
F1510314972.608
sg18
I1
sg19
(lp3525
(lp3526
F1509739328.904
ag3521
aF0.0
aa(lp3527
F1510314972.608
ag3517
aF1.0
aasbsI276
(imyfunction
mondai
p3528
(dp3529
g3
S'2017-11-08 02:12:02'
p3530
sg5
F0.1099112848490198
sg6
S'276.jpg'
p3531
sg8
(lp3532
sg13
(lp3533
S'math'
p3534
asg16
F0.4
sg17
F1510074722.657
sg18
I5
sg19
(lp3535
(lp3536
F1510074722.657
ag3530
aF0.4
aasbsI277
(imyfunction
mondai
p3537
(dp3538
g3
S'2017-11-08 19:02:05'
p3539
sg5
F0.0655346952109267
sg6
S'277.jpg'
p3540
sg8
(lp3541
(lp3542
g3539
aS'answer is 6'
p3543
aasg13
(lp3544
S'chemistry'
p3545
asg16
F0.0
sg17
F1510135325.889
sg18
I1
sg19
(lp3546
(lp3547
F1510135325.889
ag3539
aF0.0
aasbsI278
(imyfunction
mondai
p3548
(dp3549
g3
S'2017-11-09 22:23:29'
p3550
sg5
F0.20488287005829264
sg6
S'278.jpg'
p3551
sg8
(lp3552
sg13
(lp3553
S'chemistry'
p3554
asg16
F0.0
sg17
F1510233809.685
sg18
I1
sg19
(lp3555
(lp3556
F1510233809.685
ag3550
aF0.0
aasbsI279
(imyfunction
mondai
p3557
(dp3558
g3
S'2017-11-09 22:26:02'
p3559
sg5
F0.205246662928201
sg6
S'279.jpg'
p3560
sg8
(lp3561
sg13
(lp3562
S'chemistry'
p3563
asg16
F0.0
sg17
F1510233962.962
sg18
I1
sg19
(lp3564
(lp3565
F1510233962.962
ag3559
aF0.0
aasbsI280
(imyfunction
mondai
p3566
(dp3567
g3
S'2017-11-09 22:29:36'
p3568
sg5
F0.20575448931931678
sg6
S'280.jpg'
p3569
sg8
(lp3570
sg13
(lp3571
S'chemistry'
p3572
asg16
F0.0
sg17
F1510234176.471
sg18
I1
sg19
(lp3573
(lp3574
F1510234176.471
ag3568
aF0.0
aasbsI281
(imyfunction
mondai
p3575
(dp3576
g3
S'2017-11-09 22:32:03'
p3577
sg5
F0.20610430464812396
sg6
S'281.jpg'
p3578
sg8
(lp3579
sg13
(lp3580
S'chemistry'
p3581
asg16
F0.0
sg17
F1510234323.24
sg18
I1
sg19
(lp3582
(lp3583
F1510234323.24
ag3577
aF0.0
aasbsI282
(imyfunction
mondai
p3584
(dp3585
g3
S'2017-11-09 22:34:44'
p3586
sg5
F0.4022135277056908
sg6
S'282.jpg'
p3587
sg8
(lp3588
sg13
(lp3589
S'chemistry'
p3590
asg16
F0.5
sg17
F1510234484.742
sg18
I1
sg19
(lp3591
(lp3592
F1510234484.742
ag3586
aF0.5
aasbsI283
(imyfunction
mondai
p3593
(dp3594
g3
S'2017-11-09 22:46:35'
p3595
sg5
F0.20819555172435172
sg6
S'283.jpg'
p3596
sg8
(lp3597
sg13
(lp3598
S'chemistry'
p3599
asg16
F0.0
sg17
F1510235195.484
sg18
I1
sg19
(lp3600
(lp3601
F1510235195.484
ag3595
aF0.0
aasbsI284
(imyfunction
mondai
p3602
(dp3603
g3
S'2017-11-09 22:48:38'
p3604
sg5
F0.20849177343983338
sg6
S'284.jpg'
p3605
sg8
(lp3606
sg13
(lp3607
S'chemistry'
p3608
asg16
F0.0
sg17
F1510235318.327
sg18
I1
sg19
(lp3609
(lp3610
F1510235318.327
ag3604
aF0.0
aasbsI285
(imyfunction
mondai
p3611
(dp3612
g3
S'2017-11-09 23:34:04'
p3613
sg5
F0.2151752652278464
sg6
S'285.jpg'
p3614
sg8
(lp3615
sg13
(lp3616
S'chemistry'
p3617
asg16
F0.0
sg17
F1510238044.532
sg18
I1
sg19
(lp3618
(lp3619
F1510238044.532
ag3613
aF0.0
aasbsI286
(imyfunction
mondai
p3620
(dp3621
g3
S'2017-11-09 23:48:11'
p3622
sg5
F0.21729469141725044
sg6
S'286.jpg'
p3623
sg8
(lp3624
sg13
(lp3625
S'chemistry'
p3626
asg16
F0.0
sg17
F1510238891.388
sg18
I1
sg19
(lp3627
(lp3628
F1510238891.388
ag3622
aF0.0
aasbsI287
(imyfunction
mondai
p3629
(dp3630
g3
S'2017-11-10 00:05:38'
p3631
sg5
F0.41714265150437374
sg6
S'287.jpg'
p3632
sg8
(lp3633
sg13
(lp3634
S'chemistry'
p3635
asg16
F0.5
sg17
F1510239938.728
sg18
I1
sg19
(lp3636
(lp3637
F1510239938.728
ag3631
aF0.5
aasbsI288
(imyfunction
mondai
p3638
(dp3639
g3
S'2017-11-10 00:12:53'
p3640
sg5
F0.22105305837185454
sg6
S'288.jpg'
p3641
sg8
(lp3642
sg13
(lp3643
S'chemistry'
p3644
asg16
F0.0
sg17
F1510240373.001
sg18
I1
sg19
(lp3645
(lp3646
F1510240373.001
ag3640
aF0.0
aasbs.