(dp0
I1
(imyfunction
mondai
p1
(dp2
S'wordtime'
p3
S'2017-07-04 14:18:19'
p4
sS'remember'
p5
F8.791797671561809e-13
sS'imgnum'
p6
S'1.png'
p7
sS'memo'
p8
(lp9
(lp10
F1498515733.947
aS'2017-06-27 07:22:13'
p11
aS'answer 3'
p12
aasS'tag'
p13
(lp14
S'chemistry'
p15
asS'understand'
p16
F0.999316953411003
sS'lasttime'
p17
F1499145499.01
sS'qusnum'
p18
I1
sS'history'
p19
(lp20
(lp21
F1498515733.947
ag11
aI0
aa(lp22
F1499145499.01
ag4
aI1
aasbsI2
(imyfunction
mondai
p23
(dp24
g3
S'2017-07-04 14:33:48'
p25
sg5
F6.7005809073364635e-37
sg6
S'2.jpg'
p26
sg8
(lp27
S'answer is 3'
p28
asg13
(lp29
g15
asg16
F-0.0009548136980126638
sg17
F1499146428.99
sg19
(lp30
(lp31
F1498545603.881
aS'2017-06-27 15:40:03'
p32
aI0
aa(lp33
F1499146428.99
ag25
aI0
aasbsI3
(imyfunction
mondai
p34
(dp35
g3
S'2017-07-12 03:37:55'
p36
sg5
F1.1139224570770776e-11
sg6
S'3.jpg'
p37
sg8
(lp38
S'answer is 5'
p39
asg13
(lp40
g15
asg16
F0.9999994937212187
sg17
F1499798275.889
sg19
(lp41
(lp42
F1498545806.078
aS'2017-06-27 15:43:26'
p43
aI0
aa(lp44
F1499798275.889
ag36
aI1
aasbsI4
(imyfunction
mondai
p45
(dp46
g3
S'2017-07-12 03:40:20'
p47
sg5
F1.1145441619289784e-11
sg6
S'4.jpg'
p48
sg8
(lp49
S'answer is 2'
p50
asg13
(lp51
g15
asg16
F0.9999994935594296
sg17
F1499798420.515
sg19
(lp52
(lp53
F1498545978.31
aS'2017-06-27 15:46:18'
p54
aI0
aa(lp55
F1499798420.515
ag47
aI1
aasbsI5
(imyfunction
mondai
p56
(dp57
g3
S'2017-07-12 03:41:46'
p58
sg5
F1.1149108234544543e-11
sg6
S'5.jpg'
p59
sg8
(lp60
S'answer is 3'
p61
asg13
(lp62
g15
asg16
F0.9999994359484087
sg17
F1499798506.186
sg19
(lp63
(lp64
F1498555372.608
aS'2017-06-27 18:22:52'
p65
aI0
aa(lp66
F1499798506.186
ag58
aI1
aasbsI6
(imyfunction
mondai
p67
(dp68
g3
S'2017-07-12 03:44:19'
p69
sg5
F1.115571588552533e-11
sg6
S'6.jpg'
p70
sg8
(lp71
S'answer is 5'
p72
asg13
(lp73
g15
asg16
F0.9999994346046224
sg17
F1499798659.768
sg19
(lp74
(lp75
F1498555731.783
aS'2017-06-27 18:28:51'
p76
aI0
aa(lp77
F1499798659.768
ag69
aI1
aasbsI7
(imyfunction
mondai
p78
(dp79
g3
S'2017-07-12 03:45:07'
p80
sg5
F1.1157627258006895e-11
sg6
S'7.jpg'
p81
sg8
(lp82
S'answer is 1'
p83
asg13
(lp84
g15
asg16
F0.999998982652945
sg17
F1499798707.42
sg19
(lp85
(lp86
F1498606533.242
aS'2017-06-28 08:35:33'
p87
aI0
aa(lp88
F1499798707.42
ag80
aI1
aasbsI8
(imyfunction
mondai
p89
(dp90
g3
S'2017-07-12 03:45:38'
p91
sg5
F1.1158909320766178e-11
sg6
S'8.jpg'
p92
sg8
(lp93
S'answer is 4'
p94
asg13
(lp95
g15
asg16
F0.9999988380453558
sg17
F1499798738.24
sg19
(lp96
(lp97
F1498618047.081
aS'2017-06-28 11:47:27'
p98
aI0
aa(lp99
F1499798738.24
ag91
aI1
aasbsI9
(imyfunction
mondai
p100
(dp101
g3
S'2017-06-28 15:24:07'
p102
sg5
F1.8769217779965802e-39
sg6
S'9.jpg'
p103
sg8
(lp104
S'answer is 2'
p105
asg13
(lp106
g15
asg16
F0.0
sg17
F1498631047.991
sg19
(lp107
(lp108
F1498631047.991
ag102
aI0
aasbsI10
(imyfunction
mondai
p109
(dp110
g3
S'2017-06-28 15:25:58'
p111
sg5
F1.8793221001126447e-39
sg6
S'10.jpg'
p112
sg8
(lp113
S'answer is 4'
p114
asg13
(lp115
g15
asg16
F0.0
sg17
F1498631158.414
sg19
(lp116
(lp117
F1498631158.414
ag111
aI0
aasbsI11
(imyfunction
mondai
p118
(dp119
g3
S'2017-07-04 13:54:14'
p120
sg5
F7.113778884074604e-37
sg6
S'11.jpg'
p121
sg8
(lp122
(lp123
F1499144054.099
ag120
aS'answer 2,3,2'
p124
aasg13
(lp125
g15
asg16
F0.0
sg17
F1499144054.099
sg19
(lp126
(lp127
F1499144054.099
ag120
aI0
aasbsI12
(imyfunction
mondai
p128
(dp129
g3
S'2017-07-04 14:00:01'
p130
sg5
F7.142454995853812e-37
sg6
S'12.jpg'
p131
sg8
(lp132
(lp133
F1499144401.683
ag130
aS'answer 3'
p134
aasg13
(lp135
g15
asg16
F0.0
sg17
F1499144401.683
sg19
(lp136
(lp137
F1499144401.683
ag130
aI0
aasbsI13
(imyfunction
mondai
p138
(dp139
g3
S'2017-07-04 14:17:31'
p140
sg5
F1.562873922295927e-36
sg6
S'13.jpg'
p141
sg8
(lp142
(lp143
F1499144716.146
aS'2017-07-04 14:05:16'
p144
aS'answer 3'
p145
aasg13
(lp146
g15
asg16
F0.008471551343691375
sg17
F1499145451.206
sg19
(lp147
F1499144716.146
ag144
aI0
asbsI14
(imyfunction
mondai
p148
(dp149
g3
S'2017-07-04 16:24:59'
p150
sg5
F7.89887989461994e-37
sg6
S'14.jpg'
p151
sg8
(lp152
sg13
(lp153
S'math'
p154
asg16
F0.0
sg17
F1499153099.088
sg19
(lp155
(lp156
F1499153099.088
ag150
aI0
aasbsI15
(imyfunction
mondai
p157
(dp158
g3
S'2017-07-04 20:02:05'
p159
sg5
F9.184212801690142e-37
sg6
S'15.png'
p160
sg8
(lp161
sg13
(lp162
g154
asg16
F0.0
sg17
F1499166125.188
sg19
(lp163
(lp164
F1499166125.188
ag159
aI0
aasbsI16
(imyfunction
mondai
p165
(dp166
g3
S'2017-07-04 21:08:46'
p167
sg5
F9.619537028063053e-37
sg6
S'16.png'
p168
sg8
(lp169
S'\xbb\xad\xcd\xbc\xba\xf3\xd5\xd2\xbd\xbb\xb5\xe3'
p170
asg13
(lp171
S'math'
p172
asg16
F0.0
sg17
F1499170126.383
sg19
(lp173
(lp174
F1499170126.383
ag167
aI0
aasbsI17
(imyfunction
mondai
p175
(dp176
g3
S'2017-07-04 23:19:34'
p177
sg5
F1.0534254163084299e-36
sg6
S'17.jpg'
p178
sg8
(lp179
S'answer is 4'
p180
asg13
(lp181
S'chemistry'
p182
asg16
F0.0
sg17
F1499177974.623
sg19
(lp183
(lp184
F1499177974.623
ag177
aI0
aasbsI18
(imyfunction
mondai
p185
(dp186
g3
S'2017-07-04 23:22:46'
p187
sg5
F1.0557730582132418e-36
sg6
S'18.jpg'
p188
sg8
(lp189
S'answer is 1'
p190
asg13
(lp191
g182
asg16
F0.0
sg17
F1499178166.958
sg19
(lp192
(lp193
F1499178166.958
ag187
aI0
aasbsI19
(imyfunction
mondai
p194
(dp195
g3
S'2017-07-05 16:03:21'
p196
sg5
F2.1151358012851025e-36
sg6
S'19.jpg'
p197
sg8
(lp198
sg13
(lp199
g172
asg16
F0.0
sg17
F1499238201.632
sg19
(lp200
(lp201
F1499238201.632
ag196
aI0
aasbsI20
(imyfunction
mondai
p202
(dp203
g3
S'2017-07-08 19:24:45'
p204
sg5
F2.864863230057214e-28
sg6
S'20.jpg'
p205
sg8
(lp206
sg13
(lp207
g172
asg16
F0.2
sg17
F1499509485.541
sg19
(lp208
(lp209
F1499509485.541
ag204
aF0.2
aasbsI21
(imyfunction
mondai
p210
(dp211
g3
S'2017-07-08 21:19:28'
p212
sg5
F1.623629238079684e-20
sg6
S'21.jpg'
p213
sg8
(lp214
sg13
(lp215
g182
asg16
F0.5
sg17
F1499516368.113
sg19
(lp216
(lp217
F1499516368.113
ag212
aF0.5
aasbsI22
(imyfunction
mondai
p218
(dp219
g3
S'2017-07-09 01:21:40'
p220
sg5
F6.260465330945962e-35
sg6
S'22.jpg'
p221
sg8
(lp222
sg13
(lp223
g182
asg16
F0.0
sg17
F1499530900.691
sg19
(lp224
(lp225
F1499530900.691
ag220
aI0
aasbsI23
(imyfunction
mondai
p226
(dp227
g3
S'2017-07-09 01:22:30'
p228
sg5
F6.264049168493834e-35
sg6
S'23.jpg'
p229
sg8
(lp230
sg13
(lp231
g182
asg16
F0.0
sg17
F1499530950.137
sg19
(lp232
(lp233
F1499530950.137
ag228
aI0
aasbsI24
(imyfunction
mondai
p234
(dp235
g3
S'2017-07-09 05:52:16'
p236
sg5
F7.554681817338677e-35
sg6
S'24.jpg'
p237
sg8
(lp238
sg13
(lp239
S'chemistry'
p240
asg16
F0.0
sg17
F1499547136.371
sg19
(lp241
(lp242
F1499547136.371
ag236
aI0
aasbsI25
(imyfunction
mondai
p243
(dp244
g3
S'2017-07-09 05:56:17'
p245
sg5
F7.575816605644145e-35
sg6
S'25.jpg'
p246
sg8
(lp247
sg13
(lp248
g240
asg16
F0.0
sg17
F1499547377.744
sg19
(lp249
(lp250
F1499547377.744
ag245
aI0
aasbsI26
(imyfunction
mondai
p251
(dp252
g3
S'2017-07-09 05:57:03'
p253
sg5
F7.579822851492398e-35
sg6
S'26.jpg'
p254
sg8
(lp255
sg13
(lp256
g240
asg16
F0.0
sg17
F1499547423.422
sg19
(lp257
(lp258
F1499547423.422
ag253
aI0
aasbsI27
(imyfunction
mondai
p259
(dp260
g3
S'2017-07-09 05:57:43'
p261
sg5
F7.583311776388363e-35
sg6
S'27.jpg'
p262
sg8
(lp263
sg13
(lp264
g240
asg16
F0.0
sg17
F1499547463.182
sg19
(lp265
(lp266
F1499547463.182
ag261
aI0
aasbsI28
(imyfunction
mondai
p267
(dp268
g3
S'2017-07-10 01:03:16'
p269
sg5
F1.6801652747918695e-34
sg6
S'28.jpg'
p270
sg8
(lp271
sg13
(lp272
g240
asg16
F0.0
sg17
F1499616196.736
sg19
(lp273
(lp274
F1499616196.736
ag269
aI0
aasbsI29
(imyfunction
mondai
p275
(dp276
g3
S'2017-07-10 01:12:12'
p277
sg5
F1.5294513010209538e-15
sg6
S'29.jpg'
p278
sg8
(lp279
sg13
(lp280
S'math'
p281
asg16
F0.75
sg17
F1499616732.384
sg19
(lp282
(lp283
F1499616732.384
ag277
aF0.75
aasbsI30
(imyfunction
mondai
p284
(dp285
g3
S'2017-07-10 18:58:24'
p286
sg5
F3.54491413149235e-34
sg6
S'30.png'
p287
sg8
(lp288
sg13
(lp289
g240
asg16
F0.0
sg17
F1499680704.857
sg19
(lp290
(lp291
F1499680704.857
ag286
aI0
aasbsI31
(imyfunction
mondai
p292
(dp293
g3
S'2017-07-12 03:21:37'
p294
sg5
F9.002113201741479e-21
sg6
S'31.jpg'
p295
sg8
(lp296
sg13
(lp297
g281
asg16
F0.45
sg17
F1499797297.774
sg19
(lp298
(lp299
F1499797297.774
ag294
aF0.45
aasbsI32
(imyfunction
mondai
p300
(dp301
g3
S'2017-07-12 03:24:30'
p302
sg5
F7.81732947633748e-32
sg6
S'32.jpg'
p303
sg8
(lp304
sg13
(lp305
g281
asg16
F0.05
sg17
F1499797470.167
sg19
(lp306
(lp307
F1499797470.167
ag302
aF0.05
aasbsI33
(imyfunction
mondai
p308
(dp309
g3
S'2017-07-15 05:36:44'
p310
sg5
F3.0150857326903897e-32
sg6
S'33.jpg'
p311
sg8
(lp312
sg13
(lp313
S'physics'
p314
asg16
F0.0
sg17
F1500064604.639
sg19
(lp315
(lp316
F1500064604.639
ag310
aI0
aasbsI34
(imyfunction
mondai
p317
(dp318
g3
S'2017-08-17 23:29:33'
p319
sg5
F1.3632407105693004e-17
sg6
S'34.jpg'
p320
sg8
(lp321
sg13
(lp322
S'physical'
p323
asg16
F0.0
sg17
F1502980173.751
sg19
(lp324
(lp325
F1502980173.751
ag319
aF0.0
aasbsI35
(imyfunction
mondai
p326
(dp327
g3
S'2017-08-18 01:12:53'
p328
sg5
F1.90868485786291e-10
sg6
S'35.jpeg'
p329
sg8
(lp330
sg13
(lp331
S'physical'
p332
asg16
F0.5
sg17
F1502986373.885
sg19
(lp333
(lp334
F1502986373.885
ag328
aF0.5
aasbsI36
(imyfunction
mondai
p335
(dp336
g3
S'2017-08-19 01:39:30'
p337
sg5
F6.441655509089643e-08
sg6
S'36.jpeg'
p338
sg8
(lp339
sg13
(lp340
S'physical'
p341
asg16
F0.75
sg17
F1503074370.742
sg19
(lp342
(lp343
F1503074370.742
ag337
aF0.75
aasbsI37
(imyfunction
mondai
p344
(dp345
g3
S'2017-08-19 02:05:31'
p346
sg5
F3.3481417367114197e-09
sg6
S'37.jpeg'
p347
sg8
(lp348
sg13
(lp349
S'physical'
p350
asg16
F0.6
sg17
F1503075931.234
sg19
(lp351
(lp352
F1503075931.234
ag346
aF0.6
aasbsI38
(imyfunction
mondai
p353
(dp354
g3
S'2017-08-19 03:13:53'
p355
sg5
F1.6038738318490087e-07
sg6
S'38.jpeg'
p356
sg8
(lp357
sg13
(lp358
S'physical'
p359
asg16
F0.8
sg17
F1503080033.486
sg19
(lp360
(lp361
F1503080033.486
ag355
aF0.8
aasbsI39
(imyfunction
mondai
p362
(dp363
g3
S'2017-08-19 03:42:09'
p364
sg5
F6.68689523880805e-08
sg6
S'39.jpeg'
p365
sg8
(lp366
sg13
(lp367
S'physical'
p368
asg16
F0.75
sg17
F1503081729.58
sg19
(lp369
(lp370
F1503081729.58
ag364
aF0.75
aasbsI40
(imyfunction
mondai
p371
(dp372
g3
S'2017-08-19 03:59:08'
p373
sg5
F8.264034565731392e-07
sg6
S'40.jpeg'
p374
sg8
(lp375
sg13
(lp376
S'physical'
p377
asg16
F0.9
sg17
F1503082748.531
sg19
(lp378
(lp379
F1503082748.531
ag373
aF0.9
aasbsI41
(imyfunction
mondai
p380
(dp381
g3
S'2017-08-20 18:55:50'
p382
sg5
F8.073775644778386e-09
sg6
S'41.jpg'
p383
sg8
(lp384
sg13
(lp385
S'physical'
p386
asg16
F0.6
sg17
F1503222950.967
sg19
(lp387
(lp388
F1503222950.967
ag382
aF0.6
aasbsI42
(imyfunction
mondai
p389
(dp390
g3
S'2017-08-20 20:00:00'
p391
sg5
F2.8613114785914083e-13
sg6
S'42.jpg'
p392
sg8
(lp393
sg13
(lp394
S'physical'
p395
asg16
F0.2
sg17
F1503226800.354
sg19
(lp396
(lp397
F1503226800.354
ag391
aF0.2
aasbsI43
(imyfunction
mondai
p398
(dp399
g3
S'2017-08-20 21:36:09'
p400
sg5
F2.530787989234405e-16
sg6
S'43.png'
p401
sg8
(lp402
sg13
(lp403
S'chemistry'
p404
asg16
F0.0
sg17
F1503232569.843
sg19
(lp405
(lp406
F1503232569.843
ag400
aF0.0
aasbsI44
(imyfunction
mondai
p407
(dp408
g3
S'2017-08-20 21:55:40'
p409
sg5
F9.968130502685909e-10
sg6
S'44.png'
p410
sg8
(lp411
sg13
(lp412
S'chemistry'
p413
asg16
F0.5
sg17
F1503233740.794
sg19
(lp414
(lp415
F1503233740.794
ag409
aF0.5
aasbsI45
(imyfunction
mondai
p416
(dp417
g3
S'2017-08-21 00:51:01'
p418
sg5
F2.897492379339529e-16
sg6
S'45.png'
p419
sg8
(lp420
sg13
(lp421
S'chemistry'
p422
asg16
F0.0
sg17
F1503244261.055
sg19
(lp423
(lp424
F1503244261.055
ag418
aF0.0
aasbsI46
(imyfunction
mondai
p425
(dp426
g3
S'2017-08-21 01:10:28'
p427
sg5
F1.5353192680781487e-07
sg6
S'46.png'
p428
sg8
(lp429
S'answer is 7'
p430
asg13
(lp431
S'chemistry'
p432
asg16
F0.75
sg17
F1503245428.763
sg19
(lp433
(lp434
F1503245428.763
ag427
aF0.75
aasbsI47
(imyfunction
mondai
p435
(dp436
g3
S'2017-08-21 01:32:05'
p437
sg5
F2.981334931587002e-16
sg6
S'47.png'
p438
sg8
(lp439
sg13
(lp440
S'chemistry'
p441
asg16
F0.0
sg17
F1503246725.658
sg19
(lp442
(lp443
F1503246725.658
ag437
aF0.0
aasbsI48
(imyfunction
mondai
p444
(dp445
g3
S'2017-08-21 01:41:54'
p446
sg5
F3.001716699815148e-16
sg6
S'48.png'
p447
sg8
(lp448
sg13
(lp449
S'chemistry'
p450
asg16
F0.0
sg17
F1503247314.318
sg19
(lp451
(lp452
F1503247314.318
ag446
aF0.0
aasbsI49
(imyfunction
mondai
p453
(dp454
g3
S'2017-08-21 03:52:18'
p455
sg5
F3.2862347619143706e-16
sg6
S'49.png'
p456
sg8
(lp457
sg13
(lp458
S'chemistry'
p459
asg16
F0.0
sg17
F1503255138.538
sg19
(lp460
(lp461
F1503255138.538
ag455
aF0.0
aasbsI50
(imyfunction
mondai
p462
(dp463
g3
S'2017-08-21 07:37:02'
p464
sg5
F3.841290309214038e-16
sg6
S'50.png'
p465
sg8
(lp466
sg13
(lp467
S'chemistry'
p468
asg16
F0.0
sg17
F1503268622.629
sg19
(lp469
(lp470
F1503268622.629
ag464
aF0.0
aasbsI51
(imyfunction
mondai
p471
(dp472
g3
S'2017-08-21 07:51:15'
p473
sg5
F1.2656649888399413e-09
sg6
S'51.jpg'
p474
sg8
(lp475
sg13
(lp476
S'chemistry'
p477
asg16
F0.5
sg17
F1503269475.48
sg19
(lp478
(lp479
F1503269475.48
ag473
aF0.5
aasbsI52
(imyfunction
mondai
p480
(dp481
g3
S'2017-08-21 07:57:49'
p482
sg5
F7.217383270747946e-08
sg6
S'52.jpg'
p483
sg8
(lp484
sg13
(lp485
S'chemistry'
p486
asg16
F0.7
sg17
F1503269869.663
sg19
(lp487
(lp488
F1503269869.663
ag482
aF0.7
aasbsI53
(imyfunction
mondai
p489
(dp490
g3
S'2017-08-22 02:20:47'
p491
sg5
F6.36793640095003e-10
sg6
S'53.png'
p492
sg8
(lp493
sg13
(lp494
S'math'
p495
asg16
F0.45
sg17
F1503336047.871
sg19
(lp496
(lp497
F1503336047.871
ag491
aF0.45
aasbsI54
(imyfunction
mondai
p498
(dp499
g3
S'2017-08-22 07:00:54'
p500
sg5
F3.6955361421399976e-14
sg6
S'54.png'
p501
sg8
(lp502
sg13
(lp503
S'math'
p504
asg16
F0.1
sg17
F1503352854.527
sg19
(lp505
(lp506
F1503352854.527
ag500
aF0.1
aasbsI55
(imyfunction
mondai
p507
(dp508
g3
S'2017-08-22 10:58:23'
p509
sg5
F1.20086774433025e-15
sg6
S'55.jpg'
p510
sg8
(lp511
sg13
(lp512
S'physical'
p513
asg16
F0.0
sg17
F1503367103.179
sg19
(lp514
(lp515
F1503367103.179
ag509
aF0.0
aasbsI56
(imyfunction
mondai
p516
(dp517
g3
S'2017-08-22 11:34:13'
p518
sg5
F2.4676282492406586e-10
sg6
S'56.png'
p519
sg8
(lp520
sg13
(lp521
S'chemistry'
p522
asg16
F0.4
sg17
F1503369253.09
sg19
(lp523
(lp524
F1503369253.09
ag518
aF0.4
aasbsI57
(imyfunction
mondai
p525
(dp526
g3
S'2017-08-22 11:59:34'
p527
sg5
F2.4905543788354574e-09
sg6
S'57.png'
p528
sg8
(lp529
sg13
(lp530
S'chemistry'
p531
asg16
F0.5
sg17
F1503370774.163
sg19
(lp532
(lp533
F1503370774.163
ag527
aF0.5
aasbsI58
(imyfunction
mondai
p534
(dp535
g3
S'2017-08-22 22:31:10'
p536
sg5
F3.2082957471336493e-09
sg6
S'58.png'
p537
sg8
(lp538
sg13
(lp539
S'chemistry'
p540
asg16
F0.5
sg17
F1503408670.508
sg19
(lp541
(lp542
F1503408670.508
ag536
aF0.5
aasbsI59
(imyfunction
mondai
p543
(dp544
g3
S'2017-08-23 06:11:09'
p545
sg5
F2.895590502825975e-08
sg6
S'59.png'
p546
sg8
(lp547
sg13
(lp548
S'chemistry'
p549
asg16
F0.6
sg17
F1503436269.897
sg19
(lp550
(lp551
F1503436269.897
ag545
aF0.6
aasbsI60
(imyfunction
mondai
p552
(dp553
g3
S'2017-08-24 07:46:08'
p554
sg5
F7.76430366800237e-15
sg6
S'60.png'
p555
sg8
(lp556
sg13
(lp557
S'chemistry'
p558
asg16
F0.0
sg17
F1503528368.119
sg19
(lp559
(lp560
F1503528368.119
ag554
aF0.0
aasbsI61
(imyfunction
mondai
p561
(dp562
g3
S'2017-08-26 23:58:55'
p563
sg5
F1.1274017158827397e-13
sg6
S'61.png'
p564
sg8
(lp565
sg13
(lp566
S'chemistry'
p567
asg16
F0.0
sg17
F1503759535.555
sg19
(lp568
(lp569
F1503759535.555
ag563
aF0.0
aasbsI62
(imyfunction
mondai
p570
(dp571
g3
S'2017-08-27 00:05:08'
p572
sg5
F1.1322817091128476e-13
sg6
S'62.png'
p573
sg8
(lp574
S'\xa5\xa6 u'
p575
asg13
(lp576
S'chemistry'
p577
asg16
F0.0
sg17
F1503759908.733
sg19
(lp578
(lp579
F1503759908.733
ag572
aF0.0
aasbsI63
(imyfunction
mondai
p580
(dp581
g3
S'2017-08-27 00:13:58'
p582
sg5
F1.1392498337339642e-13
sg6
S'63.png'
p583
sg8
(lp584
sg13
(lp585
S'chemistry'
p586
asg16
F0.0
sg17
F1503760438.814
sg19
(lp587
(lp588
F1503760438.814
ag582
aF0.0
aasbsI64
(imyfunction
mondai
p589
(dp590
g3
S'2017-08-27 00:27:17'
p591
sg5
F1.1498271753057892e-13
sg6
S'64.png'
p592
sg8
(lp593
sg13
(lp594
S'chemistry'
p595
asg16
F0.0
sg17
F1503761237.292
sg19
(lp596
(lp597
F1503761237.292
ag591
aF0.0
aasbsI65
(imyfunction
mondai
p598
(dp599
g3
S'2017-08-27 01:00:38'
p600
sg5
F1.1767742213965088e-13
sg6
S'65.png'
p601
sg8
(lp602
sg13
(lp603
S'chemistry'
p604
asg16
F0.0
sg17
F1503763238.777
sg19
(lp605
(lp606
F1503763238.777
ag600
aF0.0
aasbsI66
(imyfunction
mondai
p607
(dp608
g3
S'2017-08-27 01:18:25'
p609
sg5
F4.299463055484622e-06
sg6
S'66.png'
p610
sg8
(lp611
sg13
(lp612
S'chemistry'
p613
asg16
F0.8
sg17
F1503764305.612
sg19
(lp614
(lp615
F1503764305.612
ag609
aF0.8
aasbsI67
(imyfunction
mondai
p616
(dp617
g3
S'2017-08-27 04:40:16'
p618
sg5
F2.2190607087179428e-07
sg6
S'67.png'
p619
sg8
(lp620
sg13
(lp621
S'chemistry'
p622
asg16
F0.6
sg17
F1503776416.902
sg19
(lp623
(lp624
F1503776416.902
ag618
aF0.6
aasbsI68
(imyfunction
mondai
p625
(dp626
g3
S'2017-08-27 05:25:58'
p627
sg5
F1.4148634683299413e-13
sg6
S'68.png'
p628
sg8
(lp629
sg13
(lp630
S'chemistry'
p631
asg16
F0.0
sg17
F1503779158.5
sg19
(lp632
(lp633
F1503779158.5
ag627
aF0.0
aasbsI69
(imyfunction
mondai
p634
(dp635
g3
S'2017-08-27 06:56:25'
p636
sg5
F1.506580575050748e-13
sg6
S'69.png'
p637
sg8
(lp638
sg13
(lp639
S'chemistry'
p640
asg16
F0.0
sg17
F1503784585.243
sg19
(lp641
(lp642
F1503784585.243
ag636
aF0.0
aasbsI70
(imyfunction
mondai
p643
(dp644
g3
S'2017-08-28 06:45:11'
p645
sg5
F4.0634814160313624e-13
sg6
S'70.png'
p646
sg8
(lp647
sg13
(lp648
S'chemistry'
p649
asg16
F0.0
sg17
F1503870311.11
sg18
I2
sg19
(lp650
(lp651
F1503870311.11
ag645
aF0.0
aasbsI71
(imyfunction
mondai
p652
(dp653
g3
S'2017-08-28 09:17:16'
p654
sg5
F4.516127861672404e-13
sg6
S'71.jpg'
p655
sg8
(lp656
sg13
(lp657
S'chemistry'
p658
asg16
F0.0
sg17
F1503879436.234
sg18
I1
sg19
(lp659
(lp660
F1503879436.234
ag654
aF0.0
aasbsI72
(imyfunction
mondai
p661
(dp662
g3
S'2017-08-29 23:14:02'
p663
sg5
F2.194946411059344e-12
sg6
S'72.png'
p664
sg8
(lp665
sg13
(lp666
S'chemistry'
p667
asg16
F0.0
sg17
F1504016042.217
sg18
I2
sg19
(lp668
(lp669
F1504016042.217
ag663
aF0.0
aasbsI73
(imyfunction
mondai
p670
(dp671
g3
S'2017-08-29 23:22:17'
p672
sg5
F2.207564691792941e-12
sg6
S'73.png'
p673
sg8
(lp674
sg13
(lp675
S'chemistry'
p676
asg16
F0.0
sg17
F1504016537.49
sg18
I1
sg19
(lp677
(lp678
F1504016537.49
ag672
aF0.0
aasbsI74
(imyfunction
mondai
p679
(dp680
g3
S'2017-08-29 23:46:42'
p681
sg5
F2.245317424515262e-12
sg6
S'74.jpg'
p682
sg8
(lp683
sg13
(lp684
S'chemistry'
p685
asg16
F0.0
sg17
F1504018002.57
sg18
I1
sg19
(lp686
(lp687
F1504018002.57
ag681
aF0.0
aasbsI75
(imyfunction
mondai
p688
(dp689
g3
S'2017-08-30 00:25:46'
p690
sg5
F2.307061734813628e-12
sg6
S'75.jpg'
p691
sg8
(lp692
sg13
(lp693
S'chemistry'
p694
asg16
F0.0
sg17
F1504020346.415
sg18
I2
sg19
(lp695
(lp696
F1504020346.415
ag690
aF0.0
aasbsI76
(imyfunction
mondai
p697
(dp698
g3
S'2017-09-01 14:08:18'
p699
sg5
F3.0180078820087874e-11
sg6
S'76.png'
p700
sg8
(lp701
sg13
(lp702
S'chemistry'
p703
asg16
F0.0
sg17
F1504242498.728
sg18
I1
sg19
(lp704
(lp705
F1504242498.728
ag699
aF0.0
aasbsI77
(imyfunction
mondai
p706
(dp707
g3
S'2017-09-01 14:13:56'
p708
sg5
F3.029846717266319e-11
sg6
S'77.jpg'
p709
sg8
(lp710
sg13
(lp711
S'chemistry'
p712
asg16
F0.0
sg17
F1504242836.989
sg18
I1
sg19
(lp713
(lp714
F1504242836.989
ag708
aF0.0
aasbsI78
(imyfunction
mondai
p715
(dp716
g3
S'2017-09-01 14:25:11'
p717
sg5
F3.053576948310213e-11
sg6
S'78.png'
p718
sg8
(lp719
sg13
(lp720
S'chemistry'
p721
asg16
F0.0
sg17
F1504243511.051
sg18
I2
sg19
(lp722
(lp723
F1504243511.051
ag717
aF0.0
aasbsI79
(imyfunction
mondai
p724
(dp725
g3
S'2017-09-01 14:49:00'
p726
sg5
F3.104525782405913e-11
sg6
S'79.jpg'
p727
sg8
(lp728
sg13
(lp729
S'chemistry'
p730
asg16
F0.0
sg17
F1504244940.738
sg18
I1
sg19
(lp731
(lp732
F1504244940.738
ag726
aF0.0
aasbsI80
(imyfunction
mondai
p733
(dp734
g3
S'2017-09-01 15:17:38'
p735
sg5
F3.1668506144030785e-11
sg6
S'80.jpg'
p736
sg8
(lp737
sg13
(lp738
S'chemistry'
p739
asg16
F0.0
sg17
F1504246658.078
sg18
I1
sg19
(lp740
(lp741
F1504246658.078
ag735
aF0.0
aasbsI81
(imyfunction
mondai
p742
(dp743
g3
S'2017-09-01 23:25:09'
p744
sg5
F4.442856560886787e-11
sg6
S'81.png'
p745
sg8
(lp746
sg13
(lp747
S'chemistry'
p748
asg16
F0.0
sg17
F1504275909.657
sg18
I1
sg19
(lp749
(lp750
F1504275909.657
ag744
aF0.0
aasbsI82
(imyfunction
mondai
p751
(dp752
g3
S'2017-09-01 23:57:57'
p753
sg5
F4.5452064084197523e-11
sg6
S'82.png'
p754
sg8
(lp755
sg13
(lp756
S'chemistry'
p757
asg16
F0.0
sg17
F1504277877.469
sg18
I1
sg19
(lp758
(lp759
F1504277877.469
ag753
aF0.0
aasbsI83
(imyfunction
mondai
p760
(dp761
g3
S'2017-09-02 00:09:04'
p762
sg5
F4.580458019908378e-11
sg6
S'83.png'
p763
sg8
(lp764
sg13
(lp765
S'chemistry'
p766
asg16
F0.0
sg17
F1504278544.983
sg18
I1
sg19
(lp767
(lp768
F1504278544.983
ag762
aF0.0
aasbsI84
(imyfunction
mondai
p769
(dp770
g3
S'2017-09-02 01:49:47'
p771
sg5
F1.1175279817980773e-06
sg6
S'84.png'
p772
sg8
(lp773
sg13
(lp774
S'chemistry'
p775
asg16
F0.5
sg17
F1504284587.342
sg18
I4
sg19
(lp776
(lp777
F1504284587.342
ag771
aF0.5
aasbsI85
(imyfunction
mondai
p778
(dp779
g3
S'2017-09-02 02:30:36'
p780
sg5
F1.1359712699573883e-06
sg6
S'85.jpg'
p781
sg8
(lp782
sg13
(lp783
S'chemistry'
p784
asg16
F0.5
sg17
F1504287036.941
sg18
I2
sg19
(lp785
(lp786
F1504287036.941
ag780
aF0.5
aasbsI86
(imyfunction
mondai
p787
(dp788
g3
S'2017-09-02 02:45:11'
p789
sg5
F3.960477804219793e-08
sg6
S'86.png'
p790
sg8
(lp791
sg13
(lp792
S'chemistry'
p793
asg16
F0.3
sg17
F1504287911.136
sg18
I6
sg19
(lp794
(lp795
F1504287911.136
ag789
aF0.3
aasbsI87
(imyfunction
mondai
p796
(dp797
g3
S'2017-09-02 03:03:54'
p798
sg5
F5.171746312373945e-11
sg6
S'87.png'
p799
sg8
(lp800
sg13
(lp801
S'chemistry'
p802
asg16
F0.0
sg17
F1504289034.929
sg18
I1
sg19
(lp803
(lp804
F1504289034.929
ag798
aF0.0
aasbsI88
(imyfunction
mondai
p805
(dp806
g3
S'2017-09-02 04:43:58'
p807
sg5
F5.5438681618203085e-11
sg6
S'88.png'
p808
sg8
(lp809
sg13
(lp810
S'chemistry'
p811
asg16
F0.0
sg17
F1504295038.18
sg18
I2
sg19
(lp812
(lp813
F1504295038.18
ag807
aF0.0
aasbsI89
(imyfunction
mondai
p814
(dp815
g3
S'2017-09-02 12:35:46'
p816
sg5
F7.693199909023019e-11
sg6
S'89.jpg'
p817
sg8
(lp818
sg13
(lp819
S'chemistry'
p820
asg16
F0.0
sg17
F1504323346.65
sg18
I3
sg19
(lp821
(lp822
F1504323346.65
ag816
aF0.0
aasbsI90
(imyfunction
mondai
p823
(dp824
g3
S'2017-09-02 12:41:26'
p825
sg5
F7.723511104435151e-11
sg6
S'90.png'
p826
sg8
(lp827
sg13
(lp828
S'chemistry'
p829
asg16
F0.0
sg17
F1504323686.397
sg18
I1
sg19
(lp830
(lp831
F1504323686.397
ag825
aF0.0
aasbsI91
(imyfunction
mondai
p832
(dp833
g3
S'2017-09-02 12:50:04'
p834
sg5
F7.770000375831015e-11
sg6
S'91.jpg'
p835
sg8
(lp836
sg13
(lp837
S'chemistry'
p838
asg16
F0.0
sg17
F1504324204.896
sg18
I1
sg19
(lp839
(lp840
F1504324204.896
ag834
aF0.0
aasbsI92
(imyfunction
mondai
p841
(dp842
g3
S'2017-09-02 13:10:53'
p843
sg5
F7.883070559198707e-11
sg6
S'92.png'
p844
sg8
(lp845
sg13
(lp846
S'chemistry'
p847
asg16
F0.0
sg17
F1504325453.141
sg18
I1
sg19
(lp848
(lp849
F1504325453.141
ag843
aF0.0
aasbsI93
(imyfunction
mondai
p850
(dp851
g3
S'2017-09-02 13:45:06'
p852
sg5
F8.072707501257842e-11
sg6
S'93.png'
p853
sg8
(lp854
sg13
(lp855
S'chemistry'
p856
asg16
F0.0
sg17
F1504327506.993
sg18
I1
sg19
(lp857
(lp858
F1504327506.993
ag852
aF0.0
aasbsI94
(imyfunction
mondai
p859
(dp860
g3
S'2017-09-02 14:26:45'
p861
sg5
F8.309594433364897e-11
sg6
S'94.jpg'
p862
sg8
(lp863
sg13
(lp864
S'chemistry'
p865
asg16
F0.0
sg17
F1504330005.843
sg18
I3
sg19
(lp866
(lp867
F1504330005.843
ag861
aF0.0
aasbsI95
(imyfunction
mondai
p868
(dp869
g3
S'2017-09-02 14:36:18'
p870
sg5
F8.364805020911176e-11
sg6
S'95.png'
p871
sg8
(lp872
sg13
(lp873
S'chemistry'
p874
asg16
F0.0
sg17
F1504330578.003
sg18
I1
sg19
(lp875
(lp876
F1504330578.003
ag870
aF0.0
aasbsI96
(imyfunction
mondai
p877
(dp878
g3
S'2017-09-02 14:51:21'
p879
sg5
F2.2190786847884935e-08
sg6
S'96.png'
p880
sg8
(lp881
sg13
(lp882
S'chemistry'
p883
asg16
F0.25
sg17
F1504331481.399
sg18
I4
sg19
(lp884
(lp885
F1504331481.399
ag879
aF0.25
aasbsI97
(imyfunction
mondai
p886
(dp887
g3
S'2017-09-02 15:08:34'
p888
sg5
F8.554398199411672e-11
sg6
S'97.png'
p889
sg8
(lp890
sg13
(lp891
S'chemistry'
p892
asg16
F0.0
sg17
F1504332514.446
sg18
I1
sg19
(lp893
(lp894
F1504332514.446
ag888
aF0.0
aasbsI98
(imyfunction
mondai
p895
(dp896
g3
S'2017-09-05 02:26:32'
p897
sg5
F1.4637545419167966e-07
sg6
S'98.jpeg'
p898
sg8
(lp899
sg13
(lp900
S'physical'
p901
asg16
F0.25
sg17
F1504545992.782
sg18
I4
sg19
(lp902
(lp903
F1504545992.782
ag897
aF0.25
aasbsI99
(imyfunction
mondai
p904
(dp905
g3
S'2017-09-05 03:10:13'
p906
sg5
F1.0433344015426026e-09
sg6
S'99.jpeg'
p907
sg8
(lp908
sg13
(lp909
S'physical'
p910
asg16
F0.0
sg17
F1504548613.492
sg18
I2
sg19
(lp911
(lp912
F1504548613.492
ag906
aF0.0
aasbsI100
(imyfunction
mondai
p913
(dp914
g3
S'2017-09-05 03:23:51'
p915
sg5
F6.55930210932136e-06
sg6
S'100.jpeg'
p916
sg8
(lp917
sg13
(lp918
S'physical'
p919
asg16
F0.5
sg17
F1504549431.259
sg18
I2
sg19
(lp920
(lp921
F1504549431.259
ag915
aF0.5
aasbsI101
(imyfunction
mondai
p922
(dp923
g3
S'2017-09-05 05:45:16'
p924
sg5
F1.161940739834028e-09
sg6
S'101.jpeg'
p925
sg8
(lp926
sg13
(lp927
S'physical'
p928
asg16
F0.0
sg17
F1504557916.173
sg18
I3
sg19
(lp929
(lp930
F1504557916.173
ag924
aF0.0
aasbsI102
(imyfunction
mondai
p931
(dp932
g3
S'2017-09-05 06:53:18'
p933
sg5
F1.218156132311909e-09
sg6
S'102.jpeg'
p934
sg8
(lp935
sg13
(lp936
S'physical'
p937
asg16
F0.0
sg17
F1504561998.287
sg18
I1
sg19
(lp938
(lp939
F1504561998.287
ag933
aF0.0
aasbsI103
(imyfunction
mondai
p940
(dp941
g3
S'2017-09-05 08:02:10'
p942
sg5
F1.277829879907982e-09
sg6
S'103.png'
p943
sg8
(lp944
sg13
(lp945
S'physical'
p946
asg16
F0.0
sg17
F1504566130.357
sg18
I3
sg19
(lp947
(lp948
F1504566130.357
ag942
aF0.0
aasbsI104
(imyfunction
mondai
p949
(dp950
g3
S'2017-09-05 11:45:10'
p951
sg5
F1.4918615329109593e-09
sg6
S'104.jpg'
p952
sg8
(lp953
sg13
(lp954
S'physical'
p955
asg16
F0.0
sg17
F1504579510.387
sg18
I1
sg19
(lp956
(lp957
F1504579510.387
ag951
aF0.0
aasbsI105
(imyfunction
mondai
p958
(dp959
g3
S'2017-09-23 10:18:16'
p960
sg5
F0.09221941187575886
sg6
S'105.jpg'
p961
sg8
(lp962
sg13
(lp963
S'physical'
p964
asg16
F0.0
sg17
F1506129496.71
sg18
I4
sg19
(lp965
(lp966
F1506129496.71
ag960
aF0.0
aasbsI106
(imyfunction
mondai
p967
(dp968
g3
S'2017-09-23 11:11:53'
p969
sg5
F0.09571751128731275
sg6
S'106.jpg'
p970
sg8
(lp971
sg13
(lp972
S'physical'
p973
asg16
F0.0
sg17
F1506132713.435
sg18
I2
sg19
(lp974
(lp975
F1506132713.435
ag969
aF0.0
aasbsI107
(imyfunction
mondai
p976
(dp977
g3
S'2017-09-23 11:39:38'
p978
sg5
F0.097580187937749
sg6
S'107.jpg'
p979
sg8
(lp980
sg13
(lp981
S'physical'
p982
asg16
F0.0
sg17
F1506134378.641
sg18
I2
sg19
(lp983
(lp984
F1506134378.641
ag978
aF0.0
aasbsI108
(imyfunction
mondai
p985
(dp986
g3
S'2017-09-23 11:52:35'
p987
sg5
F0.09846096610024314
sg6
S'108.jpg'
p988
sg8
(lp989
sg13
(lp990
S'physical'
p991
asg16
F0.0
sg17
F1506135155.006
sg18
I1
sg19
(lp992
(lp993
F1506135155.006
ag987
aF0.0
aasbsI109
(imyfunction
mondai
p994
(dp995
g3
S'2017-09-23 12:33:50'
p996
sg5
F0.10132279174769905
sg6
S'109.png'
p997
sg8
(lp998
sg13
(lp999
S'physical'
p1000
asg16
F0.0
sg17
F1506137630.469
sg18
I2
sg19
(lp1001
(lp1002
F1506137630.469
ag996
aF0.0
aasbsI110
(imyfunction
mondai
p1003
(dp1004
g3
S'2017-09-23 12:51:11'
p1005
sg5
F0.10255141154593117
sg6
S'110.jpg'
p1006
sg8
(lp1007
sg13
(lp1008
S'physical'
p1009
asg16
F0.0
sg17
F1506138671.837
sg18
I2
sg19
(lp1010
(lp1011
F1506138671.837
ag1005
aF0.0
aasbsI111
(imyfunction
mondai
p1012
(dp1013
g3
S'2017-09-23 15:11:03'
p1014
sg5
F0.11301214235505731
sg6
S'111.jpg'
p1015
sg8
(lp1016
sg13
(lp1017
S'physical'
p1018
asg16
F0.0
sg17
F1506147063.957
sg18
I2
sg19
(lp1019
(lp1020
F1506147063.957
ag1014
aF0.0
aasbsI112
(imyfunction
mondai
p1021
(dp1022
g3
S'2017-09-23 15:21:22'
p1023
sg5
F0.28517792699587247
sg6
S'112.png'
p1024
sg8
(lp1025
sg13
(lp1026
S'physical'
p1027
asg16
F0.5
sg17
F1506147682.265
sg18
I4
sg19
(lp1028
(lp1029
F1506147682.265
ag1023
aF0.5
aasbsI113
(imyfunction
mondai
p1030
(dp1031
g3
S'2017-09-23 15:34:50'
p1032
sg5
F0.11489303883049944
sg6
S'113.png'
p1033
sg8
(lp1034
sg13
(lp1035
S'physical'
p1036
asg16
F0.0
sg17
F1506148490.104
sg18
I1
sg19
(lp1037
(lp1038
F1506148490.104
ag1032
aF0.0
aasbsI114
(imyfunction
mondai
p1039
(dp1040
g3
S'2017-09-23 17:33:58'
p1041
sg5
F0.12480303324199137
sg6
S'114.jpg'
p1042
sg8
(lp1043
sg13
(lp1044
S'physical'
p1045
asg16
F0.0
sg17
F1506155638.422
sg18
I1
sg19
(lp1046
(lp1047
F1506155638.422
ag1041
aF0.0
aasbsI115
(imyfunction
mondai
p1048
(dp1049
g3
S'2017-09-23 18:07:32'
p1050
sg5
F0.12774636022861258
sg6
S'115.jpg'
p1051
sg8
(lp1052
sg13
(lp1053
S'physical'
p1054
asg16
F0.0
sg17
F1506157652.404
sg18
I2
sg19
(lp1055
(lp1056
F1506157652.404
ag1050
aF0.0
aasbsI116
(imyfunction
mondai
p1057
(dp1058
g3
S'2017-09-23 18:34:12'
p1059
sg5
F0.1301340933698592
sg6
S'116.jpg'
p1060
sg8
(lp1061
sg13
(lp1062
S'physical'
p1063
asg16
F0.0
sg17
F1506159252.417
sg18
I1
sg19
(lp1064
(lp1065
F1506159252.417
ag1059
aF0.0
aasbsI117
(imyfunction
mondai
p1066
(dp1067
g3
S'2017-09-23 19:23:54'
p1068
sg5
F0.13470398633243766
sg6
S'117.png'
p1069
sg8
(lp1070
sg13
(lp1071
S'physical'
p1072
asg16
F0.0
sg17
F1506162234.45
sg18
I2
sg19
(lp1073
(lp1074
F1506162234.45
ag1068
aF0.0
aasbsI118
(imyfunction
mondai
p1075
(dp1076
g3
S'2017-09-25 08:10:08'
p1077
sg5
F0.6233960255955809
sg6
S'118.jpg'
p1078
sg8
(lp1079
sg13
(lp1080
S'physical'
p1081
asg16
F0.0
sg17
F1506294608.09
sg18
I1
sg19
(lp1082
(lp1083
F1506294608.09
ag1077
aF0.0
aasbsI119
(imyfunction
mondai
p1084
(dp1085
g3
S'2017-09-25 08:31:45'
p1086
sg5
F0.6328297842127565
sg6
S'119.jpg'
p1087
sg8
(lp1088
sg13
(lp1089
S'physical'
p1090
asg16
F0.0
sg17
F1506295905.774
sg18
I1
sg19
(lp1091
(lp1092
F1506295905.774
ag1086
aF0.0
aasbsI120
(imyfunction
mondai
p1093
(dp1094
g3
S'2017-09-25 17:16:58'
p1095
sg5
F0.911353943535706
sg6
S'120.jpg'
p1096
sg8
(lp1097
sg13
(lp1098
S'physical'
p1099
asg16
F0.0
sg17
F1506327418.434
sg18
I2
sg19
(lp1100
(lp1101
F1506327418.434
ag1095
aF0.0
aasbsI121
(imyfunction
mondai
p1102
(dp1103
g3
S'2017-09-25 18:41:13'
p1104
sg5
F0.9662641077168813
sg6
S'121.jpg'
p1105
sg8
(lp1106
sg13
(lp1107
S'physical'
p1108
asg16
F0.0
sg17
F1506332473.34
sg18
I2
sg19
(lp1109
(lp1110
F1506332473.34
ag1104
aF0.0
aasbsI122
(imyfunction
mondai
p1111
(dp1112
g3
S'2017-09-25 19:07:57'
p1113
sg5
F0.9843669341065666
sg6
S'122.jpg'
p1114
sg8
(lp1115
sg13
(lp1116
S'physical'
p1117
asg16
F0.0
sg17
F1506334077.056
sg18
I3
sg19
(lp1118
(lp1119
F1506334077.056
ag1113
aF0.0
aasbsI123
(imyfunction
mondai
p1120
(dp1121
g3
S'2017-09-25 19:31:39'
p1122
sg5
F0.0
sg6
S'123.jpg'
p1123
sg8
(lp1124
sg13
(lp1125
S'physical'
p1126
asg16
F0.0
sg17
F1506335499.155
sg18
I2
sg19
(lp1127
(lp1128
F1506335499.155
ag1122
aF0.0
aasbs.