(dp0
I1
(imyfunction
mondai
p1
(dp2
S'wordtime'
p3
S'2017-07-04 14:18:19'
p4
sS'remember'
p5
F3.2895331139759885e-14
sS'imgnum'
p6
S'1.png'
p7
sS'memo'
p8
(lp9
(lp10
F1498515733.947
aS'2017-06-27 07:22:13'
p11
aS'answer 3'
p12
aasS'tag'
p13
(lp14
S'chemistry'
p15
asS'understand'
p16
F0.999316953411003
sS'lasttime'
p17
F1499145499.01
sS'qusnum'
p18
I1
sS'history'
p19
(lp20
(lp21
F1498515733.947
ag11
aI0
aa(lp22
F1499145499.01
ag4
aI1
aasbsI2
(imyfunction
mondai
p23
(dp24
g3
S'2017-10-01 21:56:41'
p25
sg5
F0.28630499222933886
sg6
S'2.jpg'
p26
sg8
(lp27
S'answer is 3'
p28
aS'0'
p29
asg13
(lp30
g15
asg16
F0.9990451863019874
sg17
F1506862601.36
sg19
(lp31
(lp32
F1498545603.881
aS'2017-06-27 15:40:03'
p33
aI0
aa(lp34
F1499146428.99
aS'2017-07-04 14:33:48'
p35
aI0
aa(lp36
F1506862601.36
ag25
aF1.0
aasbsI3
(imyfunction
mondai
p37
(dp38
g3
S'2017-07-12 03:37:55'
p39
sg5
F4.1781220976868433e-13
sg6
S'3.jpg'
p40
sg8
(lp41
S'answer is 5'
p42
asg13
(lp43
g15
asg16
F0.9999994937212187
sg17
F1499798275.889
sg19
(lp44
(lp45
F1498545806.078
aS'2017-06-27 15:43:26'
p46
aI0
aa(lp47
F1499798275.889
ag39
aI1
aasbsI4
(imyfunction
mondai
p48
(dp49
g3
S'2017-07-12 03:40:20'
p50
sg5
F4.1804539979425335e-13
sg6
S'4.jpg'
p51
sg8
(lp52
S'answer is 2'
p53
asg13
(lp54
g15
asg16
F0.9999994935594296
sg17
F1499798420.515
sg19
(lp55
(lp56
F1498545978.31
aS'2017-06-27 15:46:18'
p57
aI0
aa(lp58
F1499798420.515
ag50
aI1
aasbsI5
(imyfunction
mondai
p59
(dp60
g3
S'2017-07-12 03:41:46'
p61
sg5
F4.1818284101627477e-13
sg6
S'5.jpg'
p62
sg8
(lp63
S'answer is 3'
p64
asg13
(lp65
g15
asg16
F0.9999994359484087
sg17
F1499798506.186
sg19
(lp66
(lp67
F1498555372.608
aS'2017-06-27 18:22:52'
p68
aI0
aa(lp69
F1499798506.186
ag61
aI1
aasbsI6
(imyfunction
mondai
p70
(dp71
g3
S'2017-07-12 03:44:19'
p72
sg5
F4.1843067999941586e-13
sg6
S'6.jpg'
p73
sg8
(lp74
S'answer is 5'
p75
asg13
(lp76
g15
asg16
F0.9999994346046224
sg17
F1499798659.768
sg19
(lp77
(lp78
F1498555731.783
aS'2017-06-27 18:28:51'
p79
aI0
aa(lp80
F1499798659.768
ag72
aI1
aasbsI7
(imyfunction
mondai
p81
(dp82
g3
S'2017-07-12 03:45:07'
p83
sg5
F4.185016898860872e-13
sg6
S'7.jpg'
p84
sg8
(lp85
S'answer is 1'
p86
asg13
(lp87
g15
asg16
F0.999998982652945
sg17
F1499798707.42
sg19
(lp88
(lp89
F1498606533.242
aS'2017-06-28 08:35:33'
p90
aI0
aa(lp91
F1499798707.42
ag83
aI1
aasbsI8
(imyfunction
mondai
p92
(dp93
g3
S'2017-07-12 03:45:38'
p94
sg5
F4.1854955934469307e-13
sg6
S'8.jpg'
p95
sg8
(lp96
S'answer is 4'
p97
asg13
(lp98
g15
asg16
F0.9999988380453558
sg17
F1499798738.24
sg19
(lp99
(lp100
F1498618047.081
aS'2017-06-28 11:47:27'
p101
aI0
aa(lp102
F1499798738.24
ag94
aI1
aasbsI9
(imyfunction
mondai
p103
(dp104
g3
S'2017-10-01 21:43:25'
p105
sg5
F0.2858021888214575
sg6
S'9.jpg'
p106
sg8
(lp107
S'answer is 2'
p108
asg13
(lp109
g15
asg16
F1.0
sg17
F1506861805.88
sg19
(lp110
(lp111
F1498631047.991
aS'2017-06-28 15:24:07'
p112
aI0
aa(lp113
F1506861805.88
ag105
aF1.0
aasbsI10
(imyfunction
mondai
p114
(dp115
g3
S'2017-10-01 21:52:59'
p116
sg5
F0.28643578095122835
sg6
S'10.jpg'
p117
sg8
(lp118
S'answer is 4'
p119
aS'0'
p120
asg13
(lp121
g15
asg16
F1.0
sg17
F1506862379.862
sg19
(lp122
(lp123
F1498631158.414
aS'2017-06-28 15:25:58'
p124
aI0
aa(lp125
F1506862379.862
ag116
aF1.0
aasbsI11
(imyfunction
mondai
p126
(dp127
g3
S'2017-10-01 22:03:45'
p128
sg5
F0.1631968496236506
sg6
S'11.jpg'
p129
sg8
(lp130
(lp131
F1499144054.099
aS'2017-07-04 13:54:14'
p132
aS'answer 2,3,2'
p133
aasg13
(lp134
g15
asg16
F0.66
sg17
F1506863025.03
sg19
(lp135
(lp136
F1499144054.099
ag132
aI0
aa(lp137
F1506863025.03
ag128
aF0.66
aasbsI12
(imyfunction
mondai
p138
(dp139
g3
S'2017-10-01 22:10:11'
p140
sg5
F0.2875778428852998
sg6
S'12.jpg'
p141
sg8
(lp142
(lp143
F1499144401.683
aS'2017-07-04 14:00:01'
p144
aS'answer 3'
p145
aasg13
(lp146
g15
asg16
F1.0
sg17
F1506863411.276
sg19
(lp147
(lp148
F1499144401.683
ag144
aI0
aa(lp149
F1506863411.276
ag140
aF1.0
aasbsI13
(imyfunction
mondai
p150
(dp151
g3
S'2017-10-02 00:01:23'
p152
sg5
F0.2984322061573904
sg6
S'13.jpg'
p153
sg8
(lp154
(lp155
F1499144716.146
aS'2017-07-04 14:05:16'
p156
aS'answer 3'
p157
aasg13
(lp158
g15
asg16
F1.0084715513436913
sg17
F1506870083.757
sg18
I1
sg19
(lp159
F1499144716.146
ag156
aI0
a(lp160
F1506870083.757
ag152
aF1.0
aasbsI14
(imyfunction
mondai
p161
(dp162
g3
S'2017-10-01 22:21:15'
p163
sg5
F0.2883155837348949
sg6
S'14.jpg'
p164
sg8
(lp165
sg13
(lp166
S'math'
p167
asg16
F1.0
sg17
F1506864075.366
sg19
(lp168
(lp169
F1499153099.088
aS'2017-07-04 16:24:59'
p170
aI0
aa(lp171
F1506864075.366
ag163
aF1.0
aasbsI15
(imyfunction
mondai
p172
(dp173
g3
S'2017-10-01 22:37:19'
p174
sg5
F0.28938989626683786
sg6
S'15.png'
p175
sg8
(lp176
sg13
(lp177
g167
asg16
F1.0
sg17
F1506865039.394
sg18
I1
sg19
(lp178
(lp179
F1499166125.188
aS'2017-07-04 20:02:05'
p180
aI0
aa(lp181
F1506865039.394
ag174
aF1.0
aasbsI16
(imyfunction
mondai
p182
(dp183
g3
S'2017-10-01 23:12:20'
p184
sg5
F0.1184018730761653
sg6
S'16.png'
p185
sg8
(lp186
S'\xbb\xad\xcd\xbc\xba\xf3\xd5\xd2\xbd\xbb\xb5\xe3'
p187
asg13
(lp188
S'math'
p189
asg16
F0.5
sg17
F1506867140.211
sg18
I1
sg19
(lp190
(lp191
F1499170126.383
aS'2017-07-04 21:08:46'
p192
aI0
aa(lp193
F1506867140.211
ag184
aF0.5
aasbsI17
(imyfunction
mondai
p194
(dp195
g3
S'2017-10-01 23:20:09'
p196
sg5
F0.2922740833177861
sg6
S'17.jpg'
p197
sg8
(lp198
S'answer is 4'
p199
asg13
(lp200
S'chemistry'
p201
asg16
F1.0
sg17
F1506867609.907
sg18
I1
sg19
(lp202
(lp203
F1499177974.623
aS'2017-07-04 23:19:34'
p204
aI0
aa(lp205
F1506867609.907
ag196
aF1.0
aasbsI18
(imyfunction
mondai
p206
(dp207
g3
S'2017-10-01 23:48:15'
p208
sg5
F0.294181034285481
sg6
S'18.jpg'
p209
sg8
(lp210
S'answer is 1'
p211
asg13
(lp212
g201
asg16
F1.0
sg17
F1506869295.572
sg18
I1
sg19
(lp213
(lp214
F1499178166.958
aS'2017-07-04 23:22:46'
p215
aI0
aa(lp216
F1506869295.572
ag208
aF1.0
aasbsI19
(imyfunction
mondai
p217
(dp218
g3
S'2017-10-02 00:09:31'
p219
sg5
F0.025838052576548292
sg6
S'19.jpg'
p220
sg8
(lp221
sg13
(lp222
g189
asg16
F-4.319757436694465e-39
sg17
F1506870571.946
sg18
I1
sg19
(lp223
(lp224
F1499238201.632
aS'2017-07-05 16:03:21'
p225
aI0
aa(lp226
F1506870571.946
ag219
aF0.0
aasbsI20
(imyfunction
mondai
p227
(dp228
g3
S'2017-10-02 23:12:05'
p229
sg5
F0.48609976595615556
sg6
S'20.jpg'
p230
sg8
(lp231
sg13
(lp232
g189
asg16
F1.2
sg17
F1506953525.889
sg18
I9
sg19
(lp233
(lp234
F1499509485.541
aS'2017-07-08 19:24:45'
p235
aF0.2
aa(lp236
F1506953525.889
ag229
aF1.0
aasbsI21
(imyfunction
mondai
p237
(dp238
g3
S'2017-10-03 01:07:00'
p239
sg5
F0.41811555943027184
sg6
S'21.jpg'
p240
sg8
(lp241
sg13
(lp242
g201
asg16
F1.0
sg17
F1506960420.575
sg18
I2
sg19
(lp243
(lp244
F1499516368.113
aS'2017-07-08 21:19:28'
p245
aF0.5
aa(lp246
F1506960420.575
ag239
aF0.5
aasbsI22
(imyfunction
mondai
p247
(dp248
g3
S'2017-10-02 00:11:37'
p249
sg5
F0.02587563028161676
sg6
S'22.jpg'
p250
sg8
(lp251
sg13
(lp252
g201
asg16
F-1.2767226406916503e-37
sg17
F1506870697.511
sg18
I1
sg19
(lp253
(lp254
F1499530900.691
aS'2017-07-09 01:21:40'
p255
aI0
aa(lp256
F1506870697.511
ag249
aF0.0
aasbsI23
(imyfunction
mondai
p257
(dp258
g3
S'2017-10-02 00:16:00'
p259
sg5
F0.025954654007224902
sg6
S'23.jpg'
p260
sg8
(lp261
sg13
(lp262
g201
asg16
F-1.2735640649936628e-37
sg17
F1506870960.973
sg18
I1
sg19
(lp263
(lp264
F1499530950.137
aS'2017-07-09 01:22:30'
p265
aI0
aa(lp266
F1506870960.973
ag259
aF0.0
aasbsI24
(imyfunction
mondai
p267
(dp268
g3
S'2017-10-02 00:20:08'
p269
sg5
F0.2963602950505466
sg6
S'24.jpg'
p270
sg8
(lp271
sg13
(lp272
S'chemistry'
p273
asg16
F1.0
sg17
F1506871208.62
sg18
I1
sg19
(lp274
(lp275
F1499547136.371
aS'2017-07-09 05:52:16'
p276
aI0
aa(lp277
F1506871208.62
ag269
aF1.0
aasbsI25
(imyfunction
mondai
p278
(dp279
g3
S'2017-10-02 00:22:31'
p280
sg5
F0.02607213167461727
sg6
S'25.jpg'
p281
sg8
(lp282
sg13
(lp283
g273
asg16
F-1.5333235087123314e-37
sg17
F1506871351.16
sg18
I1
sg19
(lp284
(lp285
F1499547377.744
aS'2017-07-09 05:56:17'
p286
aI0
aa(lp287
F1506871351.16
ag280
aF0.0
aasbsI26
(imyfunction
mondai
p288
(dp289
g3
S'2017-10-02 00:25:09'
p290
sg5
F0.026119811478070652
sg6
S'26.jpg'
p291
sg8
(lp292
sg13
(lp293
g273
asg16
F-1.5313339114056128e-37
sg17
F1506871509.021
sg18
I1
sg19
(lp294
(lp295
F1499547423.422
aS'2017-07-09 05:57:03'
p296
aI0
aa(lp297
F1506871509.021
ag290
aF0.0
aasbsI27
(imyfunction
mondai
p298
(dp299
g3
S'2017-10-02 00:29:55'
p300
sg5
F0.29703150513734805
sg6
S'27.jpg'
p301
sg8
(lp302
sg13
(lp303
g273
asg16
F1.0
sg17
F1506871795.004
sg18
I1
sg19
(lp304
(lp305
F1499547463.182
aS'2017-07-09 05:57:43'
p306
aI0
aa(lp307
F1506871795.004
ag300
aF1.0
aasbsI28
(imyfunction
mondai
p308
(dp309
g3
S'2017-10-02 00:31:26'
p310
sg5
F0.29713582712016195
sg6
S'28.jpg'
p311
sg8
(lp312
sg13
(lp313
g273
asg16
F1.0
sg17
F1506871886.023
sg18
I1
sg19
(lp314
(lp315
F1499616196.736
aS'2017-07-10 01:03:16'
p316
aI0
aa(lp317
F1506871886.023
ag310
aF1.0
aasbsI29
(imyfunction
mondai
p318
(dp319
g3
S'2017-10-05 01:19:58'
p320
sg5
F0.8953223423305019
sg6
S'29.jpg'
p321
sg8
(lp322
sg13
(lp323
S'math'
p324
asg16
F1.55
sg17
F1507133998.435
sg18
I5
sg19
(lp325
(lp326
F1499616732.384
aS'2017-07-10 01:12:12'
p327
aF0.75
aa(lp328
F1507133998.435
ag320
aF0.8
aasbsI30
(imyfunction
mondai
p329
(dp330
g3
S'2017-10-02 00:32:05'
p331
sg5
F0.29718096607656247
sg6
S'30.png'
p332
sg8
(lp333
sg13
(lp334
g273
asg16
F1.0
sg17
F1506871925.396
sg18
I1
sg19
(lp335
(lp336
F1499680704.857
aS'2017-07-10 18:58:24'
p337
aI0
aa(lp338
F1506871925.396
ag331
aF1.0
aasbsI31
(imyfunction
mondai
p339
(dp340
g3
S'2017-10-03 00:04:06'
p341
sg5
F0.31136965406479394
sg6
S'31.jpg'
p342
sg8
(lp343
sg13
(lp344
g324
asg16
F0.75
sg17
F1506956646.764
sg18
I10
sg19
(lp345
(lp346
F1499797297.774
aS'2017-07-12 03:21:37'
p347
aF0.45
aa(lp348
F1506956646.764
ag341
aF0.3
aasbsI32
(imyfunction
mondai
p349
(dp350
g3
S'2017-10-02 22:55:47'
p351
sg5
F0.3249401476514189
sg6
S'32.jpg'
p352
sg8
(lp353
sg13
(lp354
g324
asg16
F0.8
sg17
F1506952547.162
sg18
I4
sg19
(lp355
(lp356
F1499797470.167
aS'2017-07-12 03:24:30'
p357
aF0.05
aa(lp358
F1506952547.162
ag351
aF0.75
aasbsI33
(imyfunction
mondai
p359
(dp360
g3
S'2017-10-02 22:33:57'
p361
sg5
F0.40356180421021665
sg6
S'33.jpg'
p362
sg8
(lp363
sg13
(lp364
S'physics'
p365
asg16
F1.0
sg17
F1506951237.584
sg18
I1
sg19
(lp366
(lp367
F1500064604.639
aS'2017-07-15 05:36:44'
p368
aI0
aa(lp369
F1506951237.584
ag361
aF1.0
aasbsI34
(imyfunction
mondai
p370
(dp371
g3
S'2017-10-03 01:17:02'
p372
sg5
F0.09656075491170114
sg6
S'34.jpg'
p373
sg8
(lp374
sg13
(lp375
S'physical'
p376
asg16
F0.1
sg17
F1506961022.079
sg18
I9
sg19
(lp377
(lp378
F1502980173.751
aS'2017-08-17 23:29:33'
p379
aF0.0
aa(lp380
F1506961022.079
ag372
aF0.1
aasbsI35
(imyfunction
mondai
p381
(dp382
g3
S'2017-08-18 01:12:53'
p383
sg5
F6.472166467825415e-13
sg6
S'35.jpeg'
p384
sg8
(lp385
sg13
(lp386
S'physical'
p387
asg16
F0.5
sg17
F1502986373.885
sg19
(lp388
(lp389
F1502986373.885
ag383
aF0.5
aasbsI36
(imyfunction
mondai
p390
(dp391
g3
S'2017-08-19 01:39:30'
p392
sg5
F8.559394491881446e-10
sg6
S'36.jpeg'
p393
sg8
(lp394
sg13
(lp395
S'physical'
p396
asg16
F0.75
sg17
F1503074370.742
sg19
(lp397
(lp398
F1503074370.742
ag392
aF0.75
aasbsI37
(imyfunction
mondai
p399
(dp400
g3
S'2017-08-19 02:05:31'
p401
sg5
F2.0514884196615174e-11
sg6
S'37.jpeg'
p402
sg8
(lp403
sg13
(lp404
S'physical'
p405
asg16
F0.6
sg17
F1503075931.234
sg19
(lp406
(lp407
F1503075931.234
ag401
aF0.6
aasbsI38
(imyfunction
mondai
p408
(dp409
g3
S'2017-08-19 03:13:53'
p410
sg5
F2.6848253561001968e-09
sg6
S'38.jpeg'
p411
sg8
(lp412
sg13
(lp413
S'physical'
p414
asg16
F0.8
sg17
F1503080033.486
sg19
(lp415
(lp416
F1503080033.486
ag410
aF0.8
aasbsI39
(imyfunction
mondai
p417
(dp418
g3
S'2017-08-19 03:42:09'
p419
sg5
F8.885258485815996e-10
sg6
S'39.jpeg'
p420
sg8
(lp421
sg13
(lp422
S'physical'
p423
asg16
F0.75
sg17
F1503081729.58
sg19
(lp424
(lp425
F1503081729.58
ag419
aF0.75
aasbsI40
(imyfunction
mondai
p426
(dp427
g3
S'2017-08-19 03:59:08'
p428
sg5
F2.1171039513181152e-08
sg6
S'40.jpeg'
p429
sg8
(lp430
sg13
(lp431
S'physical'
p432
asg16
F0.9
sg17
F1503082748.531
sg19
(lp433
(lp434
F1503082748.531
ag428
aF0.9
aasbsI41
(imyfunction
mondai
p435
(dp436
g3
S'2017-08-20 18:55:50'
p437
sg5
F4.9470000199205213e-11
sg6
S'41.jpg'
p438
sg8
(lp439
sg13
(lp440
S'physical'
p441
asg16
F0.6
sg17
F1503222950.967
sg19
(lp442
(lp443
F1503222950.967
ag437
aF0.6
aasbsI42
(imyfunction
mondai
p444
(dp445
g3
S'2017-10-05 01:55:43'
p446
sg5
F0.6266739866709201
sg6
S'42.jpg'
p447
sg8
(lp448
sg13
(lp449
S'physical'
p450
asg16
F0.19999999999999984
sg17
F1507136143.167
sg18
I4
sg19
(lp451
(lp452
F1503226800.354
aS'2017-08-20 20:00:00'
p453
aF0.2
aa(lp454
F1507136143.167
ag446
aF0.0
aasbsI43
(imyfunction
mondai
p455
(dp456
g3
S'2017-10-03 01:20:37'
p457
sg5
F0.07379001008082908
sg6
S'43.png'
p458
sg8
(lp459
sg13
(lp460
S'chemistry'
p461
asg16
F-1.8098353944148892e-19
sg17
F1506961237.95
sg18
I1
sg19
(lp462
(lp463
F1503232569.843
aS'2017-08-20 21:36:09'
p464
aF0.0
aa(lp465
F1506961237.95
ag457
aF0.0
aasbsI44
(imyfunction
mondai
p466
(dp467
g3
S'2017-08-20 21:55:40'
p468
sg5
F3.380097019191915e-12
sg6
S'44.png'
p469
sg8
(lp470
sg13
(lp471
S'chemistry'
p472
asg16
F0.5
sg17
F1503233740.794
sg19
(lp473
(lp474
F1503233740.794
ag468
aF0.5
aasbsI45
(imyfunction
mondai
p475
(dp476
g3
S'2017-10-03 01:24:41'
p477
sg5
F0.07399871618918477
sg6
S'45.png'
p478
sg8
(lp479
sg13
(lp480
S'chemistry'
p481
asg16
F-2.0662316017965216e-19
sg17
F1506961481.977
sg18
I1
sg19
(lp482
(lp483
F1503244261.055
aS'2017-08-21 00:51:01'
p484
aF0.0
aa(lp485
F1506961481.977
ag477
aF0.0
aasbsI46
(imyfunction
mondai
p486
(dp487
g3
S'2017-08-21 01:10:28'
p488
sg5
F2.0400661395077884e-09
sg6
S'46.png'
p489
sg8
(lp490
S'answer is 7'
p491
asg13
(lp492
S'chemistry'
p493
asg16
F0.75
sg17
F1503245428.763
sg19
(lp494
(lp495
F1503245428.763
ag488
aF0.75
aasbsI47
(imyfunction
mondai
p496
(dp497
g3
S'2017-10-03 01:43:06'
p498
sg5
F0.07495091285401939
sg6
S'47.png'
p499
sg8
(lp500
sg13
(lp501
S'chemistry'
p502
asg16
F-2.0990110472453477e-19
sg17
F1506962586.658
sg18
I1
sg19
(lp503
(lp504
F1503246725.658
aS'2017-08-21 01:32:05'
p505
aF0.0
aa(lp506
F1506962586.658
ag498
aF0.0
aasbsI48
(imyfunction
mondai
p507
(dp508
g3
S'2017-10-03 01:46:05'
p509
sg5
F0.07510648358823926
sg6
S'48.png'
p510
sg8
(lp511
sg13
(lp512
S'chemistry'
p513
asg16
F-2.1089833665454635e-19
sg17
F1506962765.807
sg18
I1
sg19
(lp514
(lp515
F1503247314.318
aS'2017-08-21 01:41:54'
p516
aF0.0
aa(lp517
F1506962765.807
ag509
aF0.0
aasbsI49
(imyfunction
mondai
p518
(dp519
g3
S'2017-10-03 02:01:29'
p520
sg5
F0.42342286444095745
sg6
S'49.png'
p521
sg8
(lp522
sg13
(lp523
S'chemistry'
p524
asg16
F1.0
sg17
F1506963689.996
sg18
I0
sg19
(lp525
(lp526
F1503255138.538
aS'2017-08-21 03:52:18'
p527
aF0.0
aa(lp528
F1506963689.996
ag520
aF1.0
aasbsI50
(imyfunction
mondai
p529
(dp530
g3
S'2017-10-03 02:28:01'
p531
sg5
F0.07732532467576601
sg6
S'50.png'
p532
sg8
(lp533
sg13
(lp534
S'chemistry'
p535
asg16
F-2.621417900670252e-19
sg17
F1506965281.311
sg18
I1
sg19
(lp536
(lp537
F1503268622.629
aS'2017-08-21 07:37:02'
p538
aF0.0
aa(lp539
F1506965281.311
ag531
aF0.0
aasbsI51
(imyfunction
mondai
p540
(dp541
g3
S'2017-08-21 07:51:15'
p542
sg5
F4.291748041341081e-12
sg6
S'51.jpg'
p543
sg8
(lp544
sg13
(lp545
S'chemistry'
p546
asg16
F0.5
sg17
F1503269475.48
sg19
(lp547
(lp548
F1503269475.48
ag542
aF0.5
aasbsI52
(imyfunction
mondai
p549
(dp550
g3
S'2017-08-21 07:57:49'
p551
sg5
F7.513829509950123e-10
sg6
S'52.jpg'
p552
sg8
(lp553
sg13
(lp554
S'chemistry'
p555
asg16
F0.7
sg17
F1503269869.663
sg19
(lp556
(lp557
F1503269869.663
ag551
aF0.7
aasbsI53
(imyfunction
mondai
p558
(dp559
g3
S'2017-08-22 02:20:47'
p560
sg5
F1.5662378995623615e-12
sg6
S'53.png'
p561
sg8
(lp562
sg13
(lp563
S'math'
p564
asg16
F0.45
sg17
F1503336047.871
sg19
(lp565
(lp566
F1503336047.871
ag560
aF0.45
aasbsI54
(imyfunction
mondai
p567
(dp568
g3
S'2017-10-03 22:48:41'
p569
sg5
F0.41246201115965403
sg6
S'54.png'
p570
sg8
(lp571
sg13
(lp572
S'math'
p573
asg16
F0.6
sg17
F1507038521.394
sg18
I6
sg19
(lp574
(lp575
F1503352854.527
aS'2017-08-22 07:00:54'
p576
aF0.1
aa(lp577
F1507038521.394
ag569
aF0.5
aasbsI55
(imyfunction
mondai
p578
(dp579
g3
S'2017-10-03 12:44:19'
p580
sg5
F0.3925163862434454
sg6
S'55.jpg'
p581
sg8
(lp582
sg13
(lp583
S'physical'
p584
asg16
F0.75
sg17
F1507002259.751
sg18
I4
sg19
(lp585
(lp586
F1503367103.179
aS'2017-08-22 10:58:23'
p587
aF0.0
aa(lp588
F1507002259.751
ag580
aF0.75
aasbsI56
(imyfunction
mondai
p589
(dp590
g3
S'2017-08-22 11:34:13'
p591
sg5
F4.3232223802725827e-13
sg6
S'56.png'
p592
sg8
(lp593
sg13
(lp594
S'chemistry'
p595
asg16
F0.4
sg17
F1503369253.09
sg19
(lp596
(lp597
F1503369253.09
ag591
aF0.4
aasbsI57
(imyfunction
mondai
p598
(dp599
g3
S'2017-08-22 11:59:34'
p600
sg5
F8.445229955375042e-12
sg6
S'57.png'
p601
sg8
(lp602
sg13
(lp603
S'chemistry'
p604
asg16
F0.5
sg17
F1503370774.163
sg19
(lp605
(lp606
F1503370774.163
ag600
aF0.5
aasbsI58
(imyfunction
mondai
p607
(dp608
g3
S'2017-08-22 22:31:10'
p609
sg5
F1.087902178713505e-11
sg6
S'58.png'
p610
sg8
(lp611
sg13
(lp612
S'chemistry'
p613
asg16
F0.5
sg17
F1503408670.508
sg19
(lp614
(lp615
F1503408670.508
ag609
aF0.5
aasbsI59
(imyfunction
mondai
p616
(dp617
g3
S'2017-08-23 06:11:09'
p618
sg5
F1.7741991981689447e-10
sg6
S'59.png'
p619
sg8
(lp620
sg13
(lp621
S'chemistry'
p622
asg16
F0.6
sg17
F1503436269.897
sg19
(lp623
(lp624
F1503436269.897
ag618
aF0.6
aasbsI60
(imyfunction
mondai
p625
(dp626
g3
S'2017-10-03 22:14:47'
p627
sg5
F0.1762966058076428
sg6
S'60.png'
p628
sg8
(lp629
sg13
(lp630
S'chemistry'
p631
asg16
F-2.3240177672528205e-18
sg17
F1507036487.553
sg18
I1
sg19
(lp632
(lp633
F1503528368.119
aS'2017-08-24 07:46:08'
p634
aF0.0
aa(lp635
F1507036487.553
ag627
aF0.0
aasbsI61
(imyfunction
mondai
p636
(dp637
g3
S'2017-10-03 22:53:48'
p638
sg5
F0.5658084751309491
sg6
S'61.png'
p639
sg8
(lp640
sg13
(lp641
S'chemistry'
p642
asg16
F1.0
sg17
F1507038828.001
sg18
I1
sg19
(lp643
(lp644
F1503759535.555
aS'2017-08-26 23:58:55'
p645
aF0.0
aa(lp646
F1507038828.001
ag638
aF1.0
aasbsI62
(imyfunction
mondai
p647
(dp648
g3
S'2017-10-03 22:58:11'
p649
sg5
F0.18169035044940057
sg6
S'62.png'
p650
sg8
(lp651
S'\xa5\xa6 u'
p652
asg13
(lp653
S'chemistry'
p654
asg16
F-3.2885428981875427e-17
sg17
F1507039091.306
sg18
I1
sg19
(lp655
(lp656
F1503759908.733
aS'2017-08-27 00:05:08'
p657
aF0.0
aa(lp658
F1507039091.306
ag649
aF0.0
aasbsI63
(imyfunction
mondai
p659
(dp660
g3
S'2017-10-03 23:06:21'
p661
sg5
F0.18272441040869616
sg6
S'63.png'
p662
sg8
(lp663
sg13
(lp664
S'chemistry'
p665
asg16
F-3.2900559759003024e-17
sg17
F1507039581.643
sg18
I1
sg19
(lp666
(lp667
F1503760438.814
aS'2017-08-27 00:13:58'
p668
aF0.0
aa(lp669
F1507039581.643
ag661
aF0.0
aasbsI64
(imyfunction
mondai
p670
(dp671
g3
S'2017-10-03 23:17:32'
p672
sg5
F0.18414943637848893
sg6
S'64.png'
p673
sg8
(lp674
sg13
(lp675
S'chemistry'
p676
asg16
F-3.294906211238578e-17
sg17
F1507040252.843
sg18
I1
sg19
(lp677
(lp678
F1503761237.292
aS'2017-08-27 00:27:17'
p679
aF0.0
aa(lp680
F1507040252.843
ag672
aF0.0
aasbsI65
(imyfunction
mondai
p681
(dp682
g3
S'2017-10-04 01:24:08'
p683
sg5
F0.20107051369204562
sg6
S'65.png'
p684
sg8
(lp685
sg13
(lp686
S'chemistry'
p687
asg16
F-3.088343801126597e-17
sg17
F1507047848.101
sg18
I1
sg19
(lp688
(lp689
F1503763238.777
aS'2017-08-27 01:00:38'
p690
aF0.0
aa(lp691
F1507047848.101
ag683
aF0.0
aasbsI66
(imyfunction
mondai
p692
(dp693
g3
S'2017-08-27 01:18:25'
p694
sg5
F7.197141819860957e-08
sg6
S'66.png'
p695
sg8
(lp696
sg13
(lp697
S'chemistry'
p698
asg16
F0.8
sg17
F1503764305.612
sg19
(lp699
(lp700
F1503764305.612
ag694
aF0.8
aasbsI67
(imyfunction
mondai
p701
(dp702
g3
S'2017-08-27 04:40:16'
p703
sg5
F1.359672828824786e-09
sg6
S'67.png'
p704
sg8
(lp705
sg13
(lp706
S'chemistry'
p707
asg16
F0.6
sg17
F1503776416.902
sg19
(lp708
(lp709
F1503776416.902
ag703
aF0.6
aasbsI68
(imyfunction
mondai
p710
(dp711
g3
S'2017-10-04 01:29:36'
p712
sg5
F0.5865872749374494
sg6
S'68.png'
p713
sg8
(lp714
sg13
(lp715
S'chemistry'
p716
asg16
F1.0
sg17
F1507048176.263
sg18
I2
sg19
(lp717
(lp718
F1503779158.5
aS'2017-08-27 05:25:58'
p719
aF0.0
aa(lp720
F1507048176.263
ag712
aF1.0
aasbsI69
(imyfunction
mondai
p721
(dp722
g3
S'2017-10-05 01:03:07'
p723
sg5
F0.5386487711874829
sg6
S'69.png'
p724
sg8
(lp725
sg13
(lp726
S'chemistry'
p727
asg16
F-1.475936158364671e-17
sg17
F1507132987.358
sg18
I1
sg19
(lp728
(lp729
F1503784585.243
aS'2017-08-27 06:56:25'
p730
aF0.0
aa(lp731
F1507132987.358
ag723
aF0.0
aasbsI70
(imyfunction
mondai
p732
(dp733
g3
S'2017-10-05 01:36:08'
p734
sg5
F0.5511396336489824
sg6
S'70.png'
p735
sg8
(lp736
sg13
(lp737
S'chemistry'
p738
asg16
F-3.8906083719910555e-17
sg17
F1507134968.032
sg18
I2
sg19
(lp739
(lp740
F1503870311.11
aS'2017-08-28 06:45:11'
p741
aF0.0
aa(lp742
F1507134968.032
ag734
aF0.0
aasbsI71
(imyfunction
mondai
p743
(dp744
g3
S'2017-10-05 01:41:30'
p745
sg5
F0.8209078654744777
sg6
S'71.jpg'
p746
sg8
(lp747
sg13
(lp748
S'chemistry'
p749
asg16
F1.0
sg17
F1507135290.64
sg18
I1
sg19
(lp750
(lp751
F1503879436.234
aS'2017-08-28 09:17:16'
p752
aF0.0
aa(lp753
F1507135290.64
ag745
aF1.0
aasbsI72
(imyfunction
mondai
p754
(dp755
g3
S'2017-10-05 12:25:33'
p756
sg5
F0.9198080099224222
sg6
S'72.png'
p757
sg8
(lp758
sg13
(lp759
S'chemistry'
p760
asg16
F0.4999999999999999
sg17
F1507173933.085
sg18
I2
sg19
(lp761
(lp762
F1504016042.217
aS'2017-08-29 23:14:02'
p763
aF0.0
aa(lp764
F1507173933.085
ag756
aF0.5
aasbsI73
(imyfunction
mondai
p765
(dp766
g3
S'2017-10-05 12:40:05'
p767
sg5
F0.9560964651530263
sg6
S'73.png'
p768
sg8
(lp769
sg13
(lp770
S'chemistry'
p771
asg16
F0.9999999999999999
sg17
F1507174805.144
sg18
I2
sg19
(lp772
(lp773
F1504016537.49
aS'2017-08-29 23:22:17'
p774
aF0.0
aa(lp775
F1507174805.144
ag767
aF1.0
aasbsI74
(imyfunction
mondai
p776
(dp777
g3
S'2017-10-05 13:00:30'
p778
sg5
F0.8864682226174978
sg6
S'74.jpg'
p779
sg8
(lp780
sg13
(lp781
S'chemistry'
p782
asg16
F-1.3365815349420956e-16
sg17
F1507176030.244
sg18
I1
sg19
(lp783
(lp784
F1504018002.57
aS'2017-08-29 23:46:42'
p785
aF0.0
aa(lp786
F1507176030.244
ag778
aF0.0
aasbsI75
(imyfunction
mondai
p787
(dp788
g3
S'2017-10-05 13:11:09'
p789
sg5
F0.8930549099870477
sg6
S'75.jpg'
p790
sg8
(lp791
sg13
(lp792
S'chemistry'
p793
asg16
F-1.3632074025443876e-16
sg17
F1507176669.845
sg18
I2
sg19
(lp794
(lp795
F1504020346.415
aS'2017-08-30 00:25:46'
p796
aF0.0
aa(lp797
F1507176669.845
ag789
aF0.0
aasbsI76
(imyfunction
mondai
p798
(dp799
g3
S'2017-10-05 13:13:53'
p800
sg5
F0.9636061003509093
sg6
S'76.png'
p801
sg8
(lp802
sg13
(lp803
S'chemistry'
p804
asg16
F0.9999999999999982
sg17
F1507176833.07
sg18
I1
sg19
(lp805
(lp806
F1504242498.728
aS'2017-09-01 14:08:18'
p807
aF0.0
aa(lp808
F1507176833.07
ag800
aF1.0
aasbsI77
(imyfunction
mondai
p809
(dp810
g3
S'2017-10-05 13:15:17'
p811
sg5
F0.895620663967011
sg6
S'77.jpg'
p812
sg8
(lp813
sg13
(lp814
S'chemistry'
p815
asg16
F-1.785161182950008e-15
sg17
F1507176917.717
sg18
I1
sg19
(lp816
(lp817
F1504242836.989
aS'2017-09-01 14:13:56'
p818
aF0.0
aa(lp819
F1507176917.717
ag811
aF0.0
aasbsI78
(imyfunction
mondai
p820
(dp821
g3
S'2017-10-05 13:18:40'
p822
sg5
F0.9646764160681185
sg6
S'78.png'
p823
sg8
(lp824
sg13
(lp825
S'chemistry'
p826
asg16
F0.9999999999999982
sg17
F1507177120.815
sg18
I2
sg19
(lp827
(lp828
F1504243511.051
aS'2017-09-01 14:25:11'
p829
aF0.0
aa(lp830
F1507177120.815
ag822
aF1.0
aasbsI79
(imyfunction
mondai
p831
(dp832
g3
S'2017-10-05 13:23:50'
p833
sg5
F0.965831097012384
sg6
S'79.jpg'
p834
sg8
(lp835
sg13
(lp836
S'chemistry'
p837
asg16
F0.9999999999999982
sg17
F1507177430.882
sg18
I1
sg19
(lp838
(lp839
F1504244940.738
aS'2017-09-01 14:49:00'
p840
aF0.0
aa(lp841
F1507177430.882
ag833
aF1.0
aasbsI80
(imyfunction
mondai
p842
(dp843
g3
S'2017-10-05 13:31:41'
p844
sg5
F0.967586556962767
sg6
S'80.jpg'
p845
sg8
(lp846
sg13
(lp847
S'chemistry'
p848
asg16
F0.9999999999999981
sg17
F1507177901.567
sg18
I1
sg19
(lp849
(lp850
F1504246658.078
aS'2017-09-01 15:17:38'
p851
aF0.0
aa(lp852
F1507177901.567
ag844
aF1.0
aasbsI81
(imyfunction
mondai
p853
(dp854
g3
S'2017-10-05 13:40:26'
p855
sg5
F0.9113975186857689
sg6
S'81.png'
p856
sg8
(lp857
sg13
(lp858
S'chemistry'
p859
asg16
F-2.5723812036960078e-15
sg17
F1507178426.452
sg18
I1
sg19
(lp860
(lp861
F1504275909.657
aS'2017-09-01 23:25:09'
p862
aF0.0
aa(lp863
F1507178426.452
ag855
aF0.0
aasbsI82
(imyfunction
mondai
p864
(dp865
g3
S'2017-10-05 13:45:04'
p866
sg5
F0.9143403562453162
sg6
S'82.png'
p867
sg8
(lp868
sg13
(lp869
S'chemistry'
p870
asg16
F-2.623170979143293e-15
sg17
F1507178704.982
sg18
I1
sg19
(lp871
(lp872
F1504277877.469
aS'2017-09-01 23:57:57'
p873
aF0.0
aa(lp874
F1507178704.982
ag866
aF0.0
aasbsI83
(imyfunction
mondai
p875
(dp876
g3
S'2017-10-05 13:51:58'
p877
sg5
F0.9187230667554183
sg6
S'83.png'
p878
sg8
(lp879
sg13
(lp880
S'chemistry'
p881
asg16
F-2.6309049855391633e-15
sg17
F1507179118.134
sg18
I1
sg19
(lp882
(lp883
F1504278544.983
aS'2017-09-02 00:09:04'
p884
aF0.0
aa(lp885
F1507179118.134
ag877
aF0.0
aasbsI84
(imyfunction
mondai
p886
(dp887
g3
S'2017-09-02 01:49:47'
p888
sg5
F3.789429696854264e-09
sg6
S'84.png'
p889
sg8
(lp890
sg13
(lp891
S'chemistry'
p892
asg16
F0.5
sg17
F1504284587.342
sg18
I4
sg19
(lp893
(lp894
F1504284587.342
ag888
aF0.5
aasbsI85
(imyfunction
mondai
p895
(dp896
g3
S'2017-09-02 02:30:36'
p897
sg5
F3.85196910973417e-09
sg6
S'85.jpg'
p898
sg8
(lp899
sg13
(lp900
S'chemistry'
p901
asg16
F0.5
sg17
F1504287036.941
sg18
I2
sg19
(lp902
(lp903
F1504287036.941
ag897
aF0.5
aasbsI86
(imyfunction
mondai
p904
(dp905
g3
S'2017-09-02 02:45:11'
p906
sg5
F3.3203596397584213e-11
sg6
S'86.png'
p907
sg8
(lp908
sg13
(lp909
S'chemistry'
p910
asg16
F0.3
sg17
F1504287911.136
sg18
I6
sg19
(lp911
(lp912
F1504287911.136
ag906
aF0.3
aasbsI87
(imyfunction
mondai
p913
(dp914
g3
S'2017-10-05 14:00:49'
p915
sg5
F0.9243902062284504
sg6
S'87.png'
p916
sg8
(lp917
sg13
(lp918
S'chemistry'
p919
asg16
F-2.9523154222679466e-15
sg17
F1507179649.455
sg18
I1
sg19
(lp920
(lp921
F1504289034.929
aS'2017-09-02 03:03:54'
p922
aF0.0
aa(lp923
F1507179649.455
ag915
aF0.0
aasbsI88
(imyfunction
mondai
p924
(dp925
g3
S'2017-10-05 14:55:48'
p926
sg5
F0.9603640837613912
sg6
S'88.png'
p927
sg8
(lp928
sg13
(lp929
S'chemistry'
p930
asg16
F-3.0461961254892452e-15
sg17
F1507182948.05
sg18
I2
sg19
(lp931
(lp932
F1504295038.18
aS'2017-09-02 04:43:58'
p933
aF0.0
aa(lp934
F1507182948.05
ag926
aF0.0
aasbsI89
(imyfunction
mondai
p935
(dp936
g3
S'2017-10-05 15:18:58'
p937
sg5
F0.9759392576150604
sg6
S'89.jpg'
p938
sg8
(lp939
sg13
(lp940
S'chemistry'
p941
asg16
F-4.159729661901105e-15
sg17
F1507184338.043
sg18
I3
sg19
(lp942
(lp943
F1504323346.65
aS'2017-09-02 12:35:46'
p944
aF0.0
aa(lp945
F1507184338.043
ag937
aF0.0
aasbsI90
(imyfunction
mondai
p946
(dp947
g3
S'2017-10-05 15:33:09'
p948
sg5
F0.995178220922177
sg6
S'90.png'
p949
sg8
(lp950
sg13
(lp951
S'chemistry'
p952
asg16
F0.9999999999999959
sg17
F1507185189.481
sg18
I1
sg19
(lp953
(lp954
F1504323686.397
aS'2017-09-02 12:41:26'
p955
aF0.0
aa(lp956
F1507185189.481
ag948
aF1.0
aasbsI91
(imyfunction
mondai
p957
(dp958
g3
S'2017-10-05 15:34:52'
p959
sg5
F0.9955740480585891
sg6
S'91.jpg'
p960
sg8
(lp961
sg13
(lp962
S'chemistry'
p963
asg16
F0.9999999999999959
sg17
F1507185292.556
sg18
I1
sg19
(lp964
(lp965
F1504324204.896
aS'2017-09-02 12:50:04'
p966
aF0.0
aa(lp967
F1507185292.556
ag959
aF1.0
aasbsI92
(imyfunction
mondai
p968
(dp969
g3
S'2017-10-05 15:47:43'
p970
sg5
F0.9956246231222617
sg6
S'92.png'
p971
sg8
(lp972
sg13
(lp973
S'chemistry'
p974
asg16
F-4.178117625193385e-15
sg17
F1507186063.447
sg18
I1
sg19
(lp975
(lp976
F1504325453.141
aS'2017-09-02 13:10:53'
p977
aF0.0
aa(lp978
F1507186063.447
ag970
aF0.0
aasbsI93
(imyfunction
mondai
p979
(dp980
g3
S'2017-10-05 15:53:41'
p981
sg5
F0.9997599015136841
sg6
S'93.png'
p982
sg8
(lp983
sg13
(lp984
S'chemistry'
p985
asg16
F-4.260929810562285e-15
sg17
F1507186421.562
sg18
I1
sg19
(lp986
(lp987
F1504327506.993
aS'2017-09-02 13:45:06'
p988
aF0.0
aa(lp989
F1507186421.562
ag981
aF0.0
aasbsI94
(imyfunction
mondai
p990
(dp991
g3
S'2017-10-05 16:02:25'
p992
sg5
F4.359421670439795e-15
sg6
S'94.jpg'
p993
sg8
(lp994
sg13
(lp995
S'chemistry'
p996
asg16
F0.9999999999999957
sg17
F1507186945.999
sg18
I3
sg19
(lp997
(lp998
F1504330005.843
aS'2017-09-02 14:26:45'
p999
aF0.0
aa(lp1000
F1507186945.999
ag992
aF1.0
aasbsI95
(imyfunction
mondai
p1001
(dp1002
g3
S'2017-09-02 14:36:18'
p1003
sg5
F4.414044422402e-15
sg6
S'95.png'
p1004
sg8
(lp1005
sg13
(lp1006
S'chemistry'
p1007
asg16
F0.0
sg17
F1504330578.003
sg18
I1
sg19
(lp1008
(lp1009
F1504330578.003
ag1003
aF0.0
aasbsI96
(imyfunction
mondai
p1010
(dp1011
g3
S'2017-09-02 14:51:21'
p1012
sg5
F1.2470533770784581e-11
sg6
S'96.png'
p1013
sg8
(lp1014
sg13
(lp1015
S'chemistry'
p1016
asg16
F0.25
sg17
F1504331481.399
sg18
I4
sg19
(lp1017
(lp1018
F1504331481.399
ag1012
aF0.25
aasbsI97
(imyfunction
mondai
p1019
(dp1020
g3
S'2017-09-02 15:08:34'
p1021
sg5
F4.514091310523522e-15
sg6
S'97.png'
p1022
sg8
(lp1023
sg13
(lp1024
S'chemistry'
p1025
asg16
F0.0
sg17
F1504332514.446
sg18
I1
sg19
(lp1026
(lp1027
F1504332514.446
ag1021
aF0.0
aasbsI98
(imyfunction
mondai
p1028
(dp1029
g3
S'2017-09-05 02:26:32'
p1030
sg5
F8.225846416461124e-11
sg6
S'98.jpeg'
p1031
sg8
(lp1032
sg13
(lp1033
S'physical'
p1034
asg16
F0.25
sg17
F1504545992.782
sg18
I4
sg19
(lp1035
(lp1036
F1504545992.782
ag1030
aF0.25
aasbsI99
(imyfunction
mondai
p1037
(dp1038
g3
S'2017-09-05 03:10:13'
p1039
sg5
F5.5055968242133396e-14
sg6
S'99.jpeg'
p1040
sg8
(lp1041
sg13
(lp1042
S'physical'
p1043
asg16
F0.0
sg17
F1504548613.492
sg18
I2
sg19
(lp1044
(lp1045
F1504548613.492
ag1039
aF0.0
aasbsI100
(imyfunction
mondai
p1046
(dp1047
g3
S'2017-09-05 03:23:51'
p1048
sg5
F2.224196137237509e-08
sg6
S'100.jpeg'
p1049
sg8
(lp1050
sg13
(lp1051
S'physical'
p1052
asg16
F0.5
sg17
F1504549431.259
sg18
I2
sg19
(lp1053
(lp1054
F1504549431.259
ag1048
aF0.5
aasbsI101
(imyfunction
mondai
p1055
(dp1056
g3
S'2017-09-05 05:45:16'
p1057
sg5
F6.131473511940079e-14
sg6
S'101.jpeg'
p1058
sg8
(lp1059
sg13
(lp1060
S'physical'
p1061
asg16
F0.0
sg17
F1504557916.173
sg18
I3
sg19
(lp1062
(lp1063
F1504557916.173
ag1057
aF0.0
aasbsI102
(imyfunction
mondai
p1064
(dp1065
g3
S'2017-09-05 06:53:18'
p1066
sg5
F6.42811789157572e-14
sg6
S'102.jpeg'
p1067
sg8
(lp1068
sg13
(lp1069
S'physical'
p1070
asg16
F0.0
sg17
F1504561998.287
sg18
I1
sg19
(lp1071
(lp1072
F1504561998.287
ag1066
aF0.0
aasbsI103
(imyfunction
mondai
p1073
(dp1074
g3
S'2017-09-05 08:02:10'
p1075
sg5
F6.743011749928413e-14
sg6
S'103.png'
p1076
sg8
(lp1077
sg13
(lp1078
S'physical'
p1079
asg16
F0.0
sg17
F1504566130.357
sg18
I3
sg19
(lp1080
(lp1081
F1504566130.357
ag1075
aF0.0
aasbsI104
(imyfunction
mondai
p1082
(dp1083
g3
S'2017-09-05 11:45:10'
p1084
sg5
F7.872440615028676e-14
sg6
S'104.jpg'
p1085
sg8
(lp1086
sg13
(lp1087
S'physical'
p1088
asg16
F0.0
sg17
F1504579510.387
sg18
I1
sg19
(lp1089
(lp1090
F1504579510.387
ag1084
aF0.0
aasbsI105
(imyfunction
mondai
p1091
(dp1092
g3
S'2017-09-23 10:18:16'
p1093
sg5
F4.866348702806271e-06
sg6
S'105.jpg'
p1094
sg8
(lp1095
sg13
(lp1096
S'physical'
p1097
asg16
F0.0
sg17
F1506129496.71
sg18
I4
sg19
(lp1098
(lp1099
F1506129496.71
ag1093
aF0.0
aasbsI106
(imyfunction
mondai
p1100
(dp1101
g3
S'2017-09-23 11:11:53'
p1102
sg5
F5.05094076631495e-06
sg6
S'106.jpg'
p1103
sg8
(lp1104
sg13
(lp1105
S'physical'
p1106
asg16
F0.0
sg17
F1506132713.435
sg18
I2
sg19
(lp1107
(lp1108
F1506132713.435
ag1102
aF0.0
aasbsI107
(imyfunction
mondai
p1109
(dp1110
g3
S'2017-09-23 11:39:38'
p1111
sg5
F5.149232806105976e-06
sg6
S'107.jpg'
p1112
sg8
(lp1113
sg13
(lp1114
S'physical'
p1115
asg16
F0.0
sg17
F1506134378.641
sg18
I2
sg19
(lp1116
(lp1117
F1506134378.641
ag1111
aF0.0
aasbsI108
(imyfunction
mondai
p1118
(dp1119
g3
S'2017-09-23 11:52:35'
p1120
sg5
F5.1957108044073355e-06
sg6
S'108.jpg'
p1121
sg8
(lp1122
sg13
(lp1123
S'physical'
p1124
asg16
F0.0
sg17
F1506135155.006
sg18
I1
sg19
(lp1125
(lp1126
F1506135155.006
ag1120
aF0.0
aasbsI109
(imyfunction
mondai
p1127
(dp1128
g3
S'2017-09-23 12:33:50'
p1129
sg5
F5.3467271820211594e-06
sg6
S'109.png'
p1130
sg8
(lp1131
sg13
(lp1132
S'physical'
p1133
asg16
F0.0
sg17
F1506137630.469
sg18
I2
sg19
(lp1134
(lp1135
F1506137630.469
ag1129
aF0.0
aasbsI110
(imyfunction
mondai
p1136
(dp1137
g3
S'2017-09-23 12:51:11'
p1138
sg5
F5.411560520683353e-06
sg6
S'110.jpg'
p1139
sg8
(lp1140
sg13
(lp1141
S'physical'
p1142
asg16
F0.0
sg17
F1506138671.837
sg18
I2
sg19
(lp1143
(lp1144
F1506138671.837
ag1138
aF0.0
aasbsI111
(imyfunction
mondai
p1145
(dp1146
g3
S'2017-09-23 15:11:03'
p1147
sg5
F5.963565383520454e-06
sg6
S'111.jpg'
p1148
sg8
(lp1149
sg13
(lp1150
S'physical'
p1151
asg16
F0.0
sg17
F1506147063.957
sg18
I2
sg19
(lp1152
(lp1153
F1506147063.957
ag1147
aF0.0
aasbsI112
(imyfunction
mondai
p1154
(dp1155
g3
S'2017-09-23 15:21:22'
p1156
sg5
F0.0009670108695683256
sg6
S'112.png'
p1157
sg8
(lp1158
sg13
(lp1159
S'physical'
p1160
asg16
F0.5
sg17
F1506147682.265
sg18
I4
sg19
(lp1161
(lp1162
F1506147682.265
ag1156
aF0.5
aasbsI113
(imyfunction
mondai
p1163
(dp1164
g3
S'2017-09-23 15:34:50'
p1165
sg5
F6.06281886971393e-06
sg6
S'113.png'
p1166
sg8
(lp1167
sg13
(lp1168
S'physical'
p1169
asg16
F0.0
sg17
F1506148490.104
sg18
I1
sg19
(lp1170
(lp1171
F1506148490.104
ag1165
aF0.0
aasbsI114
(imyfunction
mondai
p1172
(dp1173
g3
S'2017-09-23 17:33:58'
p1174
sg5
F6.585761788870175e-06
sg6
S'114.jpg'
p1175
sg8
(lp1176
sg13
(lp1177
S'physical'
p1178
asg16
F0.0
sg17
F1506155638.422
sg18
I1
sg19
(lp1179
(lp1180
F1506155638.422
ag1174
aF0.0
aasbsI115
(imyfunction
mondai
p1181
(dp1182
g3
S'2017-09-23 18:07:32'
p1183
sg5
F6.74107893058623e-06
sg6
S'115.jpg'
p1184
sg8
(lp1185
sg13
(lp1186
S'physical'
p1187
asg16
F0.0
sg17
F1506157652.404
sg18
I2
sg19
(lp1188
(lp1189
F1506157652.404
ag1183
aF0.0
aasbsI116
(imyfunction
mondai
p1190
(dp1191
g3
S'2017-09-23 18:34:12'
p1192
sg5
F6.867077804773446e-06
sg6
S'116.jpg'
p1193
sg8
(lp1194
sg13
(lp1195
S'physical'
p1196
asg16
F0.0
sg17
F1506159252.417
sg18
I1
sg19
(lp1197
(lp1198
F1506159252.417
ag1192
aF0.0
aasbsI117
(imyfunction
mondai
p1199
(dp1200
g3
S'2017-09-23 19:23:54'
p1201
sg5
F7.108227604344585e-06
sg6
S'117.png'
p1202
sg8
(lp1203
sg13
(lp1204
S'physical'
p1205
asg16
F0.0
sg17
F1506162234.45
sg18
I2
sg19
(lp1206
(lp1207
F1506162234.45
ag1201
aF0.0
aasbsI118
(imyfunction
mondai
p1208
(dp1209
g3
S'2017-09-25 08:10:08'
p1210
sg5
F3.289613736182457e-05
sg6
S'118.jpg'
p1211
sg8
(lp1212
sg13
(lp1213
S'physical'
p1214
asg16
F0.0
sg17
F1506294608.09
sg18
I1
sg19
(lp1215
(lp1216
F1506294608.09
ag1210
aF0.0
aasbsI119
(imyfunction
mondai
p1217
(dp1218
g3
S'2017-09-25 08:31:45'
p1219
sg5
F3.33939496778598e-05
sg6
S'119.jpg'
p1220
sg8
(lp1221
sg13
(lp1222
S'physical'
p1223
asg16
F0.0
sg17
F1506295905.774
sg18
I1
sg19
(lp1224
(lp1225
F1506295905.774
ag1219
aF0.0
aasbsI120
(imyfunction
mondai
p1226
(dp1227
g3
S'2017-09-25 17:16:58'
p1228
sg5
F4.8091459170194e-05
sg6
S'120.jpg'
p1229
sg8
(lp1230
sg13
(lp1231
S'physical'
p1232
asg16
F0.0
sg17
F1506327418.434
sg18
I2
sg19
(lp1233
(lp1234
F1506327418.434
ag1228
aF0.0
aasbsI121
(imyfunction
mondai
p1235
(dp1236
g3
S'2017-09-25 18:41:13'
p1237
sg5
F5.0989027055293345e-05
sg6
S'121.jpg'
p1238
sg8
(lp1239
sg13
(lp1240
S'physical'
p1241
asg16
F0.0
sg17
F1506332473.34
sg18
I2
sg19
(lp1242
(lp1243
F1506332473.34
ag1237
aF0.0
aasbsI122
(imyfunction
mondai
p1244
(dp1245
g3
S'2017-09-25 19:07:57'
p1246
sg5
F5.194429952913273e-05
sg6
S'122.jpg'
p1247
sg8
(lp1248
sg13
(lp1249
S'physical'
p1250
asg16
F0.0
sg17
F1506334077.056
sg18
I3
sg19
(lp1251
(lp1252
F1506334077.056
ag1246
aF0.0
aasbsI123
(imyfunction
mondai
p1253
(dp1254
g3
S'2017-09-25 19:31:39'
p1255
sg5
F5.2806350639436725e-05
sg6
S'123.jpg'
p1256
sg8
(lp1257
sg13
(lp1258
S'physical'
p1259
asg16
F0.0
sg17
F1506335499.155
sg18
I2
sg19
(lp1260
(lp1261
F1506335499.155
ag1255
aF0.0
aasbsI124
(imyfunction
mondai
p1262
(dp1263
g3
S'2017-09-26 05:15:57'
p1264
sg5
F7.923337552129626e-05
sg6
S'124.jpg'
p1265
sg8
(lp1266
sg13
(lp1267
S'physical'
p1268
asg16
F0.0
sg17
F1506370557.351
sg18
I1
sg19
(lp1269
(lp1270
F1506370557.351
ag1264
aF0.0
aasbsI125
(imyfunction
mondai
p1271
(dp1272
g3
S'2017-09-26 05:49:46'
p1273
sg5
F8.111588304453601e-05
sg6
S'125.jpg'
p1274
sg8
(lp1275
sg13
(lp1276
S'physical'
p1277
asg16
F0.0
sg17
F1506372586.124
sg18
I1
sg19
(lp1278
(lp1279
F1506372586.124
ag1273
aF0.0
aasbsI126
(imyfunction
mondai
p1280
(dp1281
g3
S'2017-09-26 06:12:43'
p1282
sg5
F8.241946782932648e-05
sg6
S'126.jpg'
p1283
sg8
(lp1284
sg13
(lp1285
S'physical'
p1286
asg16
F0.0
sg17
F1506373963.589
sg18
I2
sg19
(lp1287
(lp1288
F1506373963.589
ag1282
aF0.0
aasbsI127
(imyfunction
mondai
p1289
(dp1290
g3
S'2017-09-26 22:42:13'
p1291
sg5
F0.0001638528700466793
sg6
S'127.jpg'
p1292
sg8
(lp1293
sg13
(lp1294
S'physical'
p1295
asg16
F0.0
sg17
F1506433333.109
sg18
I1
sg19
(lp1296
(lp1297
F1506433333.109
ag1291
aF0.0
aasbsI128
(imyfunction
mondai
p1298
(dp1299
g3
S'2017-09-26 22:43:06'
p1300
sg5
F0.00016395398176329812
sg6
S'128.jpg'
p1301
sg8
(lp1302
sg13
(lp1303
S'physical'
p1304
asg16
F0.0
sg17
F1506433386.409
sg18
I1
sg19
(lp1305
(lp1306
F1506433386.409
ag1300
aF0.0
aasbsI129
(imyfunction
mondai
p1307
(dp1308
g3
S'2017-09-27 05:41:54'
p1309
sg5
F0.004387144588123305
sg6
S'129.png'
p1310
sg8
(lp1311
sg13
(lp1312
S'physical'
p1313
asg16
F0.4
sg17
F1506458514.65
sg18
I5
sg19
(lp1314
(lp1315
F1506458514.65
ag1309
aF0.4
aasbsI130
(imyfunction
mondai
p1316
(dp1317
g3
S'2017-09-27 06:04:10'
p1318
sg5
F0.00022271249524286835
sg6
S'130.jpg'
p1319
sg8
(lp1320
sg13
(lp1321
S'physical'
p1322
asg16
F0.0
sg17
F1506459850.374
sg18
I2
sg19
(lp1323
(lp1324
F1506459850.374
ag1318
aF0.0
aasbsI131
(imyfunction
mondai
p1325
(dp1326
g3
S'2017-09-27 06:51:31'
p1327
sg5
F0.00023015895433417497
sg6
S'131.jpg'
p1328
sg8
(lp1329
sg13
(lp1330
S'physical'
p1331
asg16
F0.0
sg17
F1506462691.94
sg18
I2
sg19
(lp1332
(lp1333
F1506462691.94
ag1327
aF0.0
aasbsI132
(imyfunction
mondai
p1334
(dp1335
g3
S'2017-09-27 18:17:18'
p1336
sg5
F0.00037055363883010646
sg6
S'132.jpg'
p1337
sg8
(lp1338
sg13
(lp1339
S'physical'
p1340
asg16
F0.0
sg17
F1506503838.042
sg18
I3
sg19
(lp1341
(lp1342
F1506503838.042
ag1336
aF0.0
aasbsI133
(imyfunction
mondai
p1343
(dp1344
g3
S'2017-09-27 18:49:29'
p1345
sg5
F0.00037893072955734106
sg6
S'133.jpg'
p1346
sg8
(lp1347
sg13
(lp1348
S'physical'
p1349
asg16
F0.0
sg17
F1506505769.532
sg18
I3
sg19
(lp1350
(lp1351
F1506505769.532
ag1345
aF0.0
aasbsI134
(imyfunction
mondai
p1352
(dp1353
g3
S'2017-09-27 19:31:04'
p1354
sg5
F0.0003900342797429089
sg6
S'134.jpg'
p1355
sg8
(lp1356
sg13
(lp1357
S'physical'
p1358
asg16
F0.0
sg17
F1506508264.869
sg18
I2
sg19
(lp1359
(lp1360
F1506508264.869
ag1354
aF0.0
aasbsI135
(imyfunction
mondai
p1361
(dp1362
g3
S'2017-09-27 19:51:49'
p1363
sg5
F0.0003956944158476864
sg6
S'135.jpg'
p1364
sg8
(lp1365
sg13
(lp1366
S'physical'
p1367
asg16
F0.0
sg17
F1506509509.686
sg18
I3
sg19
(lp1368
(lp1369
F1506509509.686
ag1363
aF0.0
aasbsI136
(imyfunction
mondai
p1370
(dp1371
g3
S'2017-09-27 21:50:01'
p1372
sg5
F0.0004295414445195003
sg6
S'136.jpg'
p1373
sg8
(lp1374
sg13
(lp1375
S'physical'
p1376
asg16
F0.0
sg17
F1506516601.052
sg18
I2
sg19
(lp1377
(lp1378
F1506516601.052
ag1372
aF0.0
aasbsI137
(imyfunction
mondai
p1379
(dp1380
g3
S'2017-09-27 22:11:51'
p1381
sg5
F0.0004361058356081537
sg6
S'137.jpg'
p1382
sg8
(lp1383
sg13
(lp1384
S'physical'
p1385
asg16
F0.0
sg17
F1506517911.457
sg18
I1
sg19
(lp1386
(lp1387
F1506517911.457
ag1381
aF0.0
aasbsI138
(imyfunction
mondai
p1388
(dp1389
g3
S'2017-09-30 12:05:52'
p1390
sg5
F0.005750611013129363
sg6
S'138.jpeg'
p1391
sg8
(lp1392
sg13
(lp1393
S'math'
p1394
asg16
F0.0
sg17
F1506740752.301
sg18
I1
sg19
(lp1395
(lp1396
F1506740752.301
ag1390
aF0.0
aasbsI139
(imyfunction
mondai
p1397
(dp1398
g3
S'2017-09-30 12:19:12'
p1399
sg5
F0.005804117919000343
sg6
S'139.jpeg'
p1400
sg8
(lp1401
sg13
(lp1402
S'math'
p1403
asg16
F0.0
sg17
F1506741552.498
sg18
I1
sg19
(lp1404
(lp1405
F1506741552.498
ag1399
aF0.0
aasbsI140
(imyfunction
mondai
p1406
(dp1407
g3
S'2017-09-30 14:27:38'
p1408
sg5
F0.006345593958234697
sg6
S'140.jpeg'
p1409
sg8
(lp1410
sg13
(lp1411
S'math'
p1412
asg16
F0.0
sg17
F1506749258.778
sg18
I2
sg19
(lp1413
(lp1414
F1506749258.778
ag1408
aF0.0
aasbsI141
(imyfunction
mondai
p1415
(dp1416
g3
S'2017-09-30 14:48:36'
p1417
sg5
F0.006438662142363077
sg6
S'141.jpeg'
p1418
sg8
(lp1419
sg13
(lp1420
S'math'
p1421
asg16
F0.0
sg17
F1506750516.768
sg18
I1
sg19
(lp1422
(lp1423
F1506750516.768
ag1417
aF0.0
aasbsI142
(imyfunction
mondai
p1424
(dp1425
g3
S'2017-09-30 15:07:10'
p1426
sg5
F0.006522183888240947
sg6
S'142.jpeg'
p1427
sg8
(lp1428
sg13
(lp1429
S'math'
p1430
asg16
F0.0
sg17
F1506751630.334
sg18
I3
sg19
(lp1431
(lp1432
F1506751630.334
ag1426
aF0.0
aasbsI143
(imyfunction
mondai
p1433
(dp1434
g3
S'2017-09-30 15:37:04'
p1435
sg5
F0.006659075421747595
sg6
S'143.jpeg'
p1436
sg8
(lp1437
sg13
(lp1438
S'math'
p1439
asg16
F0.0
sg17
F1506753424.981
sg18
I1
sg19
(lp1440
(lp1441
F1506753424.981
ag1435
aF0.0
aasbsI144
(imyfunction
mondai
p1442
(dp1443
g3
S'2017-09-30 16:24:05'
p1444
sg5
F0.006880031897795517
sg6
S'144.jpeg'
p1445
sg8
(lp1446
sg13
(lp1447
S'math'
p1448
asg16
F0.0
sg17
F1506756245.305
sg18
I1
sg19
(lp1449
(lp1450
F1506756245.305
ag1444
aF0.0
aasbsI145
(imyfunction
mondai
p1451
(dp1452
g3
S'2017-09-30 16:48:01'
p1453
sg5
F0.006995382514117947
sg6
S'145.jpeg'
p1454
sg8
(lp1455
sg13
(lp1456
S'math'
p1457
asg16
F0.0
sg17
F1506757681.878
sg18
I2
sg19
(lp1458
(lp1459
F1506757681.878
ag1453
aF0.0
aasbs.