(dp0
I1
(imyfunction
mondai
p1
(dp2
S'wordtime'
p3
S'2017-07-04 14:18:19'
p4
sS'remember'
p5
F1.1964848236863019e-08
sS'imgnum'
p6
S'1.png'
p7
sS'memo'
p8
(lp9
(lp10
F1498515733.947
aS'2017-06-27 07:22:13'
p11
aS'answer 3'
p12
aasS'tag'
p13
(lp14
S'chemistry'
p15
asS'understand'
p16
F0.999316953411003
sS'lasttime'
p17
F1499145499.01
sS'qusnum'
p18
I1
sS'history'
p19
(lp20
(lp21
F1498515733.947
ag11
aI0
aa(lp22
F1499145499.01
ag4
aI1
aasbsI2
(imyfunction
mondai
p23
(dp24
g3
S'2017-07-04 14:33:48'
p25
sg5
F1.7033512274328887e-24
sg6
S'2.jpg'
p26
sg8
(lp27
S'answer is 3'
p28
asg13
(lp29
g15
asg16
F-0.0009548136980126638
sg17
F1499146428.99
sg19
(lp30
(lp31
F1498545603.881
aS'2017-06-27 15:40:03'
p32
aI0
aa(lp33
F1499146428.99
ag25
aI0
aasbsI3
(imyfunction
mondai
p34
(dp35
g3
S'2017-07-12 03:37:55'
p36
sg5
F1.505171167200848e-07
sg6
S'3.jpg'
p37
sg8
(lp38
S'answer is 5'
p39
asg13
(lp40
g15
asg16
F0.9999994937212187
sg17
F1499798275.889
sg19
(lp41
(lp42
F1498545806.078
aS'2017-06-27 15:43:26'
p43
aI0
aa(lp44
F1499798275.889
ag36
aI1
aasbsI4
(imyfunction
mondai
p45
(dp46
g3
S'2017-07-12 03:40:20'
p47
sg5
F1.5060112391894624e-07
sg6
S'4.jpg'
p48
sg8
(lp49
S'answer is 2'
p50
asg13
(lp51
g15
asg16
F0.9999994935594296
sg17
F1499798420.515
sg19
(lp52
(lp53
F1498545978.31
aS'2017-06-27 15:46:18'
p54
aI0
aa(lp55
F1499798420.515
ag47
aI1
aasbsI5
(imyfunction
mondai
p56
(dp57
g3
S'2017-07-12 03:41:46'
p58
sg5
F1.5065075920372393e-07
sg6
S'5.jpg'
p59
sg8
(lp60
S'answer is 3'
p61
asg13
(lp62
g15
asg16
F0.9999994359484087
sg17
F1499798506.186
sg19
(lp63
(lp64
F1498555372.608
aS'2017-06-27 18:22:52'
p65
aI0
aa(lp66
F1499798506.186
ag58
aI1
aasbsI6
(imyfunction
mondai
p67
(dp68
g3
S'2017-07-12 03:44:19'
p69
sg5
F1.5074004627623732e-07
sg6
S'6.jpg'
p70
sg8
(lp71
S'answer is 5'
p72
asg13
(lp73
g15
asg16
F0.9999994346046224
sg17
F1499798659.768
sg19
(lp74
(lp75
F1498555731.783
aS'2017-06-27 18:28:51'
p76
aI0
aa(lp77
F1499798659.768
ag69
aI1
aasbsI7
(imyfunction
mondai
p78
(dp79
g3
S'2017-07-12 03:45:07'
p80
sg5
F1.507665854341728e-07
sg6
S'7.jpg'
p81
sg8
(lp82
S'answer is 1'
p83
asg13
(lp84
g15
asg16
F0.999998982652945
sg17
F1499798707.42
sg19
(lp85
(lp86
F1498606533.242
aS'2017-06-28 08:35:33'
p87
aI0
aa(lp88
F1499798707.42
ag80
aI1
aasbsI8
(imyfunction
mondai
p89
(dp90
g3
S'2017-07-12 03:45:38'
p91
sg5
F1.5078413705118327e-07
sg6
S'8.jpg'
p92
sg8
(lp93
S'answer is 4'
p94
asg13
(lp95
g15
asg16
F0.9999988380453558
sg17
F1499798738.24
sg19
(lp96
(lp97
F1498618047.081
aS'2017-06-28 11:47:27'
p98
aI0
aa(lp99
F1499798738.24
ag91
aI1
aasbsI9
(imyfunction
mondai
p100
(dp101
g3
S'2017-06-28 15:24:07'
p102
sg5
F4.630544621454564e-27
sg6
S'9.jpg'
p103
sg8
(lp104
S'answer is 2'
p105
asg13
(lp106
g15
asg16
F0.0
sg17
F1498631047.991
sg19
(lp107
(lp108
F1498631047.991
ag102
aI0
aasbsI10
(imyfunction
mondai
p109
(dp110
g3
S'2017-06-28 15:25:58'
p111
sg5
F4.636466444513289e-27
sg6
S'10.jpg'
p112
sg8
(lp113
S'answer is 4'
p114
asg13
(lp115
g15
asg16
F0.0
sg17
F1498631158.414
sg19
(lp116
(lp117
F1498631158.414
ag111
aI0
aasbsI11
(imyfunction
mondai
p118
(dp119
g3
S'2017-07-04 13:54:14'
p120
sg5
F1.7550369405926815e-24
sg6
S'11.jpg'
p121
sg8
(lp122
(lp123
F1499144054.099
ag120
aS'answer 2,3,2'
p124
aasg13
(lp125
g15
asg16
F0.0
sg17
F1499144054.099
sg19
(lp126
(lp127
F1499144054.099
ag120
aI0
aasbsI12
(imyfunction
mondai
p128
(dp129
g3
S'2017-07-04 14:00:01'
p130
sg5
F1.762111610231028e-24
sg6
S'12.jpg'
p131
sg8
(lp132
(lp133
F1499144401.683
ag130
aS'answer 3'
p134
aasg13
(lp135
g15
asg16
F0.0
sg17
F1499144401.683
sg19
(lp136
(lp137
F1499144401.683
ag130
aI0
aasbsI13
(imyfunction
mondai
p138
(dp139
g3
S'2017-07-04 14:17:31'
p140
sg5
F2.9601343690918134e-24
sg6
S'13.jpg'
p141
sg8
(lp142
(lp143
F1499144716.146
aS'2017-07-04 14:05:16'
p144
aS'answer 3'
p145
aasg13
(lp146
g15
asg16
F0.008471551343691375
sg17
F1499145451.206
sg19
(lp147
F1499144716.146
ag144
aI0
asbsI14
(imyfunction
mondai
p148
(dp149
g3
S'2017-07-04 16:24:59'
p150
sg5
F1.948728830382555e-24
sg6
S'14.jpg'
p151
sg8
(lp152
sg13
(lp153
S'math'
p154
asg16
F0.0
sg17
F1499153099.088
sg19
(lp155
(lp156
F1499153099.088
ag150
aI0
aasbsI15
(imyfunction
mondai
p157
(dp158
g3
S'2017-07-04 20:02:05'
p159
sg5
F2.2658326889123147e-24
sg6
S'15.png'
p160
sg8
(lp161
sg13
(lp162
g154
asg16
F0.0
sg17
F1499166125.188
sg19
(lp163
(lp164
F1499166125.188
ag159
aI0
aasbsI16
(imyfunction
mondai
p165
(dp166
g3
S'2017-07-04 21:08:46'
p167
sg5
F2.3732313178083793e-24
sg6
S'16.png'
p168
sg8
(lp169
S'\xbb\xad\xcd\xbc\xba\xf3\xd5\xd2\xbd\xbb\xb5\xe3'
p170
asg13
(lp171
S'math'
p172
asg16
F0.0
sg17
F1499170126.383
sg19
(lp173
(lp174
F1499170126.383
ag167
aI0
aasbsI17
(imyfunction
mondai
p175
(dp176
g3
S'2017-07-04 23:19:34'
p177
sg5
F2.598900738845507e-24
sg6
S'17.jpg'
p178
sg8
(lp179
S'answer is 4'
p180
asg13
(lp181
S'chemistry'
p182
asg16
F0.0
sg17
F1499177974.623
sg19
(lp183
(lp184
F1499177974.623
ag177
aI0
aasbsI18
(imyfunction
mondai
p185
(dp186
g3
S'2017-07-04 23:22:46'
p187
sg5
F2.6046925948103472e-24
sg6
S'18.jpg'
p188
sg8
(lp189
S'answer is 1'
p190
asg13
(lp191
g182
asg16
F0.0
sg17
F1499178166.958
sg19
(lp192
(lp193
F1499178166.958
ag187
aI0
aasbsI19
(imyfunction
mondai
p194
(dp195
g3
S'2017-07-05 16:03:21'
p196
sg5
F5.2182412837369536e-24
sg6
S'19.jpg'
p197
sg8
(lp198
sg13
(lp199
g172
asg16
F0.0
sg17
F1499238201.632
sg19
(lp200
(lp201
F1499238201.632
ag196
aI0
aasbsI20
(imyfunction
mondai
p202
(dp203
g3
S'2017-07-08 19:24:45'
p204
sg5
F2.539958123494841e-18
sg6
S'20.jpg'
p205
sg8
(lp206
sg13
(lp207
g172
asg16
F0.2
sg17
F1499509485.541
sg19
(lp208
(lp209
F1499509485.541
ag204
aF0.2
aasbsI21
(imyfunction
mondai
p210
(dp211
g3
S'2017-07-08 21:19:28'
p212
sg5
F2.318028272670007e-13
sg6
S'21.jpg'
p213
sg8
(lp214
sg13
(lp215
g182
asg16
F0.5
sg17
F1499516368.113
sg19
(lp216
(lp217
F1499516368.113
ag212
aF0.5
aasbsI22
(imyfunction
mondai
p218
(dp219
g3
S'2017-07-09 01:21:40'
p220
sg5
F1.5445163674832383e-22
sg6
S'22.jpg'
p221
sg8
(lp222
sg13
(lp223
g182
asg16
F0.0
sg17
F1499530900.691
sg19
(lp224
(lp225
F1499530900.691
ag220
aI0
aasbsI23
(imyfunction
mondai
p226
(dp227
g3
S'2017-07-09 01:22:30'
p228
sg5
F1.5454005343076748e-22
sg6
S'23.jpg'
p229
sg8
(lp230
sg13
(lp231
g182
asg16
F0.0
sg17
F1499530950.137
sg19
(lp232
(lp233
F1499530950.137
ag228
aI0
aasbsI24
(imyfunction
mondai
p234
(dp235
g3
S'2017-07-09 05:52:16'
p236
sg5
F1.863811889561971e-22
sg6
S'24.jpg'
p237
sg8
(lp238
sg13
(lp239
S'chemistry'
p240
asg16
F0.0
sg17
F1499547136.371
sg19
(lp241
(lp242
F1499547136.371
ag236
aI0
aasbsI25
(imyfunction
mondai
p243
(dp244
g3
S'2017-07-09 05:56:17'
p245
sg5
F1.8690260429412304e-22
sg6
S'25.jpg'
p246
sg8
(lp247
sg13
(lp248
g240
asg16
F0.0
sg17
F1499547377.744
sg19
(lp249
(lp250
F1499547377.744
ag245
aI0
aasbsI26
(imyfunction
mondai
p251
(dp252
g3
S'2017-07-09 05:57:03'
p253
sg5
F1.870014421912724e-22
sg6
S'26.jpg'
p254
sg8
(lp255
sg13
(lp256
g240
asg16
F0.0
sg17
F1499547423.422
sg19
(lp257
(lp258
F1499547423.422
ag253
aI0
aasbsI27
(imyfunction
mondai
p259
(dp260
g3
S'2017-07-09 05:57:43'
p261
sg5
F1.8708751728827997e-22
sg6
S'27.jpg'
p262
sg8
(lp263
sg13
(lp264
g240
asg16
F0.0
sg17
F1499547463.182
sg19
(lp265
(lp266
F1499547463.182
ag261
aI0
aasbsI28
(imyfunction
mondai
p267
(dp268
g3
S'2017-07-10 01:03:16'
p269
sg5
F4.1451276060351895e-22
sg6
S'28.jpg'
p270
sg8
(lp271
sg13
(lp272
g240
asg16
F0.0
sg17
F1499616196.736
sg19
(lp273
(lp274
F1499616196.736
ag269
aI0
aasbsI29
(imyfunction
mondai
p275
(dp276
g3
S'2017-07-10 01:12:12'
p277
sg5
F4.1771518396544824e-10
sg6
S'29.jpg'
p278
sg8
(lp279
sg13
(lp280
S'math'
p281
asg16
F0.75
sg17
F1499616732.384
sg19
(lp282
(lp283
F1499616732.384
ag277
aF0.75
aasbsI30
(imyfunction
mondai
p284
(dp285
g3
S'2017-07-10 18:58:24'
p286
sg5
F8.74564047235974e-22
sg6
S'30.png'
p287
sg8
(lp288
sg13
(lp289
g240
asg16
F0.0
sg17
F1499680704.857
sg19
(lp290
(lp291
F1499680704.857
ag286
aI0
aasbsI31
(imyfunction
mondai
p292
(dp293
g3
S'2017-07-12 03:21:37'
p294
sg5
F3.2582105100443397e-13
sg6
S'31.jpg'
p295
sg8
(lp296
sg13
(lp297
g281
asg16
F0.45
sg17
F1499797297.774
sg19
(lp298
(lp299
F1499797297.774
ag294
aF0.45
aasbsI32
(imyfunction
mondai
p300
(dp301
g3
S'2017-07-12 03:24:30'
p302
sg5
F4.1965478031251286e-20
sg6
S'32.jpg'
p303
sg8
(lp304
sg13
(lp305
g281
asg16
F0.05
sg17
F1499797470.167
sg19
(lp306
(lp307
F1499797470.167
ag302
aF0.05
aasbsI33
(imyfunction
mondai
p308
(dp309
g3
S'2017-07-15 05:36:44'
p310
sg5
F7.438503397641014e-20
sg6
S'33.jpg'
p311
sg8
(lp312
sg13
(lp313
S'physics'
p314
asg16
F0.0
sg17
F1500064604.639
sg19
(lp315
(lp316
F1500064604.639
ag310
aI0
aasbsI34
(imyfunction
mondai
p317
(dp318
g3
S'2017-08-17 23:29:33'
p319
sg5
F3.363244549707664e-05
sg6
S'34.jpg'
p320
sg8
(lp321
sg13
(lp322
S'physical'
p323
asg16
F0.0
sg17
F1502980173.751
sg19
(lp324
(lp325
F1502980173.751
ag319
aF0.0
aasbsI35
(imyfunction
mondai
p326
(dp327
g3
S'2017-08-18 01:12:53'
p328
sg5
F0.002724997407275191
sg6
S'35.jpeg'
p329
sg8
(lp330
sg13
(lp331
S'physical'
p332
asg16
F0.5
sg17
F1502986373.885
sg19
(lp333
(lp334
F1502986373.885
ag328
aF0.5
aasbsI36
(imyfunction
mondai
p335
(dp336
g3
S'2017-08-19 01:39:30'
p337
sg5
F0.017593089196270787
sg6
S'36.jpeg'
p338
sg8
(lp339
sg13
(lp340
S'physical'
p341
asg16
F0.75
sg17
F1503074370.742
sg19
(lp342
(lp343
F1503074370.742
ag337
aF0.75
aasbsI37
(imyfunction
mondai
p344
(dp345
g3
S'2017-08-19 02:05:31'
p346
sg5
F0.00861106329323306
sg6
S'37.jpeg'
p347
sg8
(lp348
sg13
(lp349
S'physical'
p350
asg16
F0.6
sg17
F1503075931.234
sg19
(lp351
(lp352
F1503075931.234
ag346
aF0.6
aasbsI38
(imyfunction
mondai
p353
(dp354
g3
S'2017-08-19 03:13:53'
p355
sg5
F0.022436063649880714
sg6
S'38.jpeg'
p356
sg8
(lp357
sg13
(lp358
S'physical'
p359
asg16
F0.8
sg17
F1503080033.486
sg19
(lp360
(lp361
F1503080033.486
ag355
aF0.8
aasbsI39
(imyfunction
mondai
p362
(dp363
g3
S'2017-08-19 03:42:09'
p364
sg5
F0.018262874227978475
sg6
S'39.jpeg'
p365
sg8
(lp366
sg13
(lp367
S'physical'
p368
asg16
F0.75
sg17
F1503081729.58
sg19
(lp369
(lp370
F1503081729.58
ag364
aF0.75
aasbsI40
(imyfunction
mondai
p371
(dp372
g3
S'2017-08-19 03:59:08'
p373
sg5
F0.03369722039149975
sg6
S'40.jpeg'
p374
sg8
(lp375
sg13
(lp376
S'physical'
p377
asg16
F0.9
sg17
F1503082748.531
sg19
(lp378
(lp379
F1503082748.531
ag373
aF0.9
aasbsI41
(imyfunction
mondai
p380
(dp381
g3
S'2017-08-20 18:55:50'
p382
sg5
F0.020764889469953363
sg6
S'41.jpg'
p383
sg8
(lp384
sg13
(lp385
S'physical'
p386
asg16
F0.6
sg17
F1503222950.967
sg19
(lp387
(lp388
F1503222950.967
ag382
aF0.6
aasbsI42
(imyfunction
mondai
p389
(dp390
g3
S'2017-08-20 20:00:00'
p391
sg5
F0.002536809177362416
sg6
S'42.jpg'
p392
sg8
(lp393
sg13
(lp394
S'physical'
p395
asg16
F0.2
sg17
F1503226800.354
sg19
(lp396
(lp397
F1503226800.354
ag391
aF0.2
aasbsI43
(imyfunction
mondai
p398
(dp399
g3
S'2017-08-20 21:36:09'
p400
sg5
F0.0006243694782048936
sg6
S'43.png'
p401
sg8
(lp402
sg13
(lp403
S'chemistry'
p404
asg16
F0.0
sg17
F1503232569.843
sg19
(lp405
(lp406
F1503232569.843
ag400
aF0.0
aasbsI44
(imyfunction
mondai
p407
(dp408
g3
S'2017-08-20 21:55:40'
p409
sg5
F0.014231332984751372
sg6
S'44.png'
p410
sg8
(lp411
sg13
(lp412
S'chemistry'
p413
asg16
F0.5
sg17
F1503233740.794
sg19
(lp414
(lp415
F1503233740.794
ag409
aF0.5
aasbsI45
(imyfunction
mondai
p416
(dp417
g3
S'2017-08-21 00:51:01'
p418
sg5
F0.0007148389405539035
sg6
S'45.png'
p419
sg8
(lp420
sg13
(lp421
S'chemistry'
p422
asg16
F0.0
sg17
F1503244261.055
sg19
(lp423
(lp424
F1503244261.055
ag418
aF0.0
aasbsI46
(imyfunction
mondai
p425
(dp426
g3
S'2017-08-21 01:10:28'
p427
sg5
F0.041931781030416226
sg6
S'46.png'
p428
sg8
(lp429
S'answer is 7'
p430
asg13
(lp431
S'chemistry'
p432
asg16
F0.75
sg17
F1503245428.763
sg19
(lp433
(lp434
F1503245428.763
ag427
aF0.75
aasbsI47
(imyfunction
mondai
p435
(dp436
g3
S'2017-08-21 01:32:05'
p437
sg5
F0.0007355236959821779
sg6
S'47.png'
p438
sg8
(lp439
sg13
(lp440
S'chemistry'
p441
asg16
F0.0
sg17
F1503246725.658
sg19
(lp442
(lp443
F1503246725.658
ag437
aF0.0
aasbsI48
(imyfunction
mondai
p444
(dp445
g3
S'2017-08-21 01:41:54'
p446
sg5
F0.0007405520721431365
sg6
S'48.png'
p447
sg8
(lp448
sg13
(lp449
S'chemistry'
p450
asg16
F0.0
sg17
F1503247314.318
sg19
(lp451
(lp452
F1503247314.318
ag446
aF0.0
aasbsI49
(imyfunction
mondai
p453
(dp454
g3
S'2017-08-21 03:52:18'
p455
sg5
F0.0008107453853437759
sg6
S'49.png'
p456
sg8
(lp457
sg13
(lp458
S'chemistry'
p459
asg16
F0.0
sg17
F1503255138.538
sg19
(lp460
(lp461
F1503255138.538
ag455
aF0.0
aasbsI50
(imyfunction
mondai
p462
(dp463
g3
S'2017-08-21 07:37:02'
p464
sg5
F0.0009476828703944542
sg6
S'50.png'
p465
sg8
(lp466
sg13
(lp467
S'chemistry'
p468
asg16
F0.0
sg17
F1503268622.629
sg19
(lp469
(lp470
F1503268622.629
ag464
aF0.0
aasbsI51
(imyfunction
mondai
p471
(dp472
g3
S'2017-08-21 07:51:15'
p473
sg5
F0.018069687087733717
sg6
S'51.jpg'
p474
sg8
(lp475
sg13
(lp476
S'chemistry'
p477
asg16
F0.5
sg17
F1503269475.48
sg19
(lp478
(lp479
F1503269475.48
ag473
aF0.5
aasbsI52
(imyfunction
mondai
p480
(dp481
g3
S'2017-08-21 07:57:49'
p482
sg5
F0.03996686890258894
sg6
S'52.jpg'
p483
sg8
(lp484
sg13
(lp485
S'chemistry'
p486
asg16
F0.7
sg17
F1503269869.663
sg19
(lp487
(lp488
F1503269869.663
ag482
aF0.7
aasbsI53
(imyfunction
mondai
p489
(dp490
g3
S'2017-08-22 02:20:47'
p491
sg5
F0.023048007555443062
sg6
S'53.png'
p492
sg8
(lp493
sg13
(lp494
S'math'
p495
asg16
F0.45
sg17
F1503336047.871
sg19
(lp496
(lp497
F1503336047.871
ag491
aF0.45
aasbsI54
(imyfunction
mondai
p498
(dp499
g3
S'2017-08-22 07:00:54'
p500
sg5
F0.004683399951543743
sg6
S'54.png'
p501
sg8
(lp502
sg13
(lp503
S'math'
p504
asg16
F0.1
sg17
F1503352854.527
sg19
(lp505
(lp506
F1503352854.527
ag500
aF0.1
aasbsI55
(imyfunction
mondai
p507
(dp508
g3
S'2017-08-22 10:58:23'
p509
sg5
F0.002962654991686529
sg6
S'55.jpg'
p510
sg8
(lp511
sg13
(lp512
S'physical'
p513
asg16
F0.0
sg17
F1503367103.179
sg19
(lp514
(lp515
F1503367103.179
ag509
aF0.0
aasbsI56
(imyfunction
mondai
p516
(dp517
g3
S'2017-08-22 11:34:13'
p518
sg5
F0.023863281252978385
sg6
S'56.png'
p519
sg8
(lp520
sg13
(lp521
S'chemistry'
p522
asg16
F0.4
sg17
F1503369253.09
sg19
(lp523
(lp524
F1503369253.09
ag518
aF0.4
aasbsI57
(imyfunction
mondai
p525
(dp526
g3
S'2017-08-22 11:59:34'
p527
sg5
F0.035557227779358984
sg6
S'57.png'
p528
sg8
(lp529
sg13
(lp530
S'chemistry'
p531
asg16
F0.5
sg17
F1503370774.163
sg19
(lp532
(lp533
F1503370774.163
ag527
aF0.5
aasbsI58
(imyfunction
mondai
p534
(dp535
g3
S'2017-08-22 22:31:10'
p536
sg5
F0.04580430109609614
sg6
S'58.png'
p537
sg8
(lp538
sg13
(lp539
S'chemistry'
p540
asg16
F0.5
sg17
F1503408670.508
sg19
(lp541
(lp542
F1503408670.508
ag536
aF0.5
aasbsI59
(imyfunction
mondai
p543
(dp544
g3
S'2017-08-23 06:11:09'
p545
sg5
F0.0744714980782431
sg6
S'59.png'
p546
sg8
(lp547
sg13
(lp548
S'chemistry'
p549
asg16
F0.6
sg17
F1503436269.897
sg19
(lp550
(lp551
F1503436269.897
ag545
aF0.6
aasbsI60
(imyfunction
mondai
p552
(dp553
g3
S'2017-08-24 07:46:08'
p554
sg5
F0.019155275947399582
sg6
S'60.png'
p555
sg8
(lp556
sg13
(lp557
S'chemistry'
p558
asg16
F0.0
sg17
F1503528368.119
sg19
(lp559
(lp560
F1503528368.119
ag554
aF0.0
aasbsI61
(imyfunction
mondai
p561
(dp562
g3
S'2017-08-26 23:58:55'
p563
sg5
F0.2781407308977898
sg6
S'61.png'
p564
sg8
(lp565
sg13
(lp566
S'chemistry'
p567
asg16
F0.0
sg17
F1503759535.555
sg19
(lp568
(lp569
F1503759535.555
ag563
aF0.0
aasbsI62
(imyfunction
mondai
p570
(dp571
g3
S'2017-08-27 00:05:08'
p572
sg5
F0.2793446716623606
sg6
S'62.png'
p573
sg8
(lp574
S'\xa5\xa6 u'
p575
asg13
(lp576
S'chemistry'
p577
asg16
F0.0
sg17
F1503759908.733
sg19
(lp578
(lp579
F1503759908.733
ag572
aF0.0
aasbsI63
(imyfunction
mondai
p580
(dp581
g3
S'2017-08-27 00:13:58'
p582
sg5
F0.2810637743103346
sg6
S'63.png'
p583
sg8
(lp584
sg13
(lp585
S'chemistry'
p586
asg16
F0.0
sg17
F1503760438.814
sg19
(lp587
(lp588
F1503760438.814
ag582
aF0.0
aasbsI64
(imyfunction
mondai
p589
(dp590
g3
S'2017-08-27 00:27:17'
p591
sg5
F0.28367330512290756
sg6
S'64.png'
p592
sg8
(lp593
sg13
(lp594
S'chemistry'
p595
asg16
F0.0
sg17
F1503761237.292
sg19
(lp596
(lp597
F1503761237.292
ag591
aF0.0
aasbsI65
(imyfunction
mondai
p598
(dp599
g3
S'2017-08-27 01:00:38'
p600
sg5
F0.290321397803288
sg6
S'65.png'
p601
sg8
(lp602
sg13
(lp603
S'chemistry'
p604
asg16
F0.0
sg17
F1503763238.777
sg19
(lp605
(lp606
F1503763238.777
ag600
aF0.0
aasbsI66
(imyfunction
mondai
p607
(dp608
g3
S'2017-08-27 01:18:25'
p609
sg5
F0.6014377493892846
sg6
S'66.png'
p610
sg8
(lp611
sg13
(lp612
S'chemistry'
p613
asg16
F0.8
sg17
F1503764305.612
sg19
(lp614
(lp615
F1503764305.612
ag609
aF0.8
aasbsI67
(imyfunction
mondai
p616
(dp617
g3
S'2017-08-27 04:40:16'
p618
sg5
F0.5707187364494728
sg6
S'67.png'
p619
sg8
(lp620
sg13
(lp621
S'chemistry'
p622
asg16
F0.6
sg17
F1503776416.902
sg19
(lp623
(lp624
F1503776416.902
ag618
aF0.6
aasbsI68
(imyfunction
mondai
p625
(dp626
g3
S'2017-08-27 05:25:58'
p627
sg5
F0.34906028051743987
sg6
S'68.png'
p628
sg8
(lp629
sg13
(lp630
S'chemistry'
p631
asg16
F0.0
sg17
F1503779158.5
sg19
(lp632
(lp633
F1503779158.5
ag627
aF0.0
aasbsI69
(imyfunction
mondai
p634
(dp635
g3
S'2017-08-27 06:56:25'
p636
sg5
F0.37168776346319893
sg6
S'69.png'
p637
sg8
(lp638
sg13
(lp639
S'chemistry'
p640
asg16
F0.0
sg17
F1503784585.243
sg19
(lp641
(lp642
F1503784585.243
ag636
aF0.0
aasbsI70
(imyfunction
mondai
p643
(dp644
g3
S'2017-08-28 06:45:11'
p645
sg5
F0.0
sg6
S'70.png'
p646
sg8
(lp647
sg13
(lp648
S'chemistry'
p649
asg16
F0.0
sg17
F1503870311.11
sg18
I2
sg19
(lp650
(lp651
F1503870311.11
ag645
aF0.0
aasbs.