(dp0
I1
(imyfunction
mondai
p1
(dp2
S'wordtime'
p3
S'2017-10-05 19:17:13'
p4
sS'remember'
p5
F4.020437683094379e-05
sS'imgnum'
p6
S'1.png'
p7
sS'memo'
p8
(lp9
(lp10
F1498515733.947
aS'2017-06-27 07:22:13'
p11
aS'answer 3'
p12
aasS'tag'
p13
(lp14
S'chemistry'
p15
asS'understand'
p16
F0.9993169534109716
sS'lasttime'
p17
F1507198633.675
sS'qusnum'
p18
I1
sS'history'
p19
(lp20
(lp21
F1498515733.947
ag11
aI0
aa(lp22
F1499145499.01
aS'2017-07-04 14:18:19'
p23
aI1
aa(lp24
F1507198633.675
ag4
aF0.0
aasbsI2
(imyfunction
mondai
p25
(dp26
g3
S'2017-10-01 21:56:41'
p27
sg5
F1.0948165119257046e-05
sg6
S'2.jpg'
p28
sg8
(lp29
S'answer is 3'
p30
aS'0'
p31
asg13
(lp32
g15
asg16
F0.9990451863019874
sg17
F1506862601.36
sg19
(lp33
(lp34
F1498545603.881
aS'2017-06-27 15:40:03'
p35
aI0
aa(lp36
F1499146428.99
aS'2017-07-04 14:33:48'
p37
aI0
aa(lp38
F1506862601.36
ag27
aF1.0
aasbsI3
(imyfunction
mondai
p39
(dp40
g3
S'2017-10-06 11:30:14'
p41
sg5
F5.074413484140561e-05
sg6
S'3.jpg'
p42
sg8
(lp43
S'answer is 5'
p44
asg13
(lp45
g15
asg16
F0.9999994937209005
sg17
F1507257014.144
sg18
I1
sg19
(lp46
(lp47
F1498545806.078
aS'2017-06-27 15:43:26'
p48
aI0
aa(lp49
F1499798275.889
aS'2017-07-12 03:37:55'
p50
aI1
aa(lp51
F1507257014.144
ag41
aF0.0
aasbsI4
(imyfunction
mondai
p52
(dp53
g3
S'2017-10-06 11:32:06'
p54
sg5
F5.076619211225881e-05
sg6
S'4.jpg'
p55
sg8
(lp56
S'answer is 2'
p57
asg13
(lp58
g15
asg16
F0.9999994935591113
sg17
F1507257126.788
sg18
I1
sg19
(lp59
(lp60
F1498545978.31
aS'2017-06-27 15:46:18'
p61
aI0
aa(lp62
F1499798420.515
aS'2017-07-12 03:40:20'
p63
aI1
aa(lp64
F1507257126.788
ag54
aF0.0
aasbsI5
(imyfunction
mondai
p65
(dp66
g3
S'2017-10-06 11:32:40'
p67
sg5
F0.0370291320153681
sg6
S'5.jpg'
p68
sg8
(lp69
S'answer is 3'
p70
asg13
(lp71
g15
asg16
F1.9999994359480904
sg17
F1507257160.377
sg18
I1
sg19
(lp72
(lp73
F1498555372.608
aS'2017-06-27 18:22:52'
p74
aI0
aa(lp75
F1499798506.186
aS'2017-07-12 03:41:46'
p76
aI1
aa(lp77
F1507257160.377
ag67
aF1.0
aasbsI6
(imyfunction
mondai
p78
(dp79
g3
S'2017-10-06 11:35:03'
p80
sg5
F0.037035949474890556
sg6
S'6.jpg'
p81
sg8
(lp82
S'answer is 5'
p83
asg13
(lp84
g15
asg16
F1.999999434604304
sg17
F1507257303.532
sg18
I1
sg19
(lp85
(lp86
F1498555731.783
aS'2017-06-27 18:28:51'
p87
aI0
aa(lp88
F1499798659.768
aS'2017-07-12 03:44:19'
p89
aI1
aa(lp90
F1507257303.532
ag80
aF1.0
aasbsI7
(imyfunction
mondai
p91
(dp92
g3
S'2017-10-06 11:36:30'
p93
sg5
F0.03704004602147142
sg6
S'7.jpg'
p94
sg8
(lp95
S'answer is 1'
p96
asg13
(lp97
g15
asg16
F1.9999989826526265
sg17
F1507257390.81
sg18
I1
sg19
(lp98
(lp99
F1498606533.242
aS'2017-06-28 08:35:33'
p100
aI0
aa(lp101
F1499798707.42
aS'2017-07-12 03:45:07'
p102
aI1
aa(lp103
F1507257390.81
ag93
aF1.0
aasbsI8
(imyfunction
mondai
p104
(dp105
g3
S'2017-10-06 11:37:55'
p106
sg5
F0.03704404576046019
sg6
S'8.jpg'
p107
sg8
(lp108
S'answer is 4'
p109
asg13
(lp110
g15
asg16
F1.9999988380450375
sg17
F1507257475.181
sg18
I1
sg19
(lp111
(lp112
F1498618047.081
aS'2017-06-28 11:47:27'
p113
aI0
aa(lp114
F1499798738.24
aS'2017-07-12 03:45:38'
p115
aI1
aa(lp116
F1507257475.181
ag106
aF1.0
aasbsI9
(imyfunction
mondai
p117
(dp118
g3
S'2017-10-01 21:43:25'
p119
sg5
F1.1046109682261373e-05
sg6
S'9.jpg'
p120
sg8
(lp121
S'answer is 2'
p122
asg13
(lp123
g15
asg16
F1.0
sg17
F1506861805.88
sg19
(lp124
(lp125
F1498631047.991
aS'2017-06-28 15:24:07'
p126
aI0
aa(lp127
F1506861805.88
ag119
aF1.0
aasbsI10
(imyfunction
mondai
p128
(dp129
g3
S'2017-10-01 21:52:59'
p130
sg5
F1.1070597696814834e-05
sg6
S'10.jpg'
p131
sg8
(lp132
S'answer is 4'
p133
aS'0'
p134
asg13
(lp135
g15
asg16
F1.0
sg17
F1506862379.862
sg19
(lp136
(lp137
F1498631158.414
aS'2017-06-28 15:25:58'
p138
aI0
aa(lp139
F1506862379.862
ag130
aF1.0
aasbsI11
(imyfunction
mondai
p140
(dp141
g3
S'2017-10-01 22:03:45'
p142
sg5
F6.331214319801753e-08
sg6
S'11.jpg'
p143
sg8
(lp144
(lp145
F1499144054.099
aS'2017-07-04 13:54:14'
p146
aS'answer 2,3,2'
p147
aasg13
(lp148
g15
asg16
F0.66
sg17
F1506863025.03
sg19
(lp149
(lp150
F1499144054.099
ag146
aI0
aa(lp151
F1506863025.03
ag142
aF0.66
aasbsI12
(imyfunction
mondai
p152
(dp153
g3
S'2017-10-01 22:10:11'
p154
sg5
F1.1114737811485426e-05
sg6
S'12.jpg'
p155
sg8
(lp156
(lp157
F1499144401.683
aS'2017-07-04 14:00:01'
p158
aS'answer 3'
p159
aasg13
(lp160
g15
asg16
F1.0
sg17
F1506863411.276
sg19
(lp161
(lp162
F1499144401.683
ag158
aI0
aa(lp163
F1506863411.276
ag154
aF1.0
aasbsI13
(imyfunction
mondai
p164
(dp165
g3
S'2017-10-02 00:01:23'
p166
sg5
F1.2672701232315106e-05
sg6
S'13.jpg'
p167
sg8
(lp168
(lp169
F1499144716.146
aS'2017-07-04 14:05:16'
p170
aS'answer 3'
p171
aasg13
(lp172
g15
asg16
F1.0084715513436913
sg17
F1506870083.757
sg18
I1
sg19
(lp173
F1499144716.146
ag170
aI0
a(lp174
F1506870083.757
ag166
aF1.0
aasbsI14
(imyfunction
mondai
p175
(dp176
g3
S'2017-10-01 22:21:15'
p177
sg5
F1.1143251121251592e-05
sg6
S'14.jpg'
p178
sg8
(lp179
sg13
(lp180
S'math'
p181
asg16
F1.0
sg17
F1506864075.366
sg19
(lp182
(lp183
F1499153099.088
aS'2017-07-04 16:24:59'
p184
aI0
aa(lp185
F1506864075.366
ag177
aF1.0
aasbsI15
(imyfunction
mondai
p186
(dp187
g3
S'2017-10-01 22:37:19'
p188
sg5
F1.1184772755882168e-05
sg6
S'15.png'
p189
sg8
(lp190
sg13
(lp191
g181
asg16
F1.0
sg17
F1506865039.394
sg18
I1
sg19
(lp192
(lp193
F1499166125.188
aS'2017-07-04 20:02:05'
p194
aI0
aa(lp195
F1506865039.394
ag188
aF1.0
aasbsI16
(imyfunction
mondai
p196
(dp197
g3
S'2017-10-09 16:39:54'
p198
sg5
F1.9186478309291751e-07
sg6
S'16.png'
p199
sg8
(lp200
S'\xbb\xad\xcd\xbc\xba\xf3\xd5\xd2\xbd\xbb\xb5\xe3'
p201
asg13
(lp202
S'math'
p203
asg16
F0.48845452687743035
sg17
F1507534794.363
sg18
I1
sg19
(lp204
(lp205
F1499170126.383
aS'2017-07-04 21:08:46'
p206
aI0
aa(lp207
F1506867140.211
aS'2017-10-01 23:12:20'
p208
aF0.5
aa(lp209
F1507534794.363
ag198
aF0.0
aasbsI17
(imyfunction
mondai
p210
(dp211
g3
S'2017-10-01 23:20:09'
p212
sg5
F1.1296245122977436e-05
sg6
S'17.jpg'
p213
sg8
(lp214
S'answer is 4'
p215
asg13
(lp216
S'chemistry'
p217
asg16
F1.0
sg17
F1506867609.907
sg18
I1
sg19
(lp218
(lp219
F1499177974.623
aS'2017-07-04 23:19:34'
p220
aI0
aa(lp221
F1506867609.907
ag212
aF1.0
aasbsI18
(imyfunction
mondai
p222
(dp223
g3
S'2017-10-01 23:48:15'
p224
sg5
F1.136994781096145e-05
sg6
S'18.jpg'
p225
sg8
(lp226
S'answer is 1'
p227
asg13
(lp228
g217
asg16
F1.0
sg17
F1506869295.572
sg18
I1
sg19
(lp229
(lp230
F1499178166.958
aS'2017-07-04 23:22:46'
p231
aI0
aa(lp232
F1506869295.572
ag224
aF1.0
aasbsI19
(imyfunction
mondai
p233
(dp234
g3
S'2017-10-09 16:22:53'
p235
sg5
F3.1728759604198183e-12
sg6
S'19.jpg'
p236
sg8
(lp237
sg13
(lp238
g203
asg16
F-0.0004638525900832135
sg17
F1507533773.486
sg18
I1
sg19
(lp239
(lp240
F1499238201.632
aS'2017-07-05 16:03:21'
p241
aI0
aa(lp242
F1506870571.946
aS'2017-10-02 00:09:31'
p243
aF0.0
aa(lp244
F1507533773.486
ag235
aF0.0
aasbsI20
(imyfunction
mondai
p245
(dp246
g3
S'2017-10-02 23:12:05'
p247
sg5
F0.00013942553984902292
sg6
S'20.jpg'
p248
sg8
(lp249
sg13
(lp250
g203
asg16
F1.2
sg17
F1506953525.889
sg18
I9
sg19
(lp251
(lp252
F1499509485.541
aS'2017-07-08 19:24:45'
p253
aF0.2
aa(lp254
F1506953525.889
ag247
aF1.0
aasbsI21
(imyfunction
mondai
p255
(dp256
g3
S'2017-10-03 01:07:00'
p257
sg5
F1.6159954366941868e-05
sg6
S'21.jpg'
p258
sg8
(lp259
sg13
(lp260
g217
asg16
F1.0
sg17
F1506960420.575
sg18
I2
sg19
(lp261
(lp262
F1499516368.113
aS'2017-07-08 21:19:28'
p263
aF0.5
aa(lp264
F1506960420.575
ag257
aF0.5
aasbsI22
(imyfunction
mondai
p265
(dp266
g3
S'2017-11-01 16:33:08'
p267
sg5
F0.03156294619469716
sg6
S'22.jpg'
p268
sg8
(lp269
sg13
(lp270
g217
asg16
F-4.7330904540662766e-14
sg17
F1509521588.869
sg18
I1
sg19
(lp271
(lp272
F1499530900.691
aS'2017-07-09 01:21:40'
p273
aI0
aa(lp274
F1506870697.511
aS'2017-10-02 00:11:37'
p275
aF0.0
aa(lp276
F1509521588.869
ag267
aF0.0
aasbsI23
(imyfunction
mondai
p277
(dp278
g3
S'2017-11-04 21:09:48'
p279
sg5
F0.9158703082066467
sg6
S'23.jpg'
p280
sg8
(lp281
sg13
(lp282
g217
asg16
F0.999999999999998
sg17
F1509797388.893
sg18
I1
sg19
(lp283
(lp284
F1499530950.137
aS'2017-07-09 01:22:30'
p285
aI0
aa(lp286
F1506870960.973
aS'2017-10-02 00:16:00'
p287
aF0.0
aa(lp288
F1509797388.893
ag279
aF1.0
aasbsI24
(imyfunction
mondai
p289
(dp290
g3
S'2017-10-02 00:20:08'
p291
sg5
F1.1454175134539435e-05
sg6
S'24.jpg'
p292
sg8
(lp293
sg13
(lp294
S'chemistry'
p295
asg16
F1.0
sg17
F1506871208.62
sg18
I1
sg19
(lp296
(lp297
F1499547136.371
aS'2017-07-09 05:52:16'
p298
aI0
aa(lp299
F1506871208.62
ag291
aF1.0
aasbsI25
(imyfunction
mondai
p300
(dp301
g3
S'2017-11-04 21:12:20'
p302
sg5
F0.9164050717577411
sg6
S'25.jpg'
p303
sg8
(lp304
sg13
(lp305
g295
asg16
F0.999999999999998
sg17
F1509797540.192
sg18
I1
sg19
(lp306
(lp307
F1499547377.744
aS'2017-07-09 05:56:17'
p308
aI0
aa(lp309
F1506871351.16
aS'2017-10-02 00:22:31'
p310
aF0.0
aa(lp311
F1509797540.192
ag302
aF1.0
aasbsI26
(imyfunction
mondai
p312
(dp313
g3
S'2017-11-04 21:13:38'
p314
sg5
F0.91668196903032
sg6
S'26.jpg'
p315
sg8
(lp316
sg13
(lp317
g295
asg16
F0.999999999999998
sg17
F1509797618.499
sg18
I1
sg19
(lp318
(lp319
F1499547423.422
aS'2017-07-09 05:57:03'
p320
aI0
aa(lp321
F1506871509.021
aS'2017-10-02 00:25:09'
p322
aF0.0
aa(lp323
F1509797618.499
ag314
aF1.0
aasbsI27
(imyfunction
mondai
p324
(dp325
g3
S'2017-10-02 00:29:55'
p326
sg5
F1.148011706405796e-05
sg6
S'27.jpg'
p327
sg8
(lp328
sg13
(lp329
g295
asg16
F1.0
sg17
F1506871795.004
sg18
I1
sg19
(lp330
(lp331
F1499547463.182
aS'2017-07-09 05:57:43'
p332
aI0
aa(lp333
F1506871795.004
ag326
aF1.0
aasbsI28
(imyfunction
mondai
p334
(dp335
g3
S'2017-10-02 00:31:26'
p336
sg5
F1.1484149055797357e-05
sg6
S'28.jpg'
p337
sg8
(lp338
sg13
(lp339
g295
asg16
F1.0
sg17
F1506871886.023
sg18
I1
sg19
(lp340
(lp341
F1499616196.736
aS'2017-07-10 01:03:16'
p342
aI0
aa(lp343
F1506871886.023
ag336
aF1.0
aasbsI29
(imyfunction
mondai
p344
(dp345
g3
S'2017-10-05 01:19:58'
p346
sg5
F0.0034704962728813343
sg6
S'29.jpg'
p347
sg8
(lp348
sg13
(lp349
S'math'
p350
asg16
F1.55
sg17
F1507133998.435
sg18
I5
sg19
(lp351
(lp352
F1499616732.384
aS'2017-07-10 01:12:12'
p353
aF0.75
aa(lp354
F1507133998.435
ag346
aF0.8
aasbsI30
(imyfunction
mondai
p355
(dp356
g3
S'2017-10-02 00:32:05'
p357
sg5
F1.1485893653574604e-05
sg6
S'30.png'
p358
sg8
(lp359
sg13
(lp360
g295
asg16
F1.0
sg17
F1506871925.396
sg18
I1
sg19
(lp361
(lp362
F1499680704.857
aS'2017-07-10 18:58:24'
p363
aI0
aa(lp364
F1506871925.396
ag357
aF1.0
aasbsI31
(imyfunction
mondai
p365
(dp366
g3
S'2017-10-03 00:04:06'
p367
sg5
F4.848762557788176e-07
sg6
S'31.jpg'
p368
sg8
(lp369
sg13
(lp370
g350
asg16
F0.75
sg17
F1506956646.764
sg18
I10
sg19
(lp371
(lp372
F1499797297.774
aS'2017-07-12 03:21:37'
p373
aF0.45
aa(lp374
F1506956646.764
ag367
aF0.3
aasbsI32
(imyfunction
mondai
p375
(dp376
g3
S'2017-10-02 22:55:47'
p377
sg5
F1.0341222297943348e-06
sg6
S'32.jpg'
p378
sg8
(lp379
sg13
(lp380
g350
asg16
F0.8
sg17
F1506952547.162
sg18
I4
sg19
(lp381
(lp382
F1499797470.167
aS'2017-07-12 03:24:30'
p383
aF0.05
aa(lp384
F1506952547.162
ag377
aF0.75
aasbsI33
(imyfunction
mondai
p385
(dp386
g3
S'2017-10-02 22:33:57'
p387
sg5
F1.559745910715243e-05
sg6
S'33.jpg'
p388
sg8
(lp389
sg13
(lp390
S'physics'
p391
asg16
F1.0
sg17
F1506951237.584
sg18
I1
sg19
(lp392
(lp393
F1500064604.639
aS'2017-07-15 05:36:44'
p394
aI0
aa(lp395
F1506951237.584
ag387
aF1.0
aasbsI34
(imyfunction
mondai
p396
(dp397
g3
S'2017-10-03 01:17:02'
p398
sg5
F1.3292085341080346e-13
sg6
S'34.jpg'
p399
sg8
(lp400
sg13
(lp401
S'physical'
p402
asg16
F0.1
sg17
F1506961022.079
sg18
I9
sg19
(lp403
(lp404
F1502980173.751
aS'2017-08-17 23:29:33'
p405
aF0.0
aa(lp406
F1506961022.079
ag398
aF0.1
aasbsI35
(imyfunction
mondai
p407
(dp408
g3
S'2017-10-06 17:28:34'
p409
sg5
F0.003477791873759605
sg6
S'35.jpeg'
p410
sg8
(lp411
sg13
(lp412
S'physical'
p413
asg16
F1.49999999999965
sg17
F1507278514.74
sg18
I2
sg19
(lp414
(lp415
F1502986373.885
aS'2017-08-18 01:12:53'
p416
aF0.5
aa(lp417
F1507278514.74
ag409
aF1.0
aasbsI36
(imyfunction
mondai
p418
(dp419
g3
S'2017-11-05 03:29:36'
p420
sg5
F1.3328421240869736e-15
sg6
S'36.jpeg'
p421
sg8
(lp422
sg13
(lp423
S'physical'
p424
asg16
F0.7499999999999987
sg17
F1509820176.122
sg18
I0
sg19
(lp425
(lp426
F1503074370.742
aS'2017-08-19 01:39:30'
p427
aF0.75
aa(lp428
F1509820176.122
ag420
aF0.0
aasbsI37
(imyfunction
mondai
p429
(dp430
g3
S'2017-10-06 20:27:41'
p431
sg5
F1.849224558833369e-05
sg6
S'37.jpeg'
p432
sg8
(lp433
sg13
(lp434
S'physical'
p435
asg16
F0.8999999999889152
sg17
F1507289261.527
sg18
I3
sg19
(lp436
(lp437
F1503075931.234
aS'2017-08-19 02:05:31'
p438
aF0.6
aa(lp439
F1507289261.527
ag431
aF0.3
aasbsI38
(imyfunction
mondai
p440
(dp441
g3
S'2017-08-19 03:13:53'
p442
sg5
F8.5444584300403e-15
sg6
S'38.jpeg'
p443
sg8
(lp444
sg13
(lp445
S'physical'
p446
asg16
F0.8
sg17
F1503080033.486
sg19
(lp447
(lp448
F1503080033.486
ag442
aF0.8
aasbsI39
(imyfunction
mondai
p449
(dp450
g3
S'2017-08-19 03:42:09'
p451
sg5
F1.3836450694494796e-15
sg6
S'39.jpeg'
p452
sg8
(lp453
sg13
(lp454
S'physical'
p455
asg16
F0.75
sg17
F1503081729.58
sg19
(lp456
(lp457
F1503081729.58
ag451
aF0.75
aasbsI40
(imyfunction
mondai
p458
(dp459
g3
S'2017-08-19 03:59:08'
p460
sg5
F2.5144969606305976e-13
sg6
S'40.jpeg'
p461
sg8
(lp462
sg13
(lp463
S'physical'
p464
asg16
F0.9
sg17
F1503082748.531
sg19
(lp465
(lp466
F1503082748.531
ag460
aF0.9
aasbsI41
(imyfunction
mondai
p467
(dp468
g3
S'2017-10-06 20:44:43'
p469
sg5
F2.6419824597198464e-07
sg6
S'41.jpg'
p470
sg8
(lp471
sg13
(lp472
S'physical'
p473
asg16
F0.5999999999734331
sg17
F1507290283.108
sg18
I2
sg19
(lp474
(lp475
F1503222950.967
aS'2017-08-20 18:55:50'
p476
aF0.6
aa(lp477
F1507290283.108
ag469
aF0.0
aasbsI42
(imyfunction
mondai
p478
(dp479
g3
S'2017-10-05 01:55:43'
p480
sg5
F1.4787420940482393e-11
sg6
S'42.jpg'
p481
sg8
(lp482
sg13
(lp483
S'physical'
p484
asg16
F0.19999999999999984
sg17
F1507136143.167
sg18
I4
sg19
(lp485
(lp486
F1503226800.354
aS'2017-08-20 20:00:00'
p487
aF0.2
aa(lp488
F1507136143.167
ag480
aF0.0
aasbsI43
(imyfunction
mondai
p489
(dp490
g3
S'2017-10-03 01:20:37'
p491
sg5
F4.2601900314053954e-15
sg6
S'43.png'
p492
sg8
(lp493
sg13
(lp494
S'chemistry'
p495
asg16
F-1.8098353944148892e-19
sg17
F1506961237.95
sg18
I1
sg19
(lp496
(lp497
F1503232569.843
aS'2017-08-20 21:36:09'
p498
aF0.0
aa(lp499
F1506961237.95
ag491
aF0.0
aasbsI44
(imyfunction
mondai
p500
(dp501
g3
S'2017-10-06 18:17:47'
p502
sg5
F4.2902245763154065e-08
sg6
S'44.png'
p503
sg8
(lp504
sg13
(lp505
S'chemistry'
p506
asg16
F0.49999999999820877
sg17
F1507281467.536
sg18
I1
sg19
(lp507
(lp508
F1503233740.794
aS'2017-08-20 21:55:40'
p509
aF0.5
aa(lp510
F1507281467.536
ag502
aF0.0
aasbsI45
(imyfunction
mondai
p511
(dp512
g3
S'2017-10-03 01:24:41'
p513
sg5
F4.2722394630471136e-15
sg6
S'45.png'
p514
sg8
(lp515
sg13
(lp516
S'chemistry'
p517
asg16
F-2.0662316017965216e-19
sg17
F1506961481.977
sg18
I1
sg19
(lp518
(lp519
F1503244261.055
aS'2017-08-21 00:51:01'
p520
aF0.0
aa(lp521
F1506961481.977
ag513
aF0.0
aasbsI46
(imyfunction
mondai
p522
(dp523
g3
S'2017-10-08 14:44:51'
p524
sg5
F5.685458694357127e-06
sg6
S'46.png'
p525
sg8
(lp526
S'answer is 7'
p527
asg13
(lp528
S'chemistry'
p529
asg16
F0.7499999994412296
sg17
F1507441491.578
sg18
I1
sg19
(lp530
(lp531
F1503245428.763
aS'2017-08-21 01:10:28'
p532
aF0.75
aa(lp533
F1507441491.578
ag524
aF0.0
aasbsI47
(imyfunction
mondai
p534
(dp535
g3
S'2017-10-03 01:43:06'
p536
sg5
F4.3272135541879345e-15
sg6
S'47.png'
p537
sg8
(lp538
sg13
(lp539
S'chemistry'
p540
asg16
F-2.0990110472453477e-19
sg17
F1506962586.658
sg18
I1
sg19
(lp541
(lp542
F1503246725.658
aS'2017-08-21 01:32:05'
p543
aF0.0
aa(lp544
F1506962586.658
ag536
aF0.0
aasbsI48
(imyfunction
mondai
p545
(dp546
g3
S'2017-10-03 01:46:05'
p547
sg5
F4.336195269875131e-15
sg6
S'48.png'
p548
sg8
(lp549
sg13
(lp550
S'chemistry'
p551
asg16
F-2.1089833665454635e-19
sg17
F1506962765.807
sg18
I1
sg19
(lp552
(lp553
F1503247314.318
aS'2017-08-21 01:41:54'
p554
aF0.0
aa(lp555
F1506962765.807
ag547
aF0.0
aasbsI49
(imyfunction
mondai
p556
(dp557
g3
S'2017-10-03 02:01:29'
p558
sg5
F1.636507901454166e-05
sg6
S'49.png'
p559
sg8
(lp560
sg13
(lp561
S'chemistry'
p562
asg16
F1.0
sg17
F1506963689.996
sg18
I0
sg19
(lp563
(lp564
F1503255138.538
aS'2017-08-21 03:52:18'
p565
aF0.0
aa(lp566
F1506963689.996
ag558
aF1.0
aasbsI50
(imyfunction
mondai
p567
(dp568
g3
S'2017-10-03 02:28:01'
p569
sg5
F4.4642977687364176e-15
sg6
S'50.png'
p570
sg8
(lp571
sg13
(lp572
S'chemistry'
p573
asg16
F-2.621417900670252e-19
sg17
F1506965281.311
sg18
I1
sg19
(lp574
(lp575
F1503268622.629
aS'2017-08-21 07:37:02'
p576
aF0.0
aa(lp577
F1506965281.311
ag569
aF0.0
aasbsI51
(imyfunction
mondai
p578
(dp579
g3
S'2017-10-06 18:22:55'
p580
sg5
F5.5831228032648185e-05
sg6
S'51.jpg'
p581
sg8
(lp582
sg13
(lp583
S'chemistry'
p584
asg16
F0.9999999999977303
sg17
F1507281775.99
sg18
I2
sg19
(lp585
(lp586
F1503269475.48
aS'2017-08-21 07:51:15'
p587
aF0.5
aa(lp588
F1507281775.99
ag580
aF0.5
aasbsI52
(imyfunction
mondai
p589
(dp590
g3
S'2017-10-08 14:35:09'
p591
sg5
F0.014203914487073109
sg6
S'52.jpg'
p592
sg8
(lp593
sg13
(lp594
S'chemistry'
p595
asg16
F1.699999999808111
sg17
F1507440909.042
sg18
I2
sg19
(lp596
(lp597
F1503269869.663
aS'2017-08-21 07:57:49'
p598
aF0.7
aa(lp599
F1507440909.042
ag591
aF1.0
aasbsI53
(imyfunction
mondai
p600
(dp601
g3
S'2017-10-06 18:10:27'
p602
sg5
F0.0003844451540196928
sg6
S'53.png'
p603
sg8
(lp604
sg13
(lp605
S'math'
p606
asg16
F1.1999999999991968
sg17
F1507281027.181
sg18
I4
sg19
(lp607
(lp608
F1503336047.871
aS'2017-08-22 02:20:47'
p609
aF0.45
aa(lp610
F1507281027.181
ag602
aF0.75
aasbsI54
(imyfunction
mondai
p611
(dp612
g3
S'2017-10-12 17:14:13'
p613
sg5
F4.7276011892721435e-06
sg6
S'54.png'
p614
sg8
(lp615
sg13
(lp616
S'math'
p617
asg16
F0.5892772470714089
sg17
F1507796053.214
sg18
I6
sg19
(lp618
(lp619
F1503352854.527
aS'2017-08-22 07:00:54'
p620
aF0.1
aa(lp621
F1507038521.394
aS'2017-10-03 22:48:41'
p622
aF0.5
aa(lp623
F1507796053.214
ag613
aF0.0
aasbsI55
(imyfunction
mondai
p624
(dp625
g3
S'2017-10-03 12:44:19'
p626
sg5
F6.112409260471774e-07
sg6
S'55.jpg'
p627
sg8
(lp628
sg13
(lp629
S'physical'
p630
asg16
F0.75
sg17
F1507002259.751
sg18
I4
sg19
(lp631
(lp632
F1503367103.179
aS'2017-08-22 10:58:23'
p633
aF0.0
aa(lp634
F1507002259.751
ag626
aF0.75
aasbsI56
(imyfunction
mondai
p635
(dp636
g3
S'2017-10-05 20:11:01'
p637
sg5
F3.304372356362914e-09
sg6
S'56.png'
p638
sg8
(lp639
sg13
(lp640
S'chemistry'
p641
asg16
F0.39999999999961466
sg17
F1507201861.287
sg18
I5
sg19
(lp642
(lp643
F1503369253.09
aS'2017-08-22 11:34:13'
p644
aF0.4
aa(lp645
F1507201861.287
ag637
aF0.0
aasbsI57
(imyfunction
mondai
p646
(dp647
g3
S'2017-10-06 18:46:09'
p648
sg5
F9.471374035462945e-05
sg6
S'57.png'
p649
sg8
(lp650
sg13
(lp651
S'chemistry'
p652
asg16
F1.0499999999955751
sg17
F1507283169.396
sg18
I11
sg19
(lp653
(lp654
F1503370774.163
aS'2017-08-22 11:59:34'
p655
aF0.5
aa(lp656
F1507283169.396
ag648
aF0.55
aasbsI58
(imyfunction
mondai
p657
(dp658
g3
S'2017-10-06 20:00:56'
p659
sg5
F4.4713667033208544e-08
sg6
S'58.png'
p660
sg8
(lp661
sg13
(lp662
S'chemistry'
p663
asg16
F0.4999999999944683
sg17
F1507287656.284
sg18
I4
sg19
(lp664
(lp665
F1503408670.508
aS'2017-08-22 22:31:10'
p666
aF0.5
aa(lp667
F1507287656.284
ag659
aF0.0
aasbsI59
(imyfunction
mondai
p668
(dp669
g3
S'2017-10-08 14:29:04'
p670
sg5
F0.000267744608939893
sg6
S'59.png'
p671
sg8
(lp672
sg13
(lp673
S'chemistry'
p674
asg16
F1.0999999999612475
sg17
F1507440544.214
sg18
I6
sg19
(lp675
(lp676
F1503436269.897
aS'2017-08-23 06:11:09'
p677
aF0.6
aa(lp678
F1507440544.214
ag670
aF0.5
aasbsI60
(imyfunction
mondai
p679
(dp680
g3
S'2017-10-03 22:14:47'
p681
sg5
F1.017830236254731e-14
sg6
S'60.png'
p682
sg8
(lp683
sg13
(lp684
S'chemistry'
p685
asg16
F-2.3240177672528205e-18
sg17
F1507036487.553
sg18
I1
sg19
(lp686
(lp687
F1503528368.119
aS'2017-08-24 07:46:08'
p688
aF0.0
aa(lp689
F1507036487.553
ag681
aF0.0
aasbsI61
(imyfunction
mondai
p690
(dp691
g3
S'2017-10-03 22:53:48'
p692
sg5
F2.1868210586859218e-05
sg6
S'61.png'
p693
sg8
(lp694
sg13
(lp695
S'chemistry'
p696
asg16
F1.0
sg17
F1507038828.001
sg18
I1
sg19
(lp697
(lp698
F1503759535.555
aS'2017-08-26 23:58:55'
p699
aF0.0
aa(lp700
F1507038828.001
ag692
aF1.0
aasbsI62
(imyfunction
mondai
p701
(dp702
g3
S'2017-10-03 22:58:11'
p703
sg5
F1.0489704635884837e-14
sg6
S'62.png'
p704
sg8
(lp705
S'\xa5\xa6 u'
p706
asg13
(lp707
S'chemistry'
p708
asg16
F-3.2885428981875427e-17
sg17
F1507039091.306
sg18
I1
sg19
(lp709
(lp710
F1503759908.733
aS'2017-08-27 00:05:08'
p711
aF0.0
aa(lp712
F1507039091.306
ag703
aF0.0
aasbsI63
(imyfunction
mondai
p713
(dp714
g3
S'2017-10-03 23:06:21'
p715
sg5
F1.0549405019102603e-14
sg6
S'63.png'
p716
sg8
(lp717
sg13
(lp718
S'chemistry'
p719
asg16
F-3.2900559759003024e-17
sg17
F1507039581.643
sg18
I1
sg19
(lp720
(lp721
F1503760438.814
aS'2017-08-27 00:13:58'
p722
aF0.0
aa(lp723
F1507039581.643
ag715
aF0.0
aasbsI64
(imyfunction
mondai
p724
(dp725
g3
S'2017-10-03 23:17:32'
p726
sg5
F1.0631677420936937e-14
sg6
S'64.png'
p727
sg8
(lp728
sg13
(lp729
S'chemistry'
p730
asg16
F-3.294906211238578e-17
sg17
F1507040252.843
sg18
I1
sg19
(lp731
(lp732
F1503761237.292
aS'2017-08-27 00:27:17'
p733
aF0.0
aa(lp734
F1507040252.843
ag726
aF0.0
aasbsI65
(imyfunction
mondai
p735
(dp736
g3
S'2017-10-04 01:24:08'
p737
sg5
F1.1608598334464524e-14
sg6
S'65.png'
p738
sg8
(lp739
sg13
(lp740
S'chemistry'
p741
asg16
F-3.088343801126597e-17
sg17
F1507047848.101
sg18
I1
sg19
(lp742
(lp743
F1503763238.777
aS'2017-08-27 01:00:38'
p744
aF0.0
aa(lp745
F1507047848.101
ag737
aF0.0
aasbsI66
(imyfunction
mondai
p746
(dp747
g3
S'2017-10-08 16:06:47'
p748
sg5
F1.1101471125359776e-05
sg6
S'66.png'
p749
sg8
(lp750
sg13
(lp751
S'chemistry'
p752
asg16
F0.7999999793676873
sg17
F1507446407.946
sg18
I0
sg19
(lp753
(lp754
F1503764305.612
aS'2017-08-27 01:18:25'
p755
aF0.8
aa(lp756
F1507446407.946
ag748
aF0.0
aasbsI67
(imyfunction
mondai
p757
(dp758
g3
S'2017-10-08 14:43:04'
p759
sg5
F0.0002685233173068153
sg6
S'67.png'
p760
sg8
(lp761
sg13
(lp762
S'chemistry'
p763
asg16
F1.0999999997045067
sg17
F1507441384.391
sg18
I2
sg19
(lp764
(lp765
F1503776416.902
aS'2017-08-27 04:40:16'
p766
aF0.6
aa(lp767
F1507441384.391
ag759
aF0.5
aasbsI68
(imyfunction
mondai
p768
(dp769
g3
S'2017-10-04 01:29:36'
p770
sg5
F2.2671300660413856e-05
sg6
S'68.png'
p771
sg8
(lp772
sg13
(lp773
S'chemistry'
p774
asg16
F1.0
sg17
F1507048176.263
sg18
I2
sg19
(lp775
(lp776
F1503779158.5
aS'2017-08-27 05:25:58'
p777
aF0.0
aa(lp778
F1507048176.263
ag770
aF1.0
aasbsI69
(imyfunction
mondai
p779
(dp780
g3
S'2017-10-05 01:03:07'
p781
sg5
F3.109833019895325e-14
sg6
S'69.png'
p782
sg8
(lp783
sg13
(lp784
S'chemistry'
p785
asg16
F-1.475936158364671e-17
sg17
F1507132987.358
sg18
I1
sg19
(lp786
(lp787
F1503784585.243
aS'2017-08-27 06:56:25'
p788
aF0.0
aa(lp789
F1507132987.358
ag781
aF0.0
aasbsI70
(imyfunction
mondai
p790
(dp791
g3
S'2017-10-05 01:36:08'
p792
sg5
F3.181947723590104e-14
sg6
S'70.png'
p793
sg8
(lp794
sg13
(lp795
S'chemistry'
p796
asg16
F-3.8906083719910555e-17
sg17
F1507134968.032
sg18
I2
sg19
(lp797
(lp798
F1503870311.11
aS'2017-08-28 06:45:11'
p799
aF0.0
aa(lp800
F1507134968.032
ag792
aF0.0
aasbsI71
(imyfunction
mondai
p801
(dp802
g3
S'2017-10-05 01:41:30'
p803
sg5
F3.172767263772478e-05
sg6
S'71.jpg'
p804
sg8
(lp805
sg13
(lp806
S'chemistry'
p807
asg16
F1.0
sg17
F1507135290.64
sg18
I1
sg19
(lp808
(lp809
F1503879436.234
aS'2017-08-28 09:17:16'
p810
aF0.0
aa(lp811
F1507135290.64
ag803
aF1.0
aasbsI72
(imyfunction
mondai
p812
(dp813
g3
S'2017-10-05 12:25:33'
p814
sg5
F2.091250417327933e-08
sg6
S'72.png'
p815
sg8
(lp816
sg13
(lp817
S'chemistry'
p818
asg16
F0.4999999999999999
sg17
F1507173933.085
sg18
I2
sg19
(lp819
(lp820
F1504016042.217
aS'2017-08-29 23:14:02'
p821
aF0.0
aa(lp822
F1507173933.085
ag814
aF0.5
aasbsI73
(imyfunction
mondai
p823
(dp824
g3
S'2017-10-05 12:40:05'
p825
sg5
F3.695264344790724e-05
sg6
S'73.png'
p826
sg8
(lp827
sg13
(lp828
S'chemistry'
p829
asg16
F0.9999999999999999
sg17
F1507174805.144
sg18
I2
sg19
(lp830
(lp831
F1504016537.49
aS'2017-08-29 23:22:17'
p832
aF0.0
aa(lp833
F1507174805.144
ag825
aF1.0
aasbsI74
(imyfunction
mondai
p834
(dp835
g3
S'2017-10-05 13:00:30'
p836
sg5
F5.117932681265278e-14
sg6
S'74.jpg'
p837
sg8
(lp838
sg13
(lp839
S'chemistry'
p840
asg16
F-1.3365815349420956e-16
sg17
F1507176030.244
sg18
I1
sg19
(lp841
(lp842
F1504018002.57
aS'2017-08-29 23:46:42'
p843
aF0.0
aa(lp844
F1507176030.244
ag836
aF0.0
aasbsI75
(imyfunction
mondai
p845
(dp846
g3
S'2017-10-05 13:11:09'
p847
sg5
F5.155960240166793e-14
sg6
S'75.jpg'
p848
sg8
(lp849
sg13
(lp850
S'chemistry'
p851
asg16
F-1.3632074025443876e-16
sg17
F1507176669.845
sg18
I2
sg19
(lp852
(lp853
F1504020346.415
aS'2017-08-30 00:25:46'
p854
aF0.0
aa(lp855
F1507176669.845
ag847
aF0.0
aasbsI76
(imyfunction
mondai
p856
(dp857
g3
S'2017-10-05 13:13:53'
p858
sg5
F3.724288703943246e-05
sg6
S'76.png'
p859
sg8
(lp860
sg13
(lp861
S'chemistry'
p862
asg16
F0.9999999999999982
sg17
F1507176833.07
sg18
I1
sg19
(lp863
(lp864
F1504242498.728
aS'2017-09-01 14:08:18'
p865
aF0.0
aa(lp866
F1507176833.07
ag858
aF1.0
aasbsI77
(imyfunction
mondai
p867
(dp868
g3
S'2017-10-05 13:15:17'
p869
sg5
F5.170773355641034e-14
sg6
S'77.jpg'
p870
sg8
(lp871
sg13
(lp872
S'chemistry'
p873
asg16
F-1.785161182950008e-15
sg17
F1507176917.717
sg18
I1
sg19
(lp874
(lp875
F1504242836.989
aS'2017-09-01 14:13:56'
p876
aF0.0
aa(lp877
F1507176917.717
ag869
aF0.0
aasbsI78
(imyfunction
mondai
p878
(dp879
g3
S'2017-10-05 13:18:40'
p880
sg5
F3.7284254342873705e-05
sg6
S'78.png'
p881
sg8
(lp882
sg13
(lp883
S'chemistry'
p884
asg16
F0.9999999999999982
sg17
F1507177120.815
sg18
I2
sg19
(lp885
(lp886
F1504243511.051
aS'2017-09-01 14:25:11'
p887
aF0.0
aa(lp888
F1507177120.815
ag880
aF1.0
aasbsI79
(imyfunction
mondai
p889
(dp890
g3
S'2017-10-05 13:23:50'
p891
sg5
F3.7328882175889825e-05
sg6
S'79.jpg'
p892
sg8
(lp893
sg13
(lp894
S'chemistry'
p895
asg16
F0.9999999999999982
sg17
F1507177430.882
sg18
I1
sg19
(lp896
(lp897
F1504244940.738
aS'2017-09-01 14:49:00'
p898
aF0.0
aa(lp899
F1507177430.882
ag891
aF1.0
aasbsI80
(imyfunction
mondai
p900
(dp901
g3
S'2017-10-05 13:31:41'
p902
sg5
F3.7396729812867955e-05
sg6
S'80.jpg'
p903
sg8
(lp904
sg13
(lp905
S'chemistry'
p906
asg16
F0.9999999999999981
sg17
F1507177901.567
sg18
I1
sg19
(lp907
(lp908
F1504246658.078
aS'2017-09-01 15:17:38'
p909
aF0.0
aa(lp910
F1507177901.567
ag902
aF1.0
aasbsI81
(imyfunction
mondai
p911
(dp912
g3
S'2017-10-05 13:40:26'
p913
sg5
F5.2618594569760426e-14
sg6
S'81.png'
p914
sg8
(lp915
sg13
(lp916
S'chemistry'
p917
asg16
F-2.5723812036960078e-15
sg17
F1507178426.452
sg18
I1
sg19
(lp918
(lp919
F1504275909.657
aS'2017-09-01 23:25:09'
p920
aF0.0
aa(lp921
F1507178426.452
ag913
aF0.0
aasbsI82
(imyfunction
mondai
p922
(dp923
g3
S'2017-10-05 13:45:04'
p924
sg5
F5.278849625728487e-14
sg6
S'82.png'
p925
sg8
(lp926
sg13
(lp927
S'chemistry'
p928
asg16
F-2.623170979143293e-15
sg17
F1507178704.982
sg18
I1
sg19
(lp929
(lp930
F1504277877.469
aS'2017-09-01 23:57:57'
p931
aF0.0
aa(lp932
F1507178704.982
ag924
aF0.0
aasbsI83
(imyfunction
mondai
p933
(dp934
g3
S'2017-10-05 13:51:58'
p935
sg5
F5.304152752269822e-14
sg6
S'83.png'
p936
sg8
(lp937
sg13
(lp938
S'chemistry'
p939
asg16
F-2.6309049855391633e-15
sg17
F1507179118.134
sg18
I1
sg19
(lp940
(lp941
F1504278544.983
aS'2017-09-02 00:09:04'
p942
aF0.0
aa(lp943
F1507179118.134
ag935
aF0.0
aasbsI84
(imyfunction
mondai
p944
(dp945
g3
S'2017-10-08 14:58:31'
p946
sg5
F0.005009042132185961
sg6
S'84.png'
p947
sg8
(lp948
sg13
(lp949
S'chemistry'
p950
asg16
F1.4999999993144824
sg17
F1507442311.976
sg18
I4
sg19
(lp951
(lp952
F1504284587.342
aS'2017-09-02 01:49:47'
p953
aF0.5
aa(lp954
F1507442311.976
ag946
aF1.0
aasbsI85
(imyfunction
mondai
p955
(dp956
g3
S'2017-10-08 16:05:36'
p957
sg5
F0.005054144021974218
sg6
S'85.jpg'
p958
sg8
(lp959
sg13
(lp960
S'chemistry'
p961
asg16
F1.4999999993216577
sg17
F1507446336.252
sg18
I2
sg19
(lp962
(lp963
F1504287036.941
aS'2017-09-02 02:30:36'
p964
aF0.5
aa(lp965
F1507446336.252
ag957
aF1.0
aasbsI86
(imyfunction
mondai
p966
(dp967
g3
S'2017-10-06 20:39:14'
p968
sg5
F3.716447873371837e-05
sg6
S'86.png'
p969
sg8
(lp970
sg13
(lp971
S'chemistry'
p972
asg16
F0.959999999985973
sg17
F1507289954.953
sg18
I6
sg19
(lp973
(lp974
F1504287911.136
aS'2017-09-02 02:45:11'
p975
aF0.3
aa(lp976
F1507289954.953
ag968
aF0.66
aasbsI87
(imyfunction
mondai
p977
(dp978
g3
S'2017-10-05 14:00:49'
p979
sg5
F5.336871396789641e-14
sg6
S'87.png'
p980
sg8
(lp981
sg13
(lp982
S'chemistry'
p983
asg16
F-2.9523154222679466e-15
sg17
F1507179649.455
sg18
I1
sg19
(lp984
(lp985
F1504289034.929
aS'2017-09-02 03:03:54'
p986
aF0.0
aa(lp987
F1507179649.455
ag979
aF0.0
aasbsI88
(imyfunction
mondai
p988
(dp989
g3
S'2017-10-05 14:55:48'
p990
sg5
F5.544562863816826e-14
sg6
S'88.png'
p991
sg8
(lp992
sg13
(lp993
S'chemistry'
p994
asg16
F-3.0461961254892452e-15
sg17
F1507182948.05
sg18
I2
sg19
(lp995
(lp996
F1504295038.18
aS'2017-09-02 04:43:58'
p997
aF0.0
aa(lp998
F1507182948.05
ag990
aF0.0
aasbsI89
(imyfunction
mondai
p999
(dp1000
g3
S'2017-10-05 15:18:58'
p1001
sg5
F5.634484521661555e-14
sg6
S'89.jpg'
p1002
sg8
(lp1003
sg13
(lp1004
S'chemistry'
p1005
asg16
F-4.159729661901105e-15
sg17
F1507184338.043
sg18
I3
sg19
(lp1006
(lp1007
F1504323346.65
aS'2017-09-02 12:35:46'
p1008
aF0.0
aa(lp1009
F1507184338.043
ag1001
aF0.0
aasbsI90
(imyfunction
mondai
p1010
(dp1011
g3
S'2017-10-05 15:33:09'
p1012
sg5
F3.846313363457417e-05
sg6
S'90.png'
p1013
sg8
(lp1014
sg13
(lp1015
S'chemistry'
p1016
asg16
F0.9999999999999959
sg17
F1507185189.481
sg18
I1
sg19
(lp1017
(lp1018
F1504323686.397
aS'2017-09-02 12:41:26'
p1019
aF0.0
aa(lp1020
F1507185189.481
ag1012
aF1.0
aasbsI91
(imyfunction
mondai
p1021
(dp1022
g3
S'2017-10-05 15:34:52'
p1023
sg5
F3.8478432152692707e-05
sg6
S'91.jpg'
p1024
sg8
(lp1025
sg13
(lp1026
S'chemistry'
p1027
asg16
F0.9999999999999959
sg17
F1507185292.556
sg18
I1
sg19
(lp1028
(lp1029
F1504324204.896
aS'2017-09-02 12:50:04'
p1030
aF0.0
aa(lp1031
F1507185292.556
ag1023
aF1.0
aasbsI92
(imyfunction
mondai
p1032
(dp1033
g3
S'2017-10-05 15:47:43'
p1034
sg5
F5.748135946571577e-14
sg6
S'92.png'
p1035
sg8
(lp1036
sg13
(lp1037
S'chemistry'
p1038
asg16
F-4.178117625193385e-15
sg17
F1507186063.447
sg18
I1
sg19
(lp1039
(lp1040
F1504325453.141
aS'2017-09-02 13:10:53'
p1041
aF0.0
aa(lp1042
F1507186063.447
ag1034
aF0.0
aasbsI93
(imyfunction
mondai
p1043
(dp1044
g3
S'2017-10-05 15:53:41'
p1045
sg5
F5.772010549327219e-14
sg6
S'93.png'
p1046
sg8
(lp1047
sg13
(lp1048
S'chemistry'
p1049
asg16
F-4.260929810562285e-15
sg17
F1507186421.562
sg18
I1
sg19
(lp1050
(lp1051
F1504327506.993
aS'2017-09-02 13:45:06'
p1052
aF0.0
aa(lp1053
F1507186421.562
ag1045
aF0.0
aasbsI94
(imyfunction
mondai
p1054
(dp1055
g3
S'2017-10-05 16:02:25'
p1056
sg5
F3.872467154027649e-05
sg6
S'94.jpg'
p1057
sg8
(lp1058
sg13
(lp1059
S'chemistry'
p1060
asg16
F0.9999999999999957
sg17
F1507186945.999
sg18
I3
sg19
(lp1061
(lp1062
F1504330005.843
aS'2017-09-02 14:26:45'
p1063
aF0.0
aa(lp1064
F1507186945.999
ag1056
aF1.0
aasbsI95
(imyfunction
mondai
p1065
(dp1066
g3
S'2017-10-05 18:57:10'
p1067
sg5
F4.032315969744689e-05
sg6
S'95.png'
p1068
sg8
(lp1069
sg13
(lp1070
S'chemistry'
p1071
asg16
F0.9999999999999961
sg17
F1507197430.401
sg18
I1
sg19
(lp1072
(lp1073
F1504330578.003
aS'2017-09-02 14:36:18'
p1074
aF0.0
aa(lp1075
F1507197430.401
ag1067
aF1.0
aasbsI96
(imyfunction
mondai
p1076
(dp1077
g3
S'2017-10-06 19:55:59'
p1078
sg5
F5.704697221122206e-05
sg6
S'96.png'
p1079
sg8
(lp1080
sg13
(lp1081
S'chemistry'
p1082
asg16
F0.9999999999948661
sg17
F1507287359.586
sg18
I4
sg19
(lp1083
(lp1084
F1504331481.399
aS'2017-09-02 14:51:21'
p1085
aF0.25
aa(lp1086
F1507287359.586
ag1078
aF0.75
aasbsI97
(imyfunction
mondai
p1087
(dp1088
g3
S'2017-10-05 19:04:08'
p1089
sg5
F6.588195256373543e-14
sg6
S'97.png'
p1090
sg8
(lp1091
sg13
(lp1092
S'chemistry'
p1093
asg16
F-3.9558086867684985e-15
sg17
F1507197848.738
sg18
I1
sg19
(lp1094
(lp1095
F1504332514.446
aS'2017-09-02 15:08:34'
p1096
aF0.0
aa(lp1097
F1507197848.738
ag1089
aF0.0
aasbsI98
(imyfunction
mondai
p1098
(dp1099
g3
S'2017-10-08 14:20:23'
p1100
sg5
F0.0009328098627399411
sg6
S'98.jpeg'
p1101
sg8
(lp1102
sg13
(lp1103
S'physical'
p1104
asg16
F1.2499999999911555
sg17
F1507440023.274
sg18
I4
sg19
(lp1105
(lp1106
F1504545992.782
aS'2017-09-05 02:26:32'
p1107
aF0.25
aa(lp1108
F1507440023.274
ag1100
aF1.0
aasbsI99
(imyfunction
mondai
p1109
(dp1110
g3
S'2017-10-06 10:48:27'
p1111
sg5
F3.5829417200286764e-08
sg6
S'99.jpeg'
p1112
sg8
(lp1113
sg13
(lp1114
S'physical'
p1115
asg16
F0.49999999999997496
sg17
F1507254507.501
sg18
I2
sg19
(lp1116
(lp1117
F1504548613.492
aS'2017-09-05 03:10:13'
p1118
aF0.0
aa(lp1119
F1507254507.501
ag1111
aF0.5
aasbsI100
(imyfunction
mondai
p1120
(dp1121
g3
S'2017-11-05 03:29:23'
p1122
sg5
F0.999970364460571
sg6
S'100.jpeg'
p1123
sg8
(lp1124
sg13
(lp1125
S'physical'
p1126
asg16
F0.4999999999999995
sg17
F1509820163.087
sg18
I2
sg19
(lp1127
(lp1128
F1504549431.259
aS'2017-09-05 03:23:51'
p1129
aF0.5
aa(lp1130
F1509820163.087
ag1122
aF0.0
aasbsI101
(imyfunction
mondai
p1131
(dp1132
g3
S'2017-10-06 11:05:21'
p1133
sg5
F5.348730449186185e-10
sg6
S'101.jpeg'
p1134
sg8
(lp1135
sg13
(lp1136
S'physical'
p1137
asg16
F0.2999999999999724
sg17
F1507255521.17
sg18
I3
sg19
(lp1138
(lp1139
F1504557916.173
aS'2017-09-05 05:45:16'
p1140
aF0.0
aa(lp1141
F1507255521.17
ag1133
aF0.3
aasbsI102
(imyfunction
mondai
p1142
(dp1143
g3
S'2017-10-06 11:09:51'
p1144
sg5
F5.050555644736323e-05
sg6
S'102.jpeg'
p1145
sg8
(lp1146
sg13
(lp1147
S'physical'
p1148
asg16
F0.9999999999999712
sg17
F1507255791.192
sg18
I1
sg19
(lp1149
(lp1150
F1504561998.287
aS'2017-09-05 06:53:18'
p1151
aF0.0
aa(lp1152
F1507255791.192
ag1144
aF1.0
aasbsI103
(imyfunction
mondai
p1153
(dp1154
g3
S'2017-10-06 11:25:34'
p1155
sg5
F1.0791876480180283e-09
sg6
S'103.png'
p1156
sg8
(lp1157
sg13
(lp1158
S'physical'
p1159
asg16
F0.32999999999997015
sg17
F1507256734.83
sg18
I3
sg19
(lp1160
(lp1161
F1504566130.357
aS'2017-09-05 08:02:10'
p1162
aF0.0
aa(lp1163
F1507256734.83
ag1155
aF0.33
aasbsI104
(imyfunction
mondai
p1164
(dp1165
g3
S'2017-10-06 11:27:27'
p1166
sg5
F5.071182954066715e-05
sg6
S'104.jpg'
p1167
sg8
(lp1168
sg13
(lp1169
S'physical'
p1170
asg16
F0.9999999999999651
sg17
F1507256847.652
sg18
I1
sg19
(lp1171
(lp1172
F1504579510.387
aS'2017-09-05 11:45:10'
p1173
aF0.0
aa(lp1174
F1507256847.652
ag1166
aF1.0
aasbsI105
(imyfunction
mondai
p1175
(dp1176
g3
S'2017-10-24 15:55:37'
p1177
sg5
F0.0013214340178703701
sg6
S'105.jpg'
p1178
sg8
(lp1179
sg13
(lp1180
S'physical'
p1181
asg16
F0.49999999999997274
sg17
F1508828137.393
sg18
I4
sg19
(lp1182
(lp1183
F1506129496.71
aS'2017-09-23 10:18:16'
p1184
aF0.0
aa(lp1185
F1508828137.393
ag1177
aF0.5
aasbsI106
(imyfunction
mondai
p1186
(dp1187
g3
S'2017-11-01 16:39:50'
p1188
sg5
F0.3165180259861701
sg6
S'106.jpg'
p1189
sg8
(lp1190
sg13
(lp1191
S'physical'
p1192
asg16
F1.0
sg17
F1509521990.3
sg18
I2
sg19
(lp1193
(lp1194
F1506132713.435
aS'2017-09-23 11:11:53'
p1195
aF0.0
aa(lp1196
F1509521990.3
ag1188
aF1.0
aasbsI107
(imyfunction
mondai
p1197
(dp1198
g3
S'2017-11-01 17:47:33'
p1199
sg5
F0.19232880198155602
sg6
S'107.jpg'
p1200
sg8
(lp1201
sg13
(lp1202
S'physical'
p1203
asg16
F0.66
sg17
F1509526053.592
sg18
I2
sg19
(lp1204
(lp1205
F1506134378.641
aS'2017-09-23 11:39:38'
p1206
aF0.0
aa(lp1207
F1509526053.592
ag1199
aF0.66
aasbsI108
(imyfunction
mondai
p1208
(dp1209
g3
S'2017-11-04 16:18:59'
p1210
sg5
F0.8562437331909725
sg6
S'108.jpg'
p1211
sg8
(lp1212
sg13
(lp1213
S'physical'
p1214
asg16
F1.0
sg17
F1509779939.628
sg18
I1
sg19
(lp1215
(lp1216
F1506135155.006
aS'2017-09-23 11:52:35'
p1217
aF0.0
aa(lp1218
F1509779939.628
ag1210
aF1.0
aasbsI109
(imyfunction
mondai
p1219
(dp1220
g3
S'2017-11-04 16:27:13'
p1221
sg5
F0.7261201690338419
sg6
S'109.png'
p1222
sg8
(lp1223
sg13
(lp1224
S'physical'
p1225
asg16
F0.33
sg17
F1509780433.028
sg18
I2
sg19
(lp1226
(lp1227
F1506137630.469
aS'2017-09-23 12:33:50'
p1228
aF0.0
aa(lp1229
F1509780433.028
ag1221
aF0.33
aasbsI110
(imyfunction
mondai
p1230
(dp1231
g3
S'2017-11-04 16:35:32'
p1232
sg5
F0.7693732674733046
sg6
S'110.jpg'
p1233
sg8
(lp1234
sg13
(lp1235
S'physical'
p1236
asg16
F0.5
sg17
F1509780932.642
sg18
I2
sg19
(lp1237
(lp1238
F1506138671.837
aS'2017-09-23 12:51:11'
p1239
aF0.0
aa(lp1240
F1509780932.642
ag1232
aF0.5
aasbsI111
(imyfunction
mondai
p1241
(dp1242
g3
S'2017-11-04 16:38:25'
p1243
sg5
F0.7702612601257293
sg6
S'111.jpg'
p1244
sg8
(lp1245
sg13
(lp1246
S'physical'
p1247
asg16
F0.5
sg17
F1509781105.264
sg18
I2
sg19
(lp1248
(lp1249
F1506147063.957
aS'2017-09-23 15:11:03'
p1250
aF0.0
aa(lp1251
F1509781105.264
ag1243
aF0.5
aasbsI112
(imyfunction
mondai
p1252
(dp1253
g3
S'2017-09-23 15:21:22'
p1254
sg5
F2.1985695669559805e-11
sg6
S'112.png'
p1255
sg8
(lp1256
sg13
(lp1257
S'physical'
p1258
asg16
F0.5
sg17
F1506147682.265
sg18
I4
sg19
(lp1259
(lp1260
F1506147682.265
ag1254
aF0.5
aasbsI113
(imyfunction
mondai
p1261
(dp1262
g3
S'2017-11-04 16:43:08'
p1263
sg5
F0.8610429539582648
sg6
S'113.png'
p1264
sg8
(lp1265
sg13
(lp1266
S'physical'
p1267
asg16
F1.0
sg17
F1509781388.38
sg18
I1
sg19
(lp1268
(lp1269
F1506148490.104
aS'2017-09-23 15:34:50'
p1270
aF0.0
aa(lp1271
F1509781388.38
ag1263
aF1.0
aasbsI114
(imyfunction
mondai
p1272
(dp1273
g3
S'2017-11-04 16:53:05'
p1274
sg5
F0.7748077701692967
sg6
S'114.jpg'
p1275
sg8
(lp1276
sg13
(lp1277
S'physical'
p1278
asg16
F0.5
sg17
F1509781985.98
sg18
I1
sg19
(lp1279
(lp1280
F1506155638.422
aS'2017-09-23 17:33:58'
p1281
aF0.0
aa(lp1282
F1509781985.98
ag1274
aF0.5
aasbsI115
(imyfunction
mondai
p1283
(dp1284
g3
S'2017-11-04 17:54:07'
p1285
sg5
F0.6706320967674091
sg6
S'115.jpg'
p1286
sg8
(lp1287
sg13
(lp1288
S'physical'
p1289
asg16
F-5.803319474763249e-19
sg17
F1509785647.734
sg18
I2
sg19
(lp1290
(lp1291
F1506157652.404
aS'2017-09-23 18:07:32'
p1292
aF0.0
aa(lp1293
F1509785647.734
ag1285
aF0.0
aasbsI116
(imyfunction
mondai
p1294
(dp1295
g3
S'2017-11-04 17:58:31'
p1296
sg5
F0.6726800865464461
sg6
S'116.jpg'
p1297
sg8
(lp1298
sg13
(lp1299
S'physical'
p1300
asg16
F-5.893791916432976e-19
sg17
F1509785911.182
sg18
I1
sg19
(lp1301
(lp1302
F1506159252.417
aS'2017-09-23 18:34:12'
p1303
aF0.0
aa(lp1304
F1509785911.182
ag1296
aF0.0
aasbsI117
(imyfunction
mondai
p1305
(dp1306
g3
S'2017-11-04 18:01:38'
p1307
sg5
F0.8768320120203038
sg6
S'117.png'
p1308
sg8
(lp1309
sg13
(lp1310
S'physical'
p1311
asg16
F1.0
sg17
F1509786098.312
sg18
I2
sg19
(lp1312
(lp1313
F1506162234.45
aS'2017-09-23 19:23:54'
p1314
aF0.0
aa(lp1315
F1509786098.312
ag1307
aF1.0
aasbsI118
(imyfunction
mondai
p1316
(dp1317
g3
S'2017-11-04 18:15:41'
p1318
sg5
F0.8796898373419
sg6
S'118.jpg'
p1319
sg8
(lp1320
sg13
(lp1321
S'physical'
p1322
asg16
F1.0
sg17
F1509786941.739
sg18
I1
sg19
(lp1323
(lp1324
F1506294608.09
aS'2017-09-25 08:10:08'
p1325
aF0.0
aa(lp1326
F1509786941.739
ag1318
aF1.0
aasbsI119
(imyfunction
mondai
p1327
(dp1328
g3
S'2017-11-04 18:20:02'
p1329
sg5
F0.6828086701011217
sg6
S'119.jpg'
p1330
sg8
(lp1331
sg13
(lp1332
S'physical'
p1333
asg16
F-2.8235804321054852e-18
sg17
F1509787202.415
sg18
I1
sg19
(lp1334
(lp1335
F1506295905.774
aS'2017-09-25 08:31:45'
p1336
aF0.0
aa(lp1337
F1509787202.415
ag1329
aF0.0
aasbsI120
(imyfunction
mondai
p1338
(dp1339
g3
S'2017-11-04 18:26:36'
p1340
sg5
F0.8044060433620931
sg6
S'120.jpg'
p1341
sg8
(lp1342
sg13
(lp1343
S'physical'
p1344
asg16
F0.5
sg17
F1509787596.21
sg18
I2
sg19
(lp1345
(lp1346
F1506327418.434
aS'2017-09-25 17:16:58'
p1347
aF0.0
aa(lp1348
F1509787596.21
ag1340
aF0.5
aasbsI121
(imyfunction
mondai
p1349
(dp1350
g3
S'2017-11-04 19:06:57'
p1351
sg5
F0.7054244572784405
sg6
S'121.jpg'
p1352
sg8
(lp1353
sg13
(lp1354
S'physical'
p1355
asg16
F-4.1730886871002715e-18
sg17
F1509790017.759
sg18
I2
sg19
(lp1356
(lp1357
F1506332473.34
aS'2017-09-25 18:41:13'
p1358
aF0.0
aa(lp1359
F1509790017.759
ag1351
aF0.0
aasbsI122
(imyfunction
mondai
p1360
(dp1361
g3
S'2017-11-04 19:20:56'
p1362
sg5
F0.7897151056041429
sg6
S'122.jpg'
p1363
sg8
(lp1364
sg13
(lp1365
S'physical'
p1366
asg16
F0.33
sg17
F1509790856.665
sg18
I3
sg19
(lp1367
(lp1368
F1506334077.056
aS'2017-09-25 19:07:57'
p1369
aF0.0
aa(lp1370
F1509790856.665
ag1362
aF0.33
aasbsI123
(imyfunction
mondai
p1371
(dp1372
g3
S'2017-11-04 19:59:55'
p1373
sg5
F0.9011729499899955
sg6
S'123.jpg'
p1374
sg8
(lp1375
sg13
(lp1376
S'physical'
p1377
asg16
F1.0
sg17
F1509793195.666
sg18
I2
sg19
(lp1378
(lp1379
F1506335499.155
aS'2017-09-25 19:31:39'
p1380
aF0.0
aa(lp1381
F1509793195.666
ag1373
aF1.0
aasbsI124
(imyfunction
mondai
p1382
(dp1383
g3
S'2017-11-04 20:01:50'
p1384
sg5
F0.9015708542116789
sg6
S'124.jpg'
p1385
sg8
(lp1386
sg13
(lp1387
S'physical'
p1388
asg16
F1.0
sg17
F1509793310.088
sg18
I1
sg19
(lp1389
(lp1390
F1506370557.351
aS'2017-09-26 05:15:57'
p1391
aF0.0
aa(lp1392
F1509793310.088
ag1384
aF1.0
aasbsI125
(imyfunction
mondai
p1393
(dp1394
g3
S'2017-11-04 20:08:13'
p1395
sg5
F0.9029067870148131
sg6
S'125.jpg'
p1396
sg8
(lp1397
sg13
(lp1398
S'physical'
p1399
asg16
F1.0
sg17
F1509793693.882
sg18
I1
sg19
(lp1400
(lp1401
F1506372586.124
aS'2017-09-26 05:49:46'
p1402
aF0.0
aa(lp1403
F1509793693.882
ag1395
aF1.0
aasbsI126
(imyfunction
mondai
p1404
(dp1405
g3
S'2017-11-04 20:30:04'
p1406
sg5
F0.7473332597346604
sg6
S'126.jpg'
p1407
sg8
(lp1408
sg13
(lp1409
S'physical'
p1410
asg16
F-6.367176625891049e-18
sg17
F1509795004.035
sg18
I2
sg19
(lp1411
(lp1412
F1506373963.589
aS'2017-09-26 06:12:43'
p1413
aF0.0
aa(lp1414
F1509795004.035
ag1406
aF0.0
aasbsI127
(imyfunction
mondai
p1415
(dp1416
g3
S'2017-11-04 21:00:56'
p1417
sg5
F0.9139898733841749
sg6
S'127.jpg'
p1418
sg8
(lp1419
sg13
(lp1420
S'physical'
p1421
asg16
F1.0
sg17
F1509796856.166
sg18
I1
sg19
(lp1422
(lp1423
F1506433333.109
aS'2017-09-26 22:42:13'
p1424
aF0.0
aa(lp1425
F1509796856.166
ag1417
aF1.0
aasbsI128
(imyfunction
mondai
p1426
(dp1427
g3
S'2017-11-04 21:01:24'
p1428
sg5
F0.7637744244624517
sg6
S'128.jpg'
p1429
sg8
(lp1430
sg13
(lp1431
S'physical'
p1432
asg16
F-1.2393336990361653e-17
sg17
F1509796884.209
sg18
I1
sg19
(lp1433
(lp1434
F1506433386.409
aS'2017-09-26 22:43:06'
p1435
aF0.0
aa(lp1436
F1509796884.209
ag1428
aF0.0
aasbsI129
(imyfunction
mondai
p1437
(dp1438
g3
S'2017-09-27 05:41:54'
p1439
sg5
F1.292193572406712e-11
sg6
S'129.png'
p1440
sg8
(lp1441
sg13
(lp1442
S'physical'
p1443
asg16
F0.4
sg17
F1506458514.65
sg18
I5
sg19
(lp1444
(lp1445
F1506458514.65
ag1439
aF0.4
aasbsI130
(imyfunction
mondai
p1446
(dp1447
g3
S'2017-11-04 21:01:45'
p1448
sg5
F0.7639633936042532
sg6
S'130.jpg'
p1449
sg8
(lp1450
sg13
(lp1451
S'physical'
p1452
asg16
F-1.6830748740452486e-17
sg17
F1509796905.583
sg18
I2
sg19
(lp1453
(lp1454
F1506459850.374
aS'2017-09-27 06:04:10'
p1455
aF0.0
aa(lp1456
F1509796905.583
ag1448
aF0.0
aasbsI131
(imyfunction
mondai
p1457
(dp1458
g3
S'2017-11-04 21:05:36'
p1459
sg5
F0.8166482805347409
sg6
S'131.jpg'
p1460
sg8
(lp1461
sg13
(lp1462
S'physical'
p1463
asg16
F0.24999999999999997
sg17
F1509797136.172
sg18
I2
sg19
(lp1464
(lp1465
F1506462691.94
aS'2017-09-27 06:51:31'
p1466
aF0.0
aa(lp1467
F1509797136.172
ag1459
aF0.25
aasbsI132
(imyfunction
mondai
p1468
(dp1469
g3
S'2017-11-04 21:07:20'
p1470
sg5
F0.7669278704675303
sg6
S'132.jpg'
p1471
sg8
(lp1472
sg13
(lp1473
S'physical'
p1474
asg16
F-2.789510265903354e-17
sg17
F1509797240.2
sg18
I3
sg19
(lp1475
(lp1476
F1506503838.042
aS'2017-09-27 18:17:18'
p1477
aF0.0
aa(lp1478
F1509797240.2
ag1470
aF0.0
aasbsI133
(imyfunction
mondai
p1479
(dp1480
g3
S'2017-11-04 21:07:37'
p1481
sg5
F0.7670813956759944
sg6
S'133.jpg'
p1482
sg8
(lp1483
sg13
(lp1484
S'physical'
p1485
asg16
F-2.852001689060002e-17
sg17
F1509797257.494
sg18
I3
sg19
(lp1486
(lp1487
F1506505769.532
aS'2017-09-27 18:49:29'
p1488
aF0.0
aa(lp1489
F1509797257.494
ag1481
aF0.0
aasbsI134
(imyfunction
mondai
p1490
(dp1491
g3
S'2017-11-04 21:17:56'
p1492
sg5
F0.7725973603224005
sg6
S'134.jpg'
p1493
sg8
(lp1494
sg13
(lp1495
S'physical'
p1496
asg16
F-2.914613422368457e-17
sg17
F1509797876.56
sg18
I2
sg19
(lp1497
(lp1498
F1506508264.869
aS'2017-09-27 19:31:04'
p1499
aF0.0
aa(lp1500
F1509797876.56
ag1492
aF0.0
aasbsI135
(imyfunction
mondai
p1501
(dp1502
g3
S'2017-11-04 21:20:20'
p1503
sg5
F0.7738867321870971
sg6
S'135.jpg'
p1504
sg8
(lp1505
sg13
(lp1506
S'physical'
p1507
asg16
F-2.9519835128344627e-17
sg17
F1509798020.631
sg18
I3
sg19
(lp1508
(lp1509
F1506509509.686
aS'2017-09-27 19:51:49'
p1510
aF0.0
aa(lp1511
F1509798020.631
ag1503
aF0.0
aasbsI136
(imyfunction
mondai
p1512
(dp1513
g3
S'2017-11-04 21:22:44'
p1514
sg5
F0.9186139713241782
sg6
S'136.jpg'
p1515
sg8
(lp1516
sg13
(lp1517
S'physical'
p1518
asg16
F1.0
sg17
F1509798164.216
sg18
I2
sg19
(lp1519
(lp1520
F1506516601.052
aS'2017-09-27 21:50:01'
p1521
aF0.0
aa(lp1522
F1509798164.216
ag1514
aF1.0
aasbsI137
(imyfunction
mondai
p1523
(dp1524
g3
S'2017-11-04 22:05:39'
p1525
sg5
F0.7986286843792952
sg6
S'137.jpg'
p1526
sg8
(lp1527
sg13
(lp1528
S'physical'
p1529
asg16
F-3.152669138802942e-17
sg17
F1509800739.69
sg18
I1
sg19
(lp1530
(lp1531
F1506517911.457
aS'2017-09-27 22:11:51'
p1532
aF0.0
aa(lp1533
F1509800739.69
ag1525
aF0.0
aasbsI138
(imyfunction
mondai
p1534
(dp1535
g3
S'2017-11-05 03:29:03'
p1536
sg5
F0.9999068012615525
sg6
S'138.jpeg'
p1537
sg8
(lp1538
sg13
(lp1539
S'math'
p1540
asg16
F0.999802595053132
sg17
F1509820143.369
sg18
I1
sg19
(lp1541
(lp1542
F1506740752.301
aS'2017-09-30 12:05:52'
p1543
aF0.0
aa(lp1544
F1507477766.193
aS'2017-10-09 00:49:26'
p1545
aF0.0
aa(lp1546
F1509820143.369
ag1536
aF1.0
aasbsI139
(imyfunction
mondai
p1547
(dp1548
g3
S'2017-10-09 01:04:20'
p1549
sg5
F1.68940330644453e-12
sg6
S'139.jpeg'
p1550
sg8
(lp1551
sg13
(lp1552
S'math'
p1553
asg16
F-0.00019718972442386826
sg17
F1507478660.639
sg18
I1
sg19
(lp1554
(lp1555
F1506741552.498
aS'2017-09-30 12:19:12'
p1556
aF0.0
aa(lp1557
F1507478660.639
ag1549
aF0.0
aasbsI140
(imyfunction
mondai
p1558
(dp1559
g3
S'2017-10-09 01:16:16'
p1560
sg5
F1.7026145873086684e-12
sg6
S'140.jpeg'
p1561
sg8
(lp1562
sg13
(lp1563
S'math'
p1564
asg16
F-0.00021380765123203148
sg17
F1507479376.256
sg18
I2
sg19
(lp1565
(lp1566
F1506749258.778
aS'2017-09-30 14:27:38'
p1567
aF0.0
aa(lp1568
F1507479376.256
ag1560
aF0.0
aasbsI141
(imyfunction
mondai
p1569
(dp1570
g3
S'2017-10-09 01:21:37'
p1571
sg5
F1.7088460688400885e-12
sg6
S'141.jpeg'
p1572
sg8
(lp1573
sg13
(lp1574
S'math'
p1575
asg16
F-0.0002161375707510039
sg17
F1507479697.815
sg18
I1
sg19
(lp1576
(lp1577
F1506750516.768
aS'2017-09-30 14:48:36'
p1578
aF0.0
aa(lp1579
F1507479697.815
ag1571
aF0.0
aasbsI142
(imyfunction
mondai
p1580
(dp1581
g3
S'2017-10-09 01:32:21'
p1582
sg5
F6.506079464736827e-09
sg6
S'142.jpeg'
p1583
sg8
(lp1584
sg13
(lp1585
S'math'
p1586
asg16
F0.32978268322060134
sg17
F1507480341.279
sg18
I3
sg19
(lp1587
(lp1588
F1506751630.334
aS'2017-09-30 15:07:10'
p1589
aF0.0
aa(lp1590
F1507480341.279
ag1582
aF0.33
aasbsI143
(imyfunction
mondai
p1591
(dp1592
g3
S'2017-10-09 01:46:19'
p1593
sg5
F1.7382224743171923e-12
sg6
S'143.jpeg'
p1594
sg8
(lp1595
sg13
(lp1596
S'math'
p1597
asg16
F-0.00021973610544521443
sg17
F1507481179.374
sg18
I1
sg19
(lp1598
(lp1599
F1506753424.981
aS'2017-09-30 15:37:04'
p1600
aF0.0
aa(lp1601
F1507481179.374
ag1593
aF0.0
aasbsI144
(imyfunction
mondai
p1602
(dp1603
g3
S'2017-10-09 15:58:12'
p1604
sg5
F0.00014658601556759648
sg6
S'144.jpeg'
p1605
sg8
(lp1606
sg13
(lp1607
S'math'
p1608
asg16
F0.9998743516878296
sg17
F1507532292.155
sg18
I1
sg19
(lp1609
(lp1610
F1506756245.305
aS'2017-09-30 16:24:05'
p1611
aF0.0
aa(lp1612
F1507532292.155
ag1604
aF1.0
aasbsI145
(imyfunction
mondai
p1613
(dp1614
g3
S'2017-10-09 16:09:15'
p1615
sg5
F2.2982434089085798e-07
sg6
S'145.jpeg'
p1616
sg8
(lp1617
sg13
(lp1618
S'math'
p1619
asg16
F0.49987322288184377
sg17
F1507532955.989
sg18
I2
sg19
(lp1620
(lp1621
F1506757681.878
aS'2017-09-30 16:48:01'
p1622
aF0.0
aa(lp1623
F1507532955.989
ag1615
aF0.5
aasbsI146
(imyfunction
mondai
p1624
(dp1625
g3
S'2017-10-08 16:44:11'
p1626
sg5
F2.0877327814494743e-11
sg6
S'146.png'
p1627
sg8
(lp1628
sg13
(lp1629
S'math'
p1630
asg16
F0.1
sg17
F1507448651.688
sg18
I8
sg19
(lp1631
(lp1632
F1507448651.688
ag1626
aF0.1
aasbsI147
(imyfunction
mondai
p1633
(dp1634
g3
S'2017-10-08 17:45:40'
p1635
sg5
F1.722051831116844e-06
sg6
S'147.png'
p1636
sg8
(lp1637
sg13
(lp1638
S'math'
p1639
asg16
F0.66
sg17
F1507452340.628
sg18
I9
sg19
(lp1640
(lp1641
F1507452340.628
ag1635
aF0.66
aasbsI148
(imyfunction
mondai
p1642
(dp1643
g3
S'2017-10-08 22:23:05'
p1644
sg5
F2.422856984433945e-08
sg6
S'148.png'
p1645
sg8
(lp1646
sg13
(lp1647
S'math'
p1648
asg16
F0.4
sg17
F1507468985.909
sg18
I9
sg19
(lp1649
(lp1650
F1507468985.909
ag1644
aF0.4
aasbsI149
(imyfunction
mondai
p1651
(dp1652
g3
S'2017-10-08 22:56:43'
p1653
sg5
F1.2494477509297566e-05
sg6
S'149.png'
p1654
sg8
(lp1655
sg13
(lp1656
S'math'
p1657
asg16
F0.8
sg17
F1507471003.735
sg18
I10
sg19
(lp1658
(lp1659
F1507471003.735
ag1653
aF0.8
aasbsI150
(imyfunction
mondai
p1660
(dp1661
g3
S'2017-10-09 00:34:09'
p1662
sg5
F1.3178739610065125e-10
sg6
S'150.jpg'
p1663
sg8
(lp1664
sg13
(lp1665
S'math'
p1666
asg16
F0.16
sg17
F1507476849.026
sg18
I6
sg19
(lp1667
(lp1668
F1507476849.026
ag1662
aF0.16
aasbsI151
(imyfunction
mondai
p1669
(dp1670
g3
S'2017-10-09 17:25:35'
p1671
sg5
F1.913436593321996e-09
sg6
S'151.jpg'
p1672
sg8
(lp1673
sg13
(lp1674
S'math'
p1675
asg16
F0.25
sg17
F1507537535.679
sg18
I2
sg19
(lp1676
(lp1677
F1507537535.679
ag1671
aF0.25
aasbsI152
(imyfunction
mondai
p1678
(dp1679
g3
S'2017-10-09 17:45:24'
p1680
sg5
F3.405633476983792e-12
sg6
S'152.jpg'
p1681
sg8
(lp1682
sg13
(lp1683
S'math'
p1684
asg16
F0.0
sg17
F1507538724.533
sg18
I2
sg19
(lp1685
(lp1686
F1507538724.533
ag1680
aF0.0
aasbsI153
(imyfunction
mondai
p1687
(dp1688
g3
S'2017-10-09 18:00:02'
p1689
sg5
F3.4404228708121243e-12
sg6
S'153.jpeg'
p1690
sg8
(lp1691
sg13
(lp1692
S'chemistry'
p1693
asg16
F0.0
sg17
F1507539602.653
sg18
I3
sg19
(lp1694
(lp1695
F1507539602.653
ag1689
aF0.0
aasbsI154
(imyfunction
mondai
p1696
(dp1697
g3
S'2017-10-09 18:05:17'
p1698
sg5
F2.412814824245958e-07
sg6
S'154.jpeg'
p1699
sg8
(lp1700
sg13
(lp1701
S'chemistry'
p1702
asg16
F0.5
sg17
F1507539917.682
sg18
I1
sg19
(lp1703
(lp1704
F1507539917.682
ag1698
aF0.5
aasbsI155
(imyfunction
mondai
p1705
(dp1706
g3
S'2017-10-09 18:14:04'
p1707
sg5
F3.474100052506578e-12
sg6
S'155.jpeg'
p1708
sg8
(lp1709
sg13
(lp1710
S'chemistry'
p1711
asg16
F0.0
sg17
F1507540444.282
sg18
I1
sg19
(lp1712
(lp1713
F1507540444.282
ag1707
aF0.0
aasbsI156
(imyfunction
mondai
p1714
(dp1715
g3
S'2017-10-09 18:17:43'
p1716
sg5
F3.482915246444798e-12
sg6
S'156.jpeg'
p1717
sg8
(lp1718
sg13
(lp1719
S'chemistry'
p1720
asg16
F0.0
sg17
F1507540663.236
sg18
I1
sg19
(lp1721
(lp1722
F1507540663.236
ag1716
aF0.0
aasbsI157
(imyfunction
mondai
p1723
(dp1724
g3
S'2017-10-09 18:41:03'
p1725
sg5
F3.53983972810863e-12
sg6
S'157.jpeg'
p1726
sg8
(lp1727
sg13
(lp1728
S'chemistry'
p1729
asg16
F0.0
sg17
F1507542063.935
sg18
I3
sg19
(lp1730
(lp1731
F1507542063.935
ag1725
aF0.0
aasbsI158
(imyfunction
mondai
p1732
(dp1733
g3
S'2017-10-09 18:47:08'
p1734
sg5
F2.8532928229378733e-06
sg6
S'158.jpeg'
p1735
sg8
(lp1736
sg13
(lp1737
S'chemistry'
p1738
asg16
F0.66
sg17
F1507542428.917
sg18
I2
sg19
(lp1739
(lp1740
F1507542428.917
ag1734
aF0.66
aasbsI159
(imyfunction
mondai
p1741
(dp1742
g3
S'2017-10-09 18:55:53'
p1743
sg5
F3.5764679628164915e-12
sg6
S'159.jpeg'
p1744
sg8
(lp1745
sg13
(lp1746
S'chemistry'
p1747
asg16
F0.0
sg17
F1507542953.359
sg18
I1
sg19
(lp1748
(lp1749
F1507542953.359
ag1743
aF0.0
aasbsI160
(imyfunction
mondai
p1750
(dp1751
g3
S'2017-10-09 19:10:15'
p1752
sg5
F3.612338812473653e-12
sg6
S'160.jpeg'
p1753
sg8
(lp1754
sg13
(lp1755
S'chemistry'
p1756
asg16
F0.0
sg17
F1507543815.607
sg18
I3
sg19
(lp1757
(lp1758
F1507543815.607
ag1752
aF0.0
aasbsI161
(imyfunction
mondai
p1759
(dp1760
g3
S'2017-10-09 19:18:28'
p1761
sg5
F1.7771425214808293e-05
sg6
S'161.jpeg'
p1762
sg8
(lp1763
sg13
(lp1764
S'chemistry'
p1765
asg16
F0.8
sg17
F1507544308.072
sg18
I1
sg19
(lp1766
(lp1767
F1507544308.072
ag1761
aF0.8
aasbsI162
(imyfunction
mondai
p1768
(dp1769
g3
S'2017-10-09 19:28:23'
p1770
sg5
F3.658105401832941e-12
sg6
S'162.jpeg'
p1771
sg8
(lp1772
sg13
(lp1773
S'chemistry'
p1774
asg16
F0.0
sg17
F1507544903.377
sg18
I2
sg19
(lp1775
(lp1776
F1507544903.377
ag1770
aF0.0
aasbsI163
(imyfunction
mondai
p1777
(dp1778
g3
S'2017-10-09 20:53:01'
p1779
sg5
F3.87955580773248e-12
sg6
S'163.jpeg'
p1780
sg8
(lp1781
sg13
(lp1782
S'chemistry'
p1783
asg16
F0.0
sg17
F1507549981.563
sg18
I2
sg19
(lp1784
(lp1785
F1507549981.563
ag1779
aF0.0
aasbsI164
(imyfunction
mondai
p1786
(dp1787
g3
S'2017-10-09 21:02:21'
p1788
sg5
F3.904780166429966e-12
sg6
S'164.jpeg'
p1789
sg8
(lp1790
sg13
(lp1791
S'chemistry'
p1792
asg16
F0.0
sg17
F1507550541.506
sg18
I2
sg19
(lp1793
(lp1794
F1507550541.506
ag1788
aF0.0
aasbsI165
(imyfunction
mondai
p1795
(dp1796
g3
S'2017-10-09 21:08:22'
p1797
sg5
F3.921119924624276e-12
sg6
S'165.jpeg'
p1798
sg8
(lp1799
sg13
(lp1800
S'chemistry'
p1801
asg16
F0.0
sg17
F1507550902.297
sg18
I3
sg19
(lp1802
(lp1803
F1507550902.297
ag1797
aF0.0
aasbsI166
(imyfunction
mondai
p1804
(dp1805
g3
S'2017-10-11 07:58:16'
p1806
sg5
F1.6738233750953654e-11
sg6
S'166.jpg'
p1807
sg8
(lp1808
(lp1809
g1806
aS'answer is 3'
p1810
aasg13
(lp1811
S'physical'
p1812
asg16
F0.0
sg17
F1507676296.193
sg18
I1
sg19
(lp1813
(lp1814
F1507676296.193
ag1806
aF0.0
aasbsI167
(imyfunction
mondai
p1815
(dp1816
g3
S'2017-10-11 08:23:17'
p1817
sg5
F1.7031682441383575e-11
sg6
S'167.jpg'
p1818
sg8
(lp1819
(lp1820
g1817
aS'answer is 1'
p1821
aasg13
(lp1822
S'physical'
p1823
asg16
F0.0
sg17
F1507677797.802
sg18
I1
sg19
(lp1824
(lp1825
F1507677797.802
ag1817
aF0.0
aasbsI168
(imyfunction
mondai
p1826
(dp1827
g3
S'2017-10-11 15:27:59'
p1828
sg5
F2.287390420037912e-11
sg6
S'168.jpg'
p1829
sg8
(lp1830
(lp1831
g1828
aS'answer is 4'
p1832
aasg13
(lp1833
S'physical'
p1834
asg16
F0.0
sg17
F1507703279.013
sg18
I1
sg19
(lp1835
(lp1836
F1507703279.013
ag1828
aF0.0
aasbsI169
(imyfunction
mondai
p1837
(dp1838
g3
S'2017-10-11 16:49:30'
p1839
sg5
F2.4206370679200086e-11
sg6
S'169.jpg'
p1840
sg8
(lp1841
(lp1842
g1839
aS'ans'
p1843
aasg13
(lp1844
S'physical'
p1845
asg16
F0.0
sg17
F1507708170.907
sg18
I1
sg19
(lp1846
(lp1847
F1507708170.907
ag1839
aF0.0
aasbsI170
(imyfunction
mondai
p1848
(dp1849
g3
S'2017-10-11 18:48:58'
p1850
sg5
F2.630020701306016e-11
sg6
S'170.jpg'
p1851
sg8
(lp1852
(lp1853
g1850
aS'answer is 1'
p1854
aasg13
(lp1855
S'physical'
p1856
asg16
F0.0
sg17
F1507715338.734
sg18
I1
sg19
(lp1857
(lp1858
F1507715338.734
ag1850
aF0.0
aasbsI171
(imyfunction
mondai
p1859
(dp1860
g3
S'2017-10-11 19:41:13'
p1861
sg5
F2.7271994699131216e-11
sg6
S'171.jpg'
p1862
sg8
(lp1863
(lp1864
g1861
aS'answer is 3'
p1865
aasg13
(lp1866
S'physical'
p1867
asg16
F0.0
sg17
F1507718473.631
sg18
I1
sg19
(lp1868
(lp1869
F1507718473.631
ag1861
aF0.0
aasbsI172
(imyfunction
mondai
p1870
(dp1871
g3
S'2017-10-11 19:47:11'
p1872
sg5
F2.7385105001590517e-11
sg6
S'172.jpg'
p1873
sg8
(lp1874
(lp1875
g1872
aS'answer is 4'
p1876
aasg13
(lp1877
S'chemistry'
p1878
asg16
F0.0
sg17
F1507718831.233
sg18
I1
sg19
(lp1879
(lp1880
F1507718831.233
ag1872
aF0.0
aasbsI173
(imyfunction
mondai
p1881
(dp1882
g3
S'2017-10-11 19:52:49'
p1883
sg5
F2.749247755502619e-11
sg6
S'173.jpg'
p1884
sg8
(lp1885
(lp1886
g1883
aS'answer is 4'
p1887
aasg13
(lp1888
S'chemistry'
p1889
asg16
F0.0
sg17
F1507719169.331
sg18
I1
sg19
(lp1890
(lp1891
F1507719169.331
ag1883
aF0.0
aasbsI174
(imyfunction
mondai
p1892
(dp1893
g3
S'2017-10-11 20:29:32'
p1894
sg5
F2.8202458312140983e-11
sg6
S'174.jpg'
p1895
sg8
(lp1896
(lp1897
g1894
aS'answer is 1'
p1898
aasg13
(lp1899
S'chemistry'
p1900
asg16
F0.0
sg17
F1507721372.248
sg18
I1
sg19
(lp1901
(lp1902
F1507721372.248
ag1894
aF0.0
aasbsI175
(imyfunction
mondai
p1903
(dp1904
g3
S'2017-10-11 20:40:42'
p1905
sg5
F2.842194953988454e-11
sg6
S'175.jpg'
p1906
sg8
(lp1907
(lp1908
g1905
aS'answer is 6'
p1909
aasg13
(lp1910
S'chemistry'
p1911
asg16
F0.0
sg17
F1507722042.07
sg18
I1
sg19
(lp1912
(lp1913
F1507722042.07
ag1905
aF0.0
aasbsI176
(imyfunction
mondai
p1914
(dp1915
g3
S'2017-10-11 20:54:35'
p1916
sg5
F2.869744468743407e-11
sg6
S'176.jpg'
p1917
sg8
(lp1918
(lp1919
g1916
aS'answer is 2'
p1920
aasg13
(lp1921
S'chemistry'
p1922
asg16
F0.0
sg17
F1507722875.516
sg18
I1
sg19
(lp1923
(lp1924
F1507722875.516
ag1916
aF0.0
aasbsI177
(imyfunction
mondai
p1925
(dp1926
g3
S'2017-10-11 21:05:20'
p1927
sg5
F2.8912637681075353e-11
sg6
S'177.jpg'
p1928
sg8
(lp1929
(lp1930
g1927
aS'answer is 8'
p1931
aasg13
(lp1932
S'chemistry'
p1933
asg16
F0.0
sg17
F1507723520.985
sg18
I1
sg19
(lp1934
(lp1935
F1507723520.985
ag1927
aF0.0
aasbsI178
(imyfunction
mondai
p1936
(dp1937
g3
S'2017-10-12 20:33:01'
p1938
sg5
F7.684809372513977e-11
sg6
S'178.jpg'
p1939
sg8
(lp1940
(lp1941
g1938
aS'answer is 3'
p1942
aasg13
(lp1943
S'physical'
p1944
asg16
F0.0
sg17
F1507807981.467
sg18
I1
sg19
(lp1945
(lp1946
F1507807981.467
ag1938
aF0.0
aasbsI179
(imyfunction
mondai
p1947
(dp1948
g3
S'2017-10-12 21:04:22'
p1949
sg5
F7.853948819142412e-11
sg6
S'179.jpg'
p1950
sg8
(lp1951
(lp1952
g1949
aS'answer is 4'
p1953
aasg13
(lp1954
S'physical'
p1955
asg16
F0.0
sg17
F1507809862.47
sg18
I1
sg19
(lp1956
(lp1957
F1507809862.47
ag1949
aF0.0
aasbsI180
(imyfunction
mondai
p1958
(dp1959
g3
S'2017-10-12 21:21:23'
p1960
sg5
F7.947315096653945e-11
sg6
S'180.jpg'
p1961
sg8
(lp1962
(lp1963
g1960
aS'answer is 2'
p1964
aasg13
(lp1965
S'physical'
p1966
asg16
F0.0
sg17
F1507810883.52
sg18
I1
sg19
(lp1967
(lp1968
F1507810883.52
ag1960
aF0.0
aasbsI181
(imyfunction
mondai
p1969
(dp1970
g3
S'2017-10-13 00:54:07'
p1971
sg5
F9.212518631025242e-11
sg6
S'181.jpg'
p1972
sg8
(lp1973
(lp1974
g1971
aS'answer is 2'
p1975
aasg13
(lp1976
S'physical'
p1977
asg16
F0.0
sg17
F1507823647.317
sg18
I1
sg19
(lp1978
(lp1979
F1507823647.317
ag1971
aF0.0
aasbsI182
(imyfunction
mondai
p1980
(dp1981
g3
S'2017-10-13 01:54:17'
p1982
sg5
F9.605613048458774e-11
sg6
S'182.jpg'
p1983
sg8
(lp1984
(lp1985
g1982
aS'answer is 3'
p1986
aasg13
(lp1987
S'physical'
p1988
asg16
F0.0
sg17
F1507827257.484
sg18
I1
sg19
(lp1989
(lp1990
F1507827257.484
ag1982
aF0.0
aasbsI183
(imyfunction
mondai
p1991
(dp1992
g3
S'2017-10-13 12:50:55'
p1993
sg5
F1.515522614679969e-10
sg6
S'183.jpg'
p1994
sg8
(lp1995
(lp1996
g1993
aS'answer is 7'
p1997
aasg13
(lp1998
S'physical'
p1999
asg16
F0.0
sg17
F1507866655.695
sg18
I1
sg19
(lp2000
(lp2001
F1507866655.695
ag1993
aF0.0
aasbsI184
(imyfunction
mondai
p2002
(dp2003
g3
S'2017-10-13 13:01:36'
p2004
sg5
F1.5268095271149358e-10
sg6
S'184.jpg'
p2005
sg8
(lp2006
(lp2007
g2004
aS'answer is 6'
p2008
aasg13
(lp2009
S'physical'
p2010
asg16
F0.0
sg17
F1507867296.778
sg18
I1
sg19
(lp2011
(lp2012
F1507867296.778
ag2004
aF0.0
aasbsI185
(imyfunction
mondai
p2013
(dp2014
g3
S'2017-10-13 13:37:17'
p2015
sg5
F1.5651081255612365e-10
sg6
S'185.jpg'
p2016
sg8
(lp2017
(lp2018
g2015
aS'answer is 4'
p2019
aasg13
(lp2020
S'chemistry'
p2021
asg16
F0.0
sg17
F1507869437.306
sg18
I1
sg19
(lp2022
(lp2023
F1507869437.306
ag2015
aF0.0
aasbsI186
(imyfunction
mondai
p2024
(dp2025
g3
S'2017-10-13 17:29:58'
p2026
sg5
F1.8395884729262033e-10
sg6
S'186.jpg'
p2027
sg8
(lp2028
(lp2029
g2026
aS'answer is 4'
p2030
aasg13
(lp2031
S'physical'
p2032
asg16
F0.0
sg17
F1507883398.421
sg18
I1
sg19
(lp2033
(lp2034
F1507883398.421
ag2026
aF0.0
aasbsI187
(imyfunction
mondai
p2035
(dp2036
g3
S'2017-10-13 17:44:23'
p2037
sg5
F1.858102644799227e-10
sg6
S'187.jpg'
p2038
sg8
(lp2039
(lp2040
g2037
aS'answer is 3'
p2041
aasg13
(lp2042
S'physical'
p2043
asg16
F0.0
sg17
F1507884263.63
sg18
I1
sg19
(lp2044
(lp2045
F1507884263.63
ag2037
aF0.0
aasbsI188
(imyfunction
mondai
p2046
(dp2047
g3
S'2017-10-13 17:51:16'
p2048
sg5
F1.8670015957838333e-10
sg6
S'188.jpg'
p2049
sg8
(lp2050
(lp2051
g2048
aS'answer is 1'
p2052
aasg13
(lp2053
S'physical'
p2054
asg16
F0.0
sg17
F1507884676.435
sg18
I1
sg19
(lp2055
(lp2056
F1507884676.435
ag2048
aF0.0
aasbsI189
(imyfunction
mondai
p2057
(dp2058
g3
S'2017-10-13 17:56:35'
p2059
sg5
F1.8739101296472992e-10
sg6
S'189.jpg'
p2060
sg8
(lp2061
(lp2062
g2059
aS'answer is 1'
p2063
aasg13
(lp2064
S'physical'
p2065
asg16
F0.0
sg17
F1507884995.554
sg18
I1
sg19
(lp2066
(lp2067
F1507884995.554
ag2059
aF0.0
aasbsI190
(imyfunction
mondai
p2068
(dp2069
g3
S'2017-10-14 14:04:14'
p2070
sg5
F4.3348023818207743e-10
sg6
S'190.jpg'
p2071
sg8
(lp2072
(lp2073
g2070
aS'answer is 1'
p2074
aasg13
(lp2075
S'chemistry'
p2076
asg16
F0.0
sg17
F1507957454.81
sg18
I1
sg19
(lp2077
(lp2078
F1507957454.81
ag2070
aF0.0
aasbsI191
(imyfunction
mondai
p2079
(dp2080
g3
S'2017-10-14 14:23:02'
p2081
sg5
F4.391776283284871e-10
sg6
S'191.jpg'
p2082
sg8
(lp2083
(lp2084
g2081
aS'answer is 6'
p2085
aasg13
(lp2086
S'chemistry'
p2087
asg16
F0.0
sg17
F1507958582.999
sg18
I1
sg19
(lp2088
(lp2089
F1507958582.999
ag2081
aF0.0
aasbsI192
(imyfunction
mondai
p2090
(dp2091
g3
S'2017-10-14 14:27:29'
p2092
sg5
F4.4053436409092895e-10
sg6
S'192.jpg'
p2093
sg8
(lp2094
(lp2095
g2092
aS'answer is 2'
p2096
aasg13
(lp2097
S'chemistry'
p2098
asg16
F0.0
sg17
F1507958849.5
sg18
I1
sg19
(lp2099
(lp2100
F1507958849.5
ag2092
aF0.0
aasbsI193
(imyfunction
mondai
p2101
(dp2102
g3
S'2017-10-15 00:07:09'
p2103
sg5
F6.588767696393283e-10
sg6
S'193.jpg'
p2104
sg8
(lp2105
(lp2106
g2103
aS'answer is 3'
p2107
aasg13
(lp2108
S'physical'
p2109
asg16
F0.0
sg17
F1507993629.653
sg18
I1
sg19
(lp2110
(lp2111
F1507993629.653
ag2103
aF0.0
aasbsI194
(imyfunction
mondai
p2112
(dp2113
g3
S'2017-10-15 00:18:36'
p2114
sg5
F6.641367542856805e-10
sg6
S'194.jpg'
p2115
sg8
(lp2116
(lp2117
g2114
aS'answer is 1'
p2118
aasg13
(lp2119
S'physical'
p2120
asg16
F0.0
sg17
F1507994316.668
sg18
I1
sg19
(lp2121
(lp2122
F1507994316.668
ag2114
aF0.0
aasbsI195
(imyfunction
mondai
p2123
(dp2124
g3
S'2017-10-15 00:26:03'
p2125
sg5
F6.675833043795834e-10
sg6
S'195.jpg'
p2126
sg8
(lp2127
(lp2128
g2125
aS'answer is 4'
p2129
aasg13
(lp2130
S'physical'
p2131
asg16
F0.0
sg17
F1507994763.883
sg18
I1
sg19
(lp2132
(lp2133
F1507994763.883
ag2125
aF0.0
aasbsI196
(imyfunction
mondai
p2134
(dp2135
g3
S'2017-10-15 00:30:39'
p2136
sg5
F6.697147606694526e-10
sg6
S'196.jpg'
p2137
sg8
(lp2138
(lp2139
g2136
aS'answer is 1'
p2140
aasg13
(lp2141
S'physical'
p2142
asg16
F0.0
sg17
F1507995039.301
sg18
I1
sg19
(lp2143
(lp2144
F1507995039.301
ag2136
aF0.0
aasbsI197
(imyfunction
mondai
p2145
(dp2146
g3
S'2017-10-15 01:51:08'
p2147
sg5
F7.082100196904229e-10
sg6
S'197.jpg'
p2148
sg8
(lp2149
(lp2150
g2147
aS'answer is 2'
p2151
aasg13
(lp2152
S'physical'
p2153
asg16
F0.0
sg17
F1507999868.093
sg18
I1
sg19
(lp2154
(lp2155
F1507999868.093
ag2147
aF0.0
aasbsI198
(imyfunction
mondai
p2156
(dp2157
g3
S'2017-10-15 01:58:06'
p2158
sg5
F7.116505207456116e-10
sg6
S'198.jpg'
p2159
sg8
(lp2160
(lp2161
g2158
aS'answer is 6'
p2162
aasg13
(lp2163
S'physical'
p2164
asg16
F0.0
sg17
F1508000286.81
sg18
I1
sg19
(lp2165
(lp2166
F1508000286.81
ag2158
aF0.0
aasbsI199
(imyfunction
mondai
p2167
(dp2168
g3
S'2017-10-15 02:02:51'
p2169
sg5
F7.139963099348267e-10
sg6
S'199.jpg'
p2170
sg8
(lp2171
(lp2172
g2169
aS'answer is 4'
p2173
aasg13
(lp2174
S'chemistry'
p2175
asg16
F0.0
sg17
F1508000571.139
sg18
I1
sg19
(lp2176
(lp2177
F1508000571.139
ag2169
aF0.0
aasbsI200
(imyfunction
mondai
p2178
(dp2179
g3
S'2017-10-15 02:21:46'
p2180
sg5
F7.234445776320597e-10
sg6
S'200.jpg'
p2181
sg8
(lp2182
(lp2183
g2180
aS'answer is 2'
p2184
aasg13
(lp2185
S'chemistry'
p2186
asg16
F0.0
sg17
F1508001706.966
sg18
I1
sg19
(lp2187
(lp2188
F1508001706.966
ag2180
aF0.0
aasbsI201
(imyfunction
mondai
p2189
(dp2190
g3
S'2017-10-15 02:32:25'
p2191
sg5
F7.288118256044475e-10
sg6
S'201.jpg'
p2192
sg8
(lp2193
(lp2194
g2191
aS'answer is 5'
p2195
aasg13
(lp2196
S'chemistry'
p2197
asg16
F0.0
sg17
F1508002345.603
sg18
I1
sg19
(lp2198
(lp2199
F1508002345.603
ag2191
aF0.0
aasbsI202
(imyfunction
mondai
p2200
(dp2201
g3
S'2017-10-15 14:33:39'
p2202
sg5
F1.202638351755615e-09
sg6
S'202.jpg'
p2203
sg8
(lp2204
(lp2205
g2202
aS'answer is 3'
p2206
aasg13
(lp2207
S'physical'
p2208
asg16
F0.0
sg17
F1508045619.689
sg18
I1
sg19
(lp2209
(lp2210
F1508045619.689
ag2202
aF0.0
aasbsI203
(imyfunction
mondai
p2211
(dp2212
g3
S'2017-10-15 15:06:25'
p2213
sg5
F1.2303093337423913e-09
sg6
S'203.jpg'
p2214
sg8
(lp2215
(lp2216
g2213
aS'answer is 4'
p2217
aasg13
(lp2218
S'physical'
p2219
asg16
F0.0
sg17
F1508047585.104
sg18
I1
sg19
(lp2220
(lp2221
F1508047585.104
ag2213
aF0.0
aasbsI204
(imyfunction
mondai
p2222
(dp2223
g3
S'2017-10-15 15:34:46'
p2224
sg5
F1.254774945820948e-09
sg6
S'204.jpg'
p2225
sg8
(lp2226
(lp2227
g2224
aS'answer is 2'
p2228
aasg13
(lp2229
S'physical'
p2230
asg16
F0.0
sg17
F1508049286.372
sg18
I1
sg19
(lp2231
(lp2232
F1508049286.372
ag2224
aF0.0
aasbsI205
(imyfunction
mondai
p2233
(dp2234
g3
S'2017-10-15 15:38:16'
p2235
sg5
F1.2578271014846729e-09
sg6
S'205.jpg'
p2236
sg8
(lp2237
(lp2238
g2235
aS'answer is 6'
p2239
aasg13
(lp2240
S'physical'
p2241
asg16
F0.0
sg17
F1508049496.279
sg18
I1
sg19
(lp2242
(lp2243
F1508049496.279
ag2235
aF0.0
aasbsI206
(imyfunction
mondai
p2244
(dp2245
g3
S'2017-10-15 16:36:48'
p2246
sg5
F1.3100177799885959e-09
sg6
S'206.jpg'
p2247
sg8
(lp2248
(lp2249
g2246
aS'answer is 2'
p2250
aasg13
(lp2251
S'chemistry'
p2252
asg16
F0.0
sg17
F1508053008.871
sg18
I1
sg19
(lp2253
(lp2254
F1508053008.871
ag2246
aF0.0
aasbsI207
(imyfunction
mondai
p2255
(dp2256
g3
S'2017-10-15 16:41:27'
p2257
sg5
F1.314246015063406e-09
sg6
S'207.jpg'
p2258
sg8
(lp2259
(lp2260
g2257
aS'answer is 5'
p2261
aasg13
(lp2262
S'chemistry'
p2263
asg16
F0.0
sg17
F1508053287.288
sg18
I1
sg19
(lp2264
(lp2265
F1508053287.288
ag2257
aF0.0
aasbsI208
(imyfunction
mondai
p2266
(dp2267
g3
S'2017-10-15 21:19:51'
p2268
sg5
F1.5945622566021898e-09
sg6
S'208.jpg'
p2269
sg8
(lp2270
(lp2271
g2268
aS'answer is 2'
p2272
aasg13
(lp2273
S'physical'
p2274
asg16
F0.0
sg17
F1508069991.529
sg18
I1
sg19
(lp2275
(lp2276
F1508069991.529
ag2268
aF0.0
aasbsI209
(imyfunction
mondai
p2277
(dp2278
g3
S'2017-10-16 01:40:11'
p2279
sg5
F1.9105447415374565e-09
sg6
S'209.jpg'
p2280
sg8
(lp2281
(lp2282
g2279
aS'answer is 2'
p2283
aasg13
(lp2284
S'physical'
p2285
asg16
F0.0
sg17
F1508085611.712
sg18
I1
sg19
(lp2286
(lp2287
F1508085611.712
ag2279
aF0.0
aasbsI210
(imyfunction
mondai
p2288
(dp2289
g3
S'2017-10-16 02:03:46'
p2290
sg5
F1.942082472812725e-09
sg6
S'210.jpg'
p2291
sg8
(lp2292
(lp2293
g2290
aS'answer is 4'
p2294
aasg13
(lp2295
S'physical'
p2296
asg16
F0.0
sg17
F1508087026.29
sg18
I1
sg19
(lp2297
(lp2298
F1508087026.29
ag2290
aF0.0
aasbsI211
(imyfunction
mondai
p2299
(dp2300
g3
S'2017-10-16 15:14:57'
p2301
sg5
F3.3642111596792964e-09
sg6
S'211.jpg'
p2302
sg8
(lp2303
(lp2304
g2301
aS'answer is 4'
p2305
aasg13
(lp2306
S'physical'
p2307
asg16
F0.0
sg17
F1508134497.273
sg18
I1
sg19
(lp2308
(lp2309
F1508134497.273
ag2301
aF0.0
aasbsI212
(imyfunction
mondai
p2310
(dp2311
g3
S'2017-10-16 15:52:15'
p2312
sg5
F3.4525170918227926e-09
sg6
S'212.jpg'
p2313
sg8
(lp2314
(lp2315
g2312
aS'answer is 4'
p2316
aasg13
(lp2317
S'chemistry'
p2318
asg16
F0.0
sg17
F1508136735.901
sg18
I1
sg19
(lp2319
(lp2320
F1508136735.901
ag2312
aF0.0
aasbsI213
(imyfunction
mondai
p2321
(dp2322
g3
S'2017-10-16 18:02:56'
p2323
sg5
F1.3718082986207952e-05
sg6
S'213.jpg'
p2324
sg8
(lp2325
sg13
(lp2326
S'math'
p2327
asg16
F0.5
sg17
F1508144576.122
sg18
I4
sg19
(lp2328
(lp2329
F1508144576.122
ag2323
aF0.5
aasbsI214
(imyfunction
mondai
p2330
(dp2331
g3
S'2017-10-17 00:15:42'
p2332
sg5
F4.41638033648322e-06
sg6
S'214.jpg'
p2333
sg8
(lp2334
sg13
(lp2335
S'math'
p2336
asg16
F0.4
sg17
F1508166942.318
sg18
I5
sg19
(lp2337
(lp2338
F1508166942.318
ag2332
aF0.4
aasbsI215
(imyfunction
mondai
p2339
(dp2340
g3
S'2017-10-17 02:24:21'
p2341
sg5
F0.00023522533045470983
sg6
S'215.jpg'
p2342
sg8
(lp2343
sg13
(lp2344
S'math'
p2345
asg16
F0.75
sg17
F1508174661.772
sg18
I4
sg19
(lp2346
(lp2347
F1508174661.772
ag2341
aF0.75
aasbsI216
(imyfunction
mondai
p2348
(dp2349
g3
S'2017-10-17 02:43:39'
p2350
sg5
F9.93565230548756e-05
sg6
S'216.jpg'
p2351
sg8
(lp2352
sg13
(lp2353
S'math'
p2354
asg16
F0.66
sg17
F1508175819.491
sg18
I3
sg19
(lp2355
(lp2356
F1508175819.491
ag2350
aF0.66
aasbsI217
(imyfunction
mondai
p2357
(dp2358
g3
S'2017-10-17 14:56:19'
p2359
sg5
F0.0002957831440473499
sg6
S'217.jpg'
p2360
sg8
(lp2361
sg13
(lp2362
S'math'
p2363
asg16
F0.75
sg17
F1508219779.466
sg18
I4
sg19
(lp2364
(lp2365
F1508219779.466
ag2359
aF0.75
aasbsI218
(imyfunction
mondai
p2366
(dp2367
g3
S'2017-10-17 16:22:14'
p2368
sg5
F2.346925626608548e-05
sg6
S'218.jpg'
p2369
sg8
(lp2370
sg13
(lp2371
S'math'
p2372
asg16
F0.5
sg17
F1508224934.21
sg18
I5
sg19
(lp2373
(lp2374
F1508224934.21
ag2368
aF0.5
aasbsI219
(imyfunction
mondai
p2375
(dp2376
g3
S'2017-10-17 16:31:02'
p2377
sg5
F1.717110932073664e-06
sg6
S'219.jpg'
p2378
sg8
(lp2379
sg13
(lp2380
S'math'
p2381
asg16
F0.3
sg17
F1508225462.692
sg18
I4
sg19
(lp2382
(lp2383
F1508225462.692
ag2377
aF0.3
aasbsI220
(imyfunction
mondai
p2384
(dp2385
g3
S'2017-10-17 17:52:33'
p2386
sg5
F0.00048047203424453854
sg6
S'220.jpg'
p2387
sg8
(lp2388
sg13
(lp2389
S'math'
p2390
asg16
F0.8
sg17
F1508230353.749
sg18
I5
sg19
(lp2391
(lp2392
F1508230353.749
ag2386
aF0.8
aasbsI221
(imyfunction
mondai
p2393
(dp2394
g3
S'2017-10-17 20:59:50'
p2395
sg5
F7.860817919614156e-05
sg6
S'221.jpg'
p2396
sg8
(lp2397
sg13
(lp2398
S'math'
p2399
asg16
F0.6
sg17
F1508241590.206
sg18
I10
sg19
(lp2400
(lp2401
F1508241590.206
ag2395
aF0.6
aasbsI222
(imyfunction
mondai
p2402
(dp2403
g3
S'2017-10-19 03:06:47'
p2404
sg5
F5.413426009857685e-05
sg6
S'222.jpg'
p2405
sg8
(lp2406
sg13
(lp2407
S'math'
p2408
asg16
F0.5
sg17
F1508350007.402
sg18
I6
sg19
(lp2409
(lp2410
F1508350007.402
ag2404
aF0.5
aasbsI223
(imyfunction
mondai
p2411
(dp2412
g3
S'2017-10-19 03:22:49'
p2413
sg5
F0.00011268538205575584
sg6
S'223.jpg'
p2414
sg8
(lp2415
sg13
(lp2416
S'math'
p2417
asg16
F0.57
sg17
F1508350969.765
sg18
I7
sg19
(lp2418
(lp2419
F1508350969.765
ag2413
aF0.57
aasbsI224
(imyfunction
mondai
p2420
(dp2421
g3
S'2017-10-19 03:54:31'
p2422
sg5
F7.368681737969949e-06
sg6
S'224.jpg'
p2423
sg8
(lp2424
sg13
(lp2425
S'math'
p2426
asg16
F0.33
sg17
F1508352871.541
sg18
I6
sg19
(lp2427
(lp2428
F1508352871.541
ag2422
aF0.33
aasbsI225
(imyfunction
mondai
p2429
(dp2430
g3
S'2017-10-19 23:58:53'
p2431
sg5
F3.0294981245700665e-05
sg6
S'225.jpg'
p2432
sg8
(lp2433
sg13
(lp2434
S'math'
p2435
asg16
F0.4
sg17
F1508425133.985
sg18
I5
sg19
(lp2436
(lp2437
F1508425133.985
ag2431
aF0.4
aasbsI226
(imyfunction
mondai
p2438
(dp2439
g3
S'2017-10-20 00:16:15'
p2440
sg5
F0.0020918253743410662
sg6
S'226.jpg'
p2441
sg8
(lp2442
sg13
(lp2443
S'math'
p2444
asg16
F0.875
sg17
F1508426175.882
sg18
I6
sg19
(lp2445
(lp2446
F1508426175.882
ag2440
aF0.875
aasbsI227
(imyfunction
mondai
p2447
(dp2448
g3
S'2017-10-20 03:06:07'
p2449
sg5
F9.64044060931578e-05
sg6
S'227.jpg'
p2450
sg8
(lp2451
sg13
(lp2452
S'math'
p2453
asg16
F0.5
sg17
F1508436367.652
sg18
I4
sg19
(lp2454
(lp2455
F1508436367.652
ag2449
aF0.5
aasbsI228
(imyfunction
mondai
p2456
(dp2457
g3
S'2017-10-20 03:28:45'
p2458
sg5
F1.4595198497069923e-05
sg6
S'228.jpg'
p2459
sg8
(lp2460
sg13
(lp2461
S'math'
p2462
asg16
F0.33
sg17
F1508437725.656
sg18
I6
sg19
(lp2463
(lp2464
F1508437725.656
ag2458
aF0.33
aasbsI229
(imyfunction
mondai
p2465
(dp2466
g3
S'2017-10-20 05:28:17'
p2467
sg5
F5.589225994077143e-06
sg6
S'229.jpg'
p2468
sg8
(lp2469
sg13
(lp2470
S'math'
p2471
asg16
F0.25
sg17
F1508444897.203
sg18
I4
sg19
(lp2472
(lp2473
F1508444897.203
ag2467
aF0.25
aasbsI230
(imyfunction
mondai
p2474
(dp2475
g3
S'2017-10-20 05:29:58'
p2476
sg5
F0.0013479822546038935
sg6
S'230.jpg'
p2477
sg8
(lp2478
sg13
(lp2479
S'math'
p2480
asg16
F0.8
sg17
F1508444998.374
sg18
I5
sg19
(lp2481
(lp2482
F1508444998.374
ag2476
aF0.8
aasbsI231
(imyfunction
mondai
p2483
(dp2484
g3
S'2017-10-20 05:39:15'
p2485
sg5
F0.00010250871462373095
sg6
S'231.jpg'
p2486
sg8
(lp2487
sg13
(lp2488
S'math'
p2489
asg16
F0.5
sg17
F1508445555.5
sg18
I2
sg19
(lp2490
(lp2491
F1508445555.5
ag2485
aF0.5
aasbsI232
(imyfunction
mondai
p2492
(dp2493
g3
S'2017-10-20 05:44:38'
p2494
sg5
F1.2361106186822528e-07
sg6
S'232.jpg'
p2495
sg8
(lp2496
sg13
(lp2497
S'math'
p2498
asg16
F0.0
sg17
F1508445878.253
sg18
I2
sg19
(lp2499
(lp2500
F1508445878.253
ag2494
aF0.0
aasbsI233
(imyfunction
mondai
p2501
(dp2502
g3
S'2017-10-20 12:10:00'
p2503
sg5
F1.615417187179131e-07
sg6
S'233.jpg'
p2504
sg8
(lp2505
sg13
(lp2506
S'math'
p2507
asg16
F0.0
sg17
F1508469000.914
sg18
I1
sg19
(lp2508
(lp2509
F1508469000.914
ag2503
aF0.0
aasbsI234
(imyfunction
mondai
p2510
(dp2511
g3
S'2017-10-20 17:55:09'
p2512
sg5
F2.05294231997852e-07
sg6
S'234.jpg'
p2513
sg8
(lp2514
sg13
(lp2515
S'math'
p2516
asg16
F0.0
sg17
F1508489709.335
sg18
I1
sg19
(lp2517
(lp2518
F1508489709.335
ag2512
aF0.0
aasbsI235
(imyfunction
mondai
p2519
(dp2520
g3
S'2017-10-21 01:17:00'
p2521
sg5
F2.7465431535644115e-05
sg6
S'235.jpg'
p2522
sg8
(lp2523
sg13
(lp2524
S'math'
p2525
asg16
F0.33
sg17
F1508516220.781
sg18
I3
sg19
(lp2526
(lp2527
F1508516220.781
ag2521
aF0.33
aasbsI236
(imyfunction
mondai
p2528
(dp2529
g3
S'2017-10-21 03:21:57'
p2530
sg5
F2.9174928438599163e-05
sg6
S'236.jpg'
p2531
sg8
(lp2532
sg13
(lp2533
S'math'
p2534
asg16
F0.33
sg17
F1508523717.444
sg18
I1
sg19
(lp2535
(lp2536
F1508523717.444
ag2530
aF0.33
aasbsI237
(imyfunction
mondai
p2537
(dp2538
g3
S'2017-10-21 20:08:26'
p2539
sg5
F6.121687206491722e-07
sg6
S'237.jpg'
p2540
sg8
(lp2541
(lp2542
g2539
aS'answer is 4'
p2543
aasg13
(lp2544
S'math'
p2545
asg16
F0.0
sg17
F1508584106.839
sg18
I1
sg19
(lp2546
(lp2547
F1508584106.839
ag2539
aF0.0
aasbsI238
(imyfunction
mondai
p2548
(dp2549
g3
S'2017-10-22 08:45:21'
p2550
sg5
F1.0354966428743694e-06
sg6
S'238.jpg'
p2551
sg8
(lp2552
sg13
(lp2553
S'math'
p2554
asg16
F0.0
sg17
F1508629521.142
sg18
I1
sg19
(lp2555
(lp2556
F1508629521.142
ag2550
aF0.0
aasbsI239
(imyfunction
mondai
p2557
(dp2558
g3
S'2017-10-23 15:46:29'
p2559
sg5
F0.0015649413722899734
sg6
S'239.jpeg'
p2560
sg8
(lp2561
sg13
(lp2562
S'math'
p2563
asg16
F0.6
sg17
F1508741189.11
sg18
I5
sg19
(lp2564
(lp2565
F1508741189.11
ag2559
aF0.6
aasbsI240
(imyfunction
mondai
p2566
(dp2567
g3
S'2017-10-23 16:02:28'
p2568
sg5
F3.813088509425609e-06
sg6
S'240.jpg'
p2569
sg8
(lp2570
sg13
(lp2571
S'math'
p2572
asg16
F0.0
sg17
F1508742148.582
sg18
I1
sg19
(lp2573
(lp2574
F1508742148.582
ag2568
aF0.0
aasbsI241
(imyfunction
mondai
p2575
(dp2576
g3
S'2017-10-23 16:07:55'
p2577
sg5
F3.827549150609782e-06
sg6
S'241.jpg'
p2578
sg8
(lp2579
(lp2580
g2577
aS'answer is 0'
p2581
aasg13
(lp2582
S'math'
p2583
asg16
F0.0
sg17
F1508742475.623
sg18
I1
sg19
(lp2584
(lp2585
F1508742475.623
ag2577
aF0.0
aasbsI242
(imyfunction
mondai
p2586
(dp2587
g3
S'2017-10-23 16:22:12'
p2588
sg5
F7.712290311774815e-05
sg6
S'242.jpg'
p2589
sg8
(lp2590
sg13
(lp2591
S'math'
p2592
asg16
F0.25
sg17
F1508743332.698
sg18
I4
sg19
(lp2593
(lp2594
F1508743332.698
ag2588
aF0.25
aasbsI243
(imyfunction
mondai
p2595
(dp2596
g3
S'2017-10-25 00:30:10'
p2597
sg5
F1.4746567414720411e-05
sg6
S'243.jpg'
p2598
sg8
(lp2599
sg13
(lp2600
S'math'
p2601
asg16
F0.0
sg17
F1508859010.703
sg18
I1
sg19
(lp2602
(lp2603
F1508859010.703
ag2597
aF0.0
aasbsI244
(imyfunction
mondai
p2604
(dp2605
g3
S'2017-10-25 00:46:52'
p2606
sg5
F1.4918585260702959e-05
sg6
S'244.jpg'
p2607
sg8
(lp2608
(lp2609
g2606
aS'answer is 7'
p2610
aasg13
(lp2611
S'math'
p2612
asg16
F0.0
sg17
F1508860012.721
sg18
I1
sg19
(lp2613
(lp2614
F1508860012.721
ag2606
aF0.0
aasbsI245
(imyfunction
mondai
p2615
(dp2616
g3
S'2017-10-25 12:01:55'
p2617
sg5
F2.384067708830119e-05
sg6
S'245.jpg'
p2618
sg8
(lp2619
sg13
(lp2620
S'math'
p2621
asg16
F0.0
sg17
F1508900515.786
sg18
I4
sg19
(lp2622
(lp2623
F1508900515.786
ag2617
aF0.0
aasbsI246
(imyfunction
mondai
p2624
(dp2625
g3
S'2017-10-26 23:38:30'
p2626
sg5
F0.0006403974333744099
sg6
S'246.jpg'
p2627
sg8
(lp2628
sg13
(lp2629
S'math'
p2630
asg16
F0.2
sg17
F1509028710.277
sg18
I5
sg19
(lp2631
(lp2632
F1509028710.277
ag2626
aF0.2
aasbsI247
(imyfunction
mondai
p2633
(dp2634
g3
S'2017-10-27 22:14:21'
p2635
sg5
F0.0002695328731502461
sg6
S'247.jpg'
p2636
sg8
(lp2637
(lp2638
g2635
aS'answer is 1'
p2639
aasg13
(lp2640
S'math'
p2641
asg16
F0.0
sg17
F1509110061.457
sg18
I1
sg19
(lp2642
(lp2643
F1509110061.457
ag2635
aF0.0
aasbsI248
(imyfunction
mondai
p2644
(dp2645
g3
S'2017-10-31 04:53:35'
p2646
sg5
F0.007143318575859788
sg6
S'248.jpg'
p2647
sg8
(lp2648
(lp2649
g2646
aS'answer is 85'
p2650
aasg13
(lp2651
S'math'
p2652
asg16
F0.0
sg17
F1509393215.198
sg18
I1
sg19
(lp2653
(lp2654
F1509393215.198
ag2646
aF0.0
aasbsI249
(imyfunction
mondai
p2655
(dp2656
g3
S'2017-10-31 05:21:12'
p2657
sg5
F0.007281630734876082
sg6
S'249.jpg'
p2658
sg8
(lp2659
sg13
(lp2660
S'math'
p2661
asg16
F0.0
sg17
F1509394872.124
sg18
I3
sg19
(lp2662
(lp2663
F1509394872.124
ag2657
aF0.0
aasbsI250
(imyfunction
mondai
p2664
(dp2665
g3
S'2017-11-01 00:55:27'
p2666
sg5
F0.016458015972197093
sg6
S'250.jpg'
p2667
sg8
(lp2668
(lp2669
g2666
aS'answer is 1340'
p2670
aasg13
(lp2671
S'math'
p2672
asg16
F0.0
sg17
F1509465327.679
sg18
I1
sg19
(lp2673
(lp2674
F1509465327.679
ag2666
aF0.0
aasbsI251
(imyfunction
mondai
p2675
(dp2676
g3
S'2017-11-01 02:26:08'
p2677
sg5
F0.05114276438333116
sg6
S'251.jpg'
p2678
sg8
(lp2679
sg13
(lp2680
S'math'
p2681
asg16
F0.28
sg17
F1509470768.074
sg18
I7
sg19
(lp2682
(lp2683
F1509470768.074
ag2677
aF0.28
aasbsI252
(imyfunction
mondai
p2684
(dp2685
g3
S'2017-11-01 03:58:53'
p2686
sg5
F0.0486156645091354
sg6
S'252.jpg'
p2687
sg8
(lp2688
sg13
(lp2689
S'math'
p2690
asg16
F0.25
sg17
F1509476333.79
sg18
I4
sg19
(lp2691
(lp2692
F1509476333.79
ag2686
aF0.25
aasbsI253
(imyfunction
mondai
p2693
(dp2694
g3
S'2017-11-02 00:22:21'
p2695
sg5
F0.04372074931565206
sg6
S'253.jpg'
p2696
sg8
(lp2697
(lp2698
g2695
aS'answer is 5'
p2699
aasg13
(lp2700
S'physical'
p2701
asg16
F0.0
sg17
F1509549741.356
sg18
I1
sg19
(lp2702
(lp2703
F1509549741.356
ag2695
aF0.0
aasbsI254
(imyfunction
mondai
p2704
(dp2705
g3
S'2017-11-02 00:25:22'
p2706
sg5
F0.04381269282902333
sg6
S'254.jpg'
p2707
sg8
(lp2708
(lp2709
g2706
aS'answer is 6'
p2710
aasg13
(lp2711
S'physical'
p2712
asg16
F0.0
sg17
F1509549922.862
sg18
I1
sg19
(lp2713
(lp2714
F1509549922.862
ag2706
aF0.0
aasbsI255
(imyfunction
mondai
p2715
(dp2716
g3
S'2017-11-02 00:29:37'
p2717
sg5
F0.04394202734837824
sg6
S'255.jpg'
p2718
sg8
(lp2719
(lp2720
g2717
aS'answer is 2'
p2721
aasg13
(lp2722
S'physical'
p2723
asg16
F0.0
sg17
F1509550177.538
sg18
I1
sg19
(lp2724
(lp2725
F1509550177.538
ag2717
aF0.0
aasbsI256
(imyfunction
mondai
p2726
(dp2727
g3
S'2017-11-02 00:37:20'
p2728
sg5
F0.044178028919252446
sg6
S'256.jpg'
p2729
sg8
(lp2730
(lp2731
g2728
aS'answer is 3'
p2732
aasg13
(lp2733
S'physical'
p2734
asg16
F0.0
sg17
F1509550640.329
sg18
I1
sg19
(lp2735
(lp2736
F1509550640.329
ag2728
aF0.0
aasbsI257
(imyfunction
mondai
p2737
(dp2738
g3
S'2017-11-02 00:43:18'
p2739
sg5
F0.04436176409746769
sg6
S'257.jpg'
p2740
sg8
(lp2741
(lp2742
g2739
aS'answer is 6'
p2743
aasg13
(lp2744
S'physical'
p2745
asg16
F0.0
sg17
F1509550998.919
sg18
I1
sg19
(lp2746
(lp2747
F1509550998.919
ag2739
aF0.0
aasbsI258
(imyfunction
mondai
p2748
(dp2749
g3
S'2017-11-02 00:48:55'
p2750
sg5
F0.0445351107259098
sg6
S'258.jpg'
p2751
sg8
(lp2752
(lp2753
g2750
aS'answer is 3'
p2754
aasg13
(lp2755
S'physical'
p2756
asg16
F0.0
sg17
F1509551335.875
sg18
I1
sg19
(lp2757
(lp2758
F1509551335.875
ag2750
aF0.0
aasbsI259
(imyfunction
mondai
p2759
(dp2760
g3
S'2017-11-02 03:12:43'
p2761
sg5
F0.04921192563097937
sg6
S'259.jpg'
p2762
sg8
(lp2763
(lp2764
g2761
aS'answer is 2'
p2765
aasg13
(lp2766
S'physical'
p2767
asg16
F0.0
sg17
F1509559963.615
sg18
I1
sg19
(lp2768
(lp2769
F1509559963.615
ag2761
aF0.0
aasbsI260
(imyfunction
mondai
p2770
(dp2771
g3
S'2017-11-02 03:34:11'
p2772
sg5
F0.049951024253652596
sg6
S'260.jpg'
p2773
sg8
(lp2774
(lp2775
g2772
aS'answer is 4'
p2776
aasg13
(lp2777
S'physical'
p2778
asg16
F0.0
sg17
F1509561251.582
sg18
I1
sg19
(lp2779
(lp2780
F1509561251.582
ag2772
aF0.0
aasbsI261
(imyfunction
mondai
p2781
(dp2782
g3
S'2017-11-02 04:23:31'
p2783
sg5
F0.0516919044264982
sg6
S'261.jpg'
p2784
sg8
(lp2785
(lp2786
g2783
aS'answer is 1'
p2787
aasg13
(lp2788
S'physical'
p2789
asg16
F0.0
sg17
F1509564211.488
sg18
I1
sg19
(lp2790
(lp2791
F1509564211.488
ag2783
aF0.0
aasbsI262
(imyfunction
mondai
p2792
(dp2793
g3
S'2017-11-02 04:26:05'
p2794
sg5
F0.0517841537870395
sg6
S'262.jpg'
p2795
sg8
(lp2796
(lp2797
g2794
aS'answer is 6'
p2798
aasg13
(lp2799
S'chemistry'
p2800
asg16
F0.0
sg17
F1509564365.54
sg18
I1
sg19
(lp2801
(lp2802
F1509564365.54
ag2794
aF0.0
aasbsI263
(imyfunction
mondai
p2803
(dp2804
g3
S'2017-11-03 17:43:00'
p2805
sg5
F0.24481293204014948
sg6
S'263.jpg'
p2806
sg8
(lp2807
(lp2808
g2805
aS'answer is 2'
p2809
aasg13
(lp2810
S'physical'
p2811
asg16
F0.0
sg17
F1509698580.18
sg18
I1
sg19
(lp2812
(lp2813
F1509698580.18
ag2805
aF0.0
aasbsI264
(imyfunction
mondai
p2814
(dp2815
g3
S'2017-11-03 17:59:10'
p2816
sg5
F0.24757681374111865
sg6
S'264.jpg'
p2817
sg8
(lp2818
(lp2819
g2816
aS'answer is 3'
p2820
aasg13
(lp2821
S'physical'
p2822
asg16
F0.0
sg17
F1509699550.151
sg18
I1
sg19
(lp2823
(lp2824
F1509699550.151
ag2816
aF0.0
aasbsI265
(imyfunction
mondai
p2825
(dp2826
g3
S'2017-11-03 18:06:16'
p2827
sg5
F0.24880162505324802
sg6
S'265.jpg'
p2828
sg8
(lp2829
(lp2830
g2827
aS'answer is 1'
p2831
aasg13
(lp2832
S'physical'
p2833
asg16
F0.0
sg17
F1509699976.535
sg18
I1
sg19
(lp2834
(lp2835
F1509699976.535
ag2827
aF0.0
aasbsI266
(imyfunction
mondai
p2836
(dp2837
g3
S'2017-11-03 18:28:39'
p2838
sg5
F0.2526981213122326
sg6
S'266.jpg'
p2839
sg8
(lp2840
(lp2841
g2838
aS'answer is 3'
p2842
aasg13
(lp2843
S'physical'
p2844
asg16
F0.0
sg17
F1509701319.164
sg18
I1
sg19
(lp2845
(lp2846
F1509701319.164
ag2838
aF0.0
aasbsI267
(imyfunction
mondai
p2847
(dp2848
g3
S'2017-11-03 19:59:11'
p2849
sg5
F0.2690974457918205
sg6
S'267.jpg'
p2850
sg8
(lp2851
(lp2852
g2849
aS'answer is 2'
p2853
aasg13
(lp2854
S'physical'
p2855
asg16
F0.0
sg17
F1509706751.822
sg18
I1
sg19
(lp2856
(lp2857
F1509706751.822
ag2849
aF0.0
aasbsI268
(imyfunction
mondai
p2858
(dp2859
g3
S'2017-11-03 20:48:23'
p2860
sg5
F0.2784503894332557
sg6
S'268.jpg'
p2861
sg8
(lp2862
(lp2863
g2860
aS'answer is 1'
p2864
aasg13
(lp2865
S'physical'
p2866
asg16
F0.0
sg17
F1509709703.794
sg18
I1
sg19
(lp2867
(lp2868
F1509709703.794
ag2860
aF0.0
aasbsI269
(imyfunction
mondai
p2869
(dp2870
g3
S'2017-11-03 21:00:05'
p2871
sg5
F0.28071973072306217
sg6
S'269.jpg'
p2872
sg8
(lp2873
(lp2874
g2871
aS'answer is 6'
p2875
aasg13
(lp2876
S'chemistry'
p2877
asg16
F0.0
sg17
F1509710405.091
sg18
I1
sg19
(lp2878
(lp2879
F1509710405.091
ag2871
aF0.0
aasbsI270
(imyfunction
mondai
p2880
(dp2881
g3
S'2017-11-04 04:12:37'
p2882
sg5
F0.37907544335529914
sg6
S'270.jpg'
p2883
sg8
(lp2884
(lp2885
g2882
aS'answer is 5'
p2886
aasg13
(lp2887
S'physical'
p2888
asg16
F0.0
sg17
F1509736357.791
sg18
I1
sg19
(lp2889
(lp2890
F1509736357.791
ag2882
aF0.0
aasbsI271
(imyfunction
mondai
p2891
(dp2892
g3
S'2017-11-04 04:14:00'
p2893
sg5
F0.37943799343692064
sg6
S'271.jpg'
p2894
sg8
(lp2895
(lp2896
g2893
aS'answer is 2'
p2897
aasg13
(lp2898
S'physical'
p2899
asg16
F0.0
sg17
F1509736440.385
sg18
I1
sg19
(lp2900
(lp2901
F1509736440.385
ag2893
aF0.0
aasbsI272
(imyfunction
mondai
p2902
(dp2903
g3
S'2017-11-04 04:44:56'
p2904
sg5
F0.38767804317838245
sg6
S'272.jpg'
p2905
sg8
(lp2906
(lp2907
g2904
aS'answer is 6'
p2908
aasg13
(lp2909
S'physical'
p2910
asg16
F0.0
sg17
F1509738296.604
sg18
I1
sg19
(lp2911
(lp2912
F1509738296.604
ag2904
aF0.0
aasbsI273
(imyfunction
mondai
p2913
(dp2914
g3
S'2017-11-04 04:47:26'
p2915
sg5
F0.3883496257982739
sg6
S'273.jpg'
p2916
sg8
(lp2917
(lp2918
g2915
aS'answer is 4'
p2919
aasg13
(lp2920
S'physical'
p2921
asg16
F0.0
sg17
F1509738446.147
sg18
I1
sg19
(lp2922
(lp2923
F1509738446.147
ag2915
aF0.0
aasbsI274
(imyfunction
mondai
p2924
(dp2925
g3
S'2017-11-04 04:55:51'
p2926
sg5
F0.39062781275222686
sg6
S'274.jpg'
p2927
sg8
(lp2928
(lp2929
g2926
aS'answer is 6'
p2930
aasg13
(lp2931
S'chemistry'
p2932
asg16
F0.0
sg17
F1509738951.517
sg18
I1
sg19
(lp2933
(lp2934
F1509738951.517
ag2926
aF0.0
aasbsI275
(imyfunction
mondai
p2935
(dp2936
g3
S'2017-11-04 05:02:08'
p2937
sg5
F0.3923377697114606
sg6
S'275.jpg'
p2938
sg8
(lp2939
(lp2940
g2937
aS'answer is 1'
p2941
aasg13
(lp2942
S'chemistry'
p2943
asg16
F0.0
sg17
F1509739328.904
sg18
I1
sg19
(lp2944
(lp2945
F1509739328.904
ag2937
aF0.0
aasbs.