(dp0
I1
(imyfunction
mondai
p1
(dp2
S'wordtime'
p3
S'2017-11-10 01:22:58'
p4
sS'remember'
p5
F0.009328293435789737
sS'imgnum'
p6
S'1.png'
p7
sS'memo'
p8
(lp9
(lp10
F1498515733.947
aS'2017-06-27 07:22:13'
p11
aS'answer 3'
p12
aasS'tag'
p13
(lp14
S'chemistry'
p15
asS'understand'
p16
F1.9993091437638262
sS'lasttime'
p17
F1510244578.211
sS'qusnum'
p18
I1
sS'history'
p19
(lp20
(lp21
F1498515733.947
ag11
aI0
aa(lp22
F1499145499.01
aS'2017-07-04 14:18:19'
p23
aI1
aa(lp24
F1507198633.675
aS'2017-10-05 19:17:13'
p25
aF0.0
aa(lp26
F1510244578.211
ag4
aF1.0
aasbsI2
(imyfunction
mondai
p27
(dp28
g3
S'2017-11-09 05:59:09'
p29
sg5
F0.008514645442845593
sg6
S'2.jpg'
p30
sg8
(lp31
S'answer is 3'
p32
aS'0'
p33
asg13
(lp34
g15
asg16
F1.9990424026921279
sg17
F1510174749.893
sg18
I1
sg19
(lp35
(lp36
F1498545603.881
aS'2017-06-27 15:40:03'
p37
aI0
aa(lp38
F1499146428.99
aS'2017-07-04 14:33:48'
p39
aI0
aa(lp40
F1506862601.36
aS'2017-10-01 21:56:41'
p41
aF1.0
aa(lp42
F1510174749.893
ag29
aF1.0
aasbsI3
(imyfunction
mondai
p43
(dp44
g3
S'2017-11-10 01:38:01'
p45
sg5
F0.009371824238631062
sg6
S'3.jpg'
p46
sg8
(lp47
S'answer is 5'
p48
asg13
(lp49
g15
asg16
F1.9999896589709496
sg17
F1510245481.829
sg18
I1
sg19
(lp50
(lp51
F1498545806.078
aS'2017-06-27 15:43:26'
p52
aI0
aa(lp53
F1499798275.889
aS'2017-07-12 03:37:55'
p54
aI1
aa(lp55
F1507257014.144
aS'2017-10-06 11:30:14'
p56
aF0.0
aa(lp57
F1510245481.829
ag45
aF1.0
aasbsI4
(imyfunction
mondai
p58
(dp59
g3
S'2017-11-10 01:39:02'
p60
sg5
F0.009372560939863038
sg6
S'4.jpg'
p61
sg8
(lp62
S'answer is 2'
p63
asg13
(lp64
g15
asg16
F1.9999896568544426
sg17
F1510245542.96
sg18
I1
sg19
(lp65
(lp66
F1498545978.31
aS'2017-06-27 15:46:18'
p67
aI0
aa(lp68
F1499798420.515
aS'2017-07-12 03:40:20'
p69
aI1
aa(lp70
F1507257126.788
aS'2017-10-06 11:32:06'
p71
aF0.0
aa(lp72
F1510245542.96
ag60
aF1.0
aasbsI5
(imyfunction
mondai
p73
(dp74
g3
S'2017-10-06 11:32:40'
p75
sg5
F0.00020083925120827366
sg6
S'5.jpg'
p76
sg8
(lp77
S'answer is 3'
p78
asg13
(lp79
g15
asg16
F1.9999994359480904
sg17
F1507257160.377
sg18
I1
sg19
(lp80
(lp81
F1498555372.608
aS'2017-06-27 18:22:52'
p82
aI0
aa(lp83
F1499798506.186
aS'2017-07-12 03:41:46'
p84
aI1
aa(lp85
F1507257160.377
ag75
aF1.0
aasbsI6
(imyfunction
mondai
p86
(dp87
g3
S'2017-10-06 11:35:03'
p88
sg5
F0.00020087622631687294
sg6
S'6.jpg'
p89
sg8
(lp90
S'answer is 5'
p91
asg13
(lp92
g15
asg16
F1.999999434604304
sg17
F1507257303.532
sg18
I1
sg19
(lp93
(lp94
F1498555731.783
aS'2017-06-27 18:28:51'
p95
aI0
aa(lp96
F1499798659.768
aS'2017-07-12 03:44:19'
p97
aI1
aa(lp98
F1507257303.532
ag88
aF1.0
aasbsI7
(imyfunction
mondai
p99
(dp100
g3
S'2017-10-06 11:36:30'
p101
sg5
F0.00020089792484649405
sg6
S'7.jpg'
p102
sg8
(lp103
S'answer is 1'
p104
asg13
(lp105
g15
asg16
F1.9999989826526265
sg17
F1507257390.81
sg18
I1
sg19
(lp106
(lp107
F1498606533.242
aS'2017-06-28 08:35:33'
p108
aI0
aa(lp109
F1499798707.42
aS'2017-07-12 03:45:07'
p110
aI1
aa(lp111
F1507257390.81
ag101
aF1.0
aasbsI8
(imyfunction
mondai
p112
(dp113
g3
S'2017-10-06 11:37:55'
p114
sg5
F0.00020091945212080266
sg6
S'8.jpg'
p115
sg8
(lp116
S'answer is 4'
p117
asg13
(lp118
g15
asg16
F1.9999988380450375
sg17
F1507257475.181
sg18
I1
sg19
(lp119
(lp120
F1498618047.081
aS'2017-06-28 11:47:27'
p121
aI0
aa(lp122
F1499798738.24
aS'2017-07-12 03:45:38'
p123
aI1
aa(lp124
F1507257475.181
ag114
aF1.0
aasbsI9
(imyfunction
mondai
p125
(dp126
g3
S'2017-11-09 06:02:05'
p127
sg5
F0.008559225475610352
sg6
S'9.jpg'
p128
sg8
(lp129
S'answer is 2'
p130
asg13
(lp131
g15
asg16
F1.9999971893537065
sg17
F1510174925.191
sg18
I1
sg19
(lp132
(lp133
F1498631047.991
aS'2017-06-28 15:24:07'
p134
aI0
aa(lp135
F1506861805.88
aS'2017-10-01 21:43:25'
p136
aF1.0
aa(lp137
F1510174925.191
ag127
aF1.0
aasbsI10
(imyfunction
mondai
p138
(dp139
g3
S'2017-11-09 06:04:01'
p140
sg5
F0.008560510184273944
sg6
S'10.jpg'
p141
sg8
(lp142
S'answer is 4'
p143
aS'0'
p144
asg13
(lp145
g15
asg16
F1.9999971843910664
sg17
F1510175041.917
sg18
I1
sg19
(lp146
(lp147
F1498631158.414
aS'2017-06-28 15:25:58'
p148
aI0
aa(lp149
F1506862379.862
aS'2017-10-01 21:52:59'
p150
aF1.0
aa(lp151
F1510175041.917
ag140
aF1.0
aasbsI11
(imyfunction
mondai
p152
(dp153
g3
S'2017-11-08 02:40:58'
p154
sg5
F0.0008246035776540702
sg6
S'11.jpg'
p155
sg8
(lp156
(lp157
F1499144054.099
aS'2017-07-04 13:54:14'
p158
aS'answer 2,3,2'
p159
aasg13
(lp160
g15
asg16
F1.659999984947714
sg17
F1510076458.722
sg18
I3
sg19
(lp161
(lp162
F1499144054.099
ag158
aI0
aa(lp163
F1506863025.03
aS'2017-10-01 22:03:45'
p164
aF0.66
aa(lp165
F1510076458.722
ag154
aF1.0
aasbsI12
(imyfunction
mondai
p166
(dp167
g3
S'2017-11-09 06:10:31'
p168
sg5
F0.008564798237330152
sg6
S'12.jpg'
p169
sg8
(lp170
(lp171
F1499144401.683
aS'2017-07-04 14:00:01'
p172
aS'answer 3'
p173
aasg13
(lp174
g15
asg16
F1.9999971774088379
sg17
F1510175431.355
sg18
I1
sg19
(lp175
(lp176
F1499144401.683
ag172
aI0
aa(lp177
F1506863411.276
aS'2017-10-01 22:10:11'
p178
aF1.0
aa(lp179
F1510175431.355
ag168
aF1.0
aasbsI13
(imyfunction
mondai
p180
(dp181
g3
S'2017-11-09 06:35:34'
p182
sg5
F0.008968069400151869
sg6
S'13.jpg'
p183
sg8
(lp184
(lp185
F1499144716.146
aS'2017-07-04 14:05:16'
p186
aS'answer 3'
p187
aasg13
(lp188
g15
asg16
F2.0084683106613053
sg17
F1510176934.825
sg18
I1
sg19
(lp189
F1499144716.146
ag186
aI0
a(lp190
F1506870083.757
aS'2017-10-02 00:01:23'
p191
aF1.0
aa(lp192
F1510176934.825
ag182
aF1.0
aasbsI14
(imyfunction
mondai
p193
(dp194
g3
S'2017-11-09 06:13:06'
p195
sg5
F6.286546452643064e-07
sg6
S'14.jpg'
p196
sg8
(lp197
sg13
(lp198
S'math'
p199
asg16
F0.9999971718664313
sg17
F1510175586.982
sg18
I1
sg19
(lp200
(lp201
F1499153099.088
aS'2017-07-04 16:24:59'
p202
aI0
aa(lp203
F1506864075.366
aS'2017-10-01 22:21:15'
p204
aF1.0
aa(lp205
F1510175586.982
ag195
aF0.0
aasbsI15
(imyfunction
mondai
p206
(dp207
g3
S'2017-11-09 06:13:34'
p208
sg5
F0.008566816846689428
sg6
S'15.png'
p209
sg8
(lp210
sg13
(lp211
g199
asg16
F1.9999971616315089
sg17
F1510175614.667
sg18
I1
sg19
(lp212
(lp213
F1499166125.188
aS'2017-07-04 20:02:05'
p214
aI0
aa(lp215
F1506865039.394
aS'2017-10-01 22:37:19'
p216
aF1.0
aa(lp217
F1510175614.667
ag208
aF1.0
aasbsI16
(imyfunction
mondai
p218
(dp219
g3
S'2017-11-08 02:49:08'
p220
sg5
F6.7849208401421706e-12
sg6
S'16.png'
p221
sg8
(lp222
S'\xbb\xad\xcd\xbc\xba\xf3\xd5\xd2\xbd\xbb\xb5\xe3'
p223
asg13
(lp224
S'math'
p225
asg16
F0.48845449312673217
sg17
F1510076948.597
sg18
I1
sg19
(lp226
(lp227
F1499170126.383
aS'2017-07-04 21:08:46'
p228
aI0
aa(lp229
F1506867140.211
aS'2017-10-01 23:12:20'
p230
aF0.5
aa(lp231
F1507534794.363
aS'2017-10-09 16:39:54'
p232
aF0.0
aa(lp233
F1510076948.597
ag220
aF0.0
aasbsI17
(imyfunction
mondai
p234
(dp235
g3
S'2017-11-09 06:16:55'
p236
sg5
F0.00856902439317458
sg6
S'17.jpg'
p237
sg8
(lp238
S'answer is 4'
p239
asg13
(lp240
S'chemistry'
p241
asg16
F1.9999971355591923
sg17
F1510175815.123
sg18
I1
sg19
(lp242
(lp243
F1499177974.623
aS'2017-07-04 23:19:34'
p244
aI0
aa(lp245
F1506867609.907
aS'2017-10-01 23:20:09'
p246
aF1.0
aa(lp247
F1510175815.123
ag236
aF1.0
aasbsI18
(imyfunction
mondai
p248
(dp249
g3
S'2017-11-09 06:19:35'
p250
sg5
F0.008570788902984846
sg6
S'18.jpg'
p251
sg8
(lp252
S'answer is 1'
p253
asg13
(lp254
g241
asg16
F1.9999971186511467
sg17
F1510175975.296
sg18
I1
sg19
(lp255
(lp256
F1499178166.958
aS'2017-07-04 23:22:46'
p257
aI0
aa(lp258
F1506869295.572
aS'2017-10-01 23:48:15'
p259
aF1.0
aa(lp260
F1510175975.296
ag250
aF1.0
aasbsI19
(imyfunction
mondai
p261
(dp262
g3
S'2017-11-10 21:31:51'
p263
sg5
F1.2518596823977443e-18
sg6
S'19.jpg'
p264
sg8
(lp265
sg13
(lp266
g225
asg16
F-0.00046385259296134783
sg17
F1510317111.725
sg18
I1
sg19
(lp267
(lp268
F1499238201.632
aS'2017-07-05 16:03:21'
p269
aI0
aa(lp270
F1506870571.946
aS'2017-10-02 00:09:31'
p271
aF0.0
aa(lp272
F1507533773.486
aS'2017-10-09 16:22:53'
p273
aF0.0
aa(lp274
F1509828586.897
aS'2017-11-05 05:49:46'
p275
aF0.0
aa(lp276
F1510317111.725
ag263
aF0.0034926146518221945
aasbsI20
(imyfunction
mondai
p277
(dp278
g3
S'2017-11-10 04:17:50'
p279
sg5
F1.344771929719497e-05
sg6
S'20.jpg'
p280
sg8
(lp281
sg13
(lp282
g225
asg16
F1.2
sg17
F1510255070.117
sg18
I9
sg19
(lp283
(lp284
F1499509485.541
aS'2017-07-08 19:24:45'
p285
aF0.2
aa(lp286
F1506953525.889
aS'2017-10-02 23:12:05'
p287
aF1.0
aa(lp288
F1510255070.117
ag279
aF3.6257228230155554e-05
aasbsI21
(imyfunction
mondai
p289
(dp290
g3
S'2017-11-10 00:48:02'
p291
sg5
F8.137979070963289e-07
sg6
S'21.jpg'
p292
sg8
(lp293
sg13
(lp294
g241
asg16
F1.0
sg17
F1510242482.781
sg18
I2
sg19
(lp295
(lp296
F1499516368.113
aS'2017-07-08 21:19:28'
p297
aF0.5
aa(lp298
F1506960420.575
aS'2017-10-03 01:07:00'
p299
aF0.5
aa(lp300
F1510242482.781
ag291
aF3.168421545306915e-06
aasbsI22
(imyfunction
mondai
p301
(dp302
g3
S'2017-11-10 12:06:47'
p303
sg5
F9.50100728510309e-07
sg6
S'22.jpg'
p304
sg8
(lp305
sg13
(lp306
g241
asg16
F0.9998515159322269
sg17
F1510283207.711
sg18
I1
sg19
(lp307
(lp308
F1499530900.691
aS'2017-07-09 01:21:40'
p309
aI0
aa(lp310
F1506870697.511
aS'2017-10-02 00:11:37'
p311
aF0.0
aa(lp312
F1509521588.869
aS'2017-11-01 16:33:08'
p313
aF0.0
aa(lp314
F1510283207.711
ag303
aF1.0
aasbsI23
(imyfunction
mondai
p315
(dp316
g3
S'2017-11-04 21:09:48'
p317
sg5
F1.4613470800954098e-07
sg6
S'23.jpg'
p318
sg8
(lp319
sg13
(lp320
g241
asg16
F0.999999999999998
sg17
F1509797388.893
sg18
I1
sg19
(lp321
(lp322
F1499530950.137
aS'2017-07-09 01:22:30'
p323
aI0
aa(lp324
F1506870960.973
aS'2017-10-02 00:16:00'
p325
aF0.0
aa(lp326
F1509797388.893
ag317
aF1.0
aasbsI24
(imyfunction
mondai
p327
(dp328
g3
S'2017-11-09 06:23:59'
p329
sg5
F0.008573705794253197
sg6
S'24.jpg'
p330
sg8
(lp331
sg13
(lp332
S'chemistry'
p333
asg16
F1.9999971002688575
sg17
F1510176239.965
sg18
I1
sg19
(lp334
(lp335
F1499547136.371
aS'2017-07-09 05:52:16'
p336
aI0
aa(lp337
F1506871208.62
aS'2017-10-02 00:20:08'
p338
aF1.0
aa(lp339
F1510176239.965
ag329
aF1.0
aasbsI25
(imyfunction
mondai
p340
(dp341
g3
S'2017-11-04 21:12:20'
p342
sg5
F1.4622003397184458e-07
sg6
S'25.jpg'
p343
sg8
(lp344
sg13
(lp345
g333
asg16
F0.999999999999998
sg17
F1509797540.192
sg18
I1
sg19
(lp346
(lp347
F1499547377.744
aS'2017-07-09 05:56:17'
p348
aI0
aa(lp349
F1506871351.16
aS'2017-10-02 00:22:31'
p350
aF0.0
aa(lp351
F1509797540.192
ag342
aF1.0
aasbsI26
(imyfunction
mondai
p352
(dp353
g3
S'2017-11-04 21:13:38'
p354
sg5
F1.4626421522951216e-07
sg6
S'26.jpg'
p355
sg8
(lp356
sg13
(lp357
g333
asg16
F0.999999999999998
sg17
F1509797618.499
sg18
I1
sg19
(lp358
(lp359
F1499547423.422
aS'2017-07-09 05:57:03'
p360
aI0
aa(lp361
F1506871509.021
aS'2017-10-02 00:25:09'
p362
aF0.0
aa(lp363
F1509797618.499
ag354
aF1.0
aasbsI27
(imyfunction
mondai
p364
(dp365
g3
S'2017-11-09 06:27:07'
p366
sg5
F0.008575777113236554
sg6
S'27.jpg'
p367
sg8
(lp368
sg13
(lp369
g333
asg16
F1.9999970958069908
sg17
F1510176427.82
sg18
I1
sg19
(lp370
(lp371
F1499547463.182
aS'2017-07-09 05:57:43'
p372
aI0
aa(lp373
F1506871795.004
aS'2017-10-02 00:29:55'
p374
aF1.0
aa(lp375
F1510176427.82
ag366
aF1.0
aasbsI28
(imyfunction
mondai
p376
(dp377
g3
S'2017-11-09 06:27:56'
p378
sg5
F0.008576308938241227
sg6
S'28.jpg'
p379
sg8
(lp380
sg13
(lp381
g333
asg16
F1.9999970953274455
sg17
F1510176476.043
sg18
I1
sg19
(lp382
(lp383
F1499616196.736
aS'2017-07-10 01:03:16'
p384
aI0
aa(lp385
F1506871886.023
aS'2017-10-02 00:31:26'
p386
aF1.0
aa(lp387
F1510176476.043
ag378
aF1.0
aasbsI29
(imyfunction
mondai
p388
(dp389
g3
S'2017-11-10 17:47:01'
p390
sg5
F0.0005347269934230251
sg6
S'29.jpg'
p391
sg8
(lp392
sg13
(lp393
S'math'
p394
asg16
F1.55
sg17
F1510303621.712
sg18
I5
sg19
(lp395
(lp396
F1499616732.384
aS'2017-07-10 01:12:12'
p397
aF0.75
aa(lp398
F1507133998.435
aS'2017-10-05 01:19:58'
p399
aF0.8
aa(lp400
F1510303621.712
ag390
aF0.0012523149575140477
aasbsI30
(imyfunction
mondai
p401
(dp402
g3
S'2017-11-09 06:28:42'
p403
sg5
F0.008576817889952845
sg6
S'30.png'
p404
sg8
(lp405
sg13
(lp406
g333
asg16
F1.9999970954033226
sg17
F1510176522.187
sg18
I1
sg19
(lp407
(lp408
F1499680704.857
aS'2017-07-10 18:58:24'
p409
aI0
aa(lp410
F1506871925.396
aS'2017-10-02 00:32:05'
p411
aF1.0
aa(lp412
F1510176522.187
ag403
aF1.0
aasbsI31
(imyfunction
mondai
p413
(dp414
g3
S'2017-11-08 02:57:56'
p415
sg5
F4.18728408884532e-09
sg6
S'31.jpg'
p416
sg8
(lp417
sg13
(lp418
g394
asg16
F0.7499998687086434
sg17
F1510077476.955
sg18
I10
sg19
(lp419
(lp420
F1499797297.774
aS'2017-07-12 03:21:37'
p421
aF0.45
aa(lp422
F1506956646.764
aS'2017-10-03 00:04:06'
p423
aF0.3
aa(lp424
F1510077476.955
ag415
aI0
aasbsI32
(imyfunction
mondai
p425
(dp426
g3
S'2017-11-08 03:25:45'
p427
sg5
F0.0022789664769246234
sg6
S'32.jpg'
p428
sg8
(lp429
sg13
(lp430
g394
asg16
F1.7999997021333627
sg17
F1510079145.189
sg18
I4
sg19
(lp431
(lp432
F1499797470.167
aS'2017-07-12 03:24:30'
p433
aF0.05
aa(lp434
F1506952547.162
aS'2017-10-02 22:55:47'
p435
aF0.75
aa(lp436
F1510079145.189
ag427
aF1.0
aasbsI33
(imyfunction
mondai
p437
(dp438
g3
S'2017-11-10 00:47:57'
p439
sg5
F8.137803095354738e-07
sg6
S'33.jpg'
p440
sg8
(lp441
sg13
(lp442
S'physics'
p443
asg16
F1.0
sg17
F1510242477.176
sg18
I1
sg19
(lp444
(lp445
F1500064604.639
aS'2017-07-15 05:36:44'
p446
aI0
aa(lp447
F1506951237.584
aS'2017-10-02 22:33:57'
p448
aF1.0
aa(lp449
F1510242477.176
ag439
aF3.0582013433489607e-06
aasbsI34
(imyfunction
mondai
p450
(dp451
g3
S'2017-11-11 12:18:53'
p452
sg5
F1.6144100190292199e-16
sg6
S'34.jpg'
p453
sg8
(lp454
sg13
(lp455
S'physical'
p456
asg16
F0.0999999999998754
sg17
F1510370333.444
sg18
I9
sg19
(lp457
(lp458
F1502980173.751
aS'2017-08-17 23:29:33'
p459
aF0.0
aa(lp460
F1506961022.079
aS'2017-10-03 01:17:02'
p461
aF0.1
aa(lp462
F1509826394.119
aS'2017-11-05 05:13:14'
p463
aI0
aa(lp464
F1510370333.444
ag452
aF0.003550770207096668
aasbsI35
(imyfunction
mondai
p465
(dp466
g3
S'2017-11-10 17:46:46'
p467
sg5
F0.0003494325468441862
sg6
S'35.jpeg'
p468
sg8
(lp469
sg13
(lp470
S'physical'
p471
asg16
F1.49999999999965
sg17
F1510303606.019
sg18
I2
sg19
(lp472
(lp473
F1502986373.885
aS'2017-08-18 01:12:53'
p474
aF0.5
aa(lp475
F1507278514.74
aS'2017-10-06 17:28:34'
p476
aF1.0
aa(lp477
F1510303606.019
ag467
aF0.001184796925613612
aasbsI36
(imyfunction
mondai
p478
(dp479
g3
S'2017-11-05 03:29:36'
p480
sg5
F1.1338557838553152e-09
sg6
S'36.jpeg'
p481
sg8
(lp482
sg13
(lp483
S'physical'
p484
asg16
F0.7499999999999987
sg17
F1509820176.122
sg18
I0
sg19
(lp485
(lp486
F1503074370.742
aS'2017-08-19 01:39:30'
p487
aF0.75
aa(lp488
F1509820176.122
ag480
aF0.0
aasbsI37
(imyfunction
mondai
p489
(dp490
g3
S'2017-11-10 00:47:54'
p491
sg5
F1.5972457605087966e-07
sg6
S'37.jpeg'
p492
sg8
(lp493
sg13
(lp494
S'physical'
p495
asg16
F0.8999999999889152
sg17
F1510242474.931
sg18
I3
sg19
(lp496
(lp497
F1503075931.234
aS'2017-08-19 02:05:31'
p498
aF0.6
aa(lp499
F1507289261.527
aS'2017-10-06 20:27:41'
p500
aF0.3
aa(lp501
F1510242474.931
ag491
aF3.000811606169686e-06
aasbsI38
(imyfunction
mondai
p502
(dp503
g3
S'2017-11-05 04:29:12'
p504
sg5
F3.46856142556014e-09
sg6
S'38.jpeg'
p505
sg8
(lp506
sg13
(lp507
S'physical'
p508
asg16
F0.7999999999999916
sg17
F1509823752.627
sg19
(lp509
(lp510
F1503080033.486
aS'2017-08-19 03:13:53'
p511
aF0.8
aa(lp512
F1509823752.627
ag504
aI0
aasbsI39
(imyfunction
mondai
p513
(dp514
g3
S'2017-11-05 03:55:14'
p515
sg5
F1.1427485435875618e-09
sg6
S'39.jpeg'
p516
sg8
(lp517
sg13
(lp518
S'physical'
p519
asg16
F0.7499999999999987
sg17
F1509821714.758
sg19
(lp520
(lp521
F1503081729.58
aS'2017-08-19 03:42:09'
p522
aF0.75
aa(lp523
F1509821714.758
ag515
aI0
aasbsI40
(imyfunction
mondai
p524
(dp525
g3
S'2017-11-05 05:13:17'
p526
sg5
F2.662386422961491e-08
sg6
S'40.jpeg'
p527
sg8
(lp528
sg13
(lp529
S'physical'
p530
asg16
F0.8999999999997552
sg17
F1509826397.326
sg19
(lp531
(lp532
F1503082748.531
aS'2017-08-19 03:59:08'
p533
aF0.9
aa(lp534
F1509826397.326
ag526
aI0
aasbsI41
(imyfunction
mondai
p535
(dp536
g3
S'2017-11-08 02:57:51'
p537
sg5
F1.3213166060272886e-10
sg6
S'41.jpg'
p538
sg8
(lp539
sg13
(lp540
S'physical'
p541
asg16
F0.5999999433621535
sg17
F1510077471.085
sg18
I2
sg19
(lp542
(lp543
F1503222950.967
aS'2017-08-20 18:55:50'
p544
aF0.6
aa(lp545
F1507290283.108
aS'2017-10-06 20:44:43'
p546
aF0.0
aa(lp547
F1510077471.085
ag537
aI0
aasbsI42
(imyfunction
mondai
p548
(dp549
g3
S'2017-11-11 12:19:31'
p550
sg5
F7.098871206403302e-15
sg6
S'42.jpg'
p551
sg8
(lp552
sg13
(lp553
S'physical'
p554
asg16
F0.1999999999863407
sg17
F1510370371.335
sg18
I4
sg19
(lp555
(lp556
F1503226800.354
aS'2017-08-20 20:00:00'
p557
aF0.2
aa(lp558
F1507136143.167
aS'2017-10-05 01:55:43'
p559
aF0.0
aa(lp560
F1509828709.84
aS'2017-11-05 05:51:49'
p561
aI0
aa(lp562
F1510370371.335
ag550
aF0.006522016348140497
aasbsI43
(imyfunction
mondai
p563
(dp564
g3
S'2017-11-10 20:59:56'
p565
sg5
F1.075582323634471e-18
sg6
S'43.png'
p566
sg8
(lp567
sg13
(lp568
S'chemistry'
p569
asg16
F-0.003319270635363292
sg17
F1510315196.155
sg18
I1
sg19
(lp570
(lp571
F1503232569.843
aS'2017-08-20 21:36:09'
p572
aF0.0
aa(lp573
F1506961237.95
aS'2017-10-03 01:20:37'
p574
aF0.0
aa(lp575
F1509822024.073
aS'2017-11-05 04:00:24'
p576
aF0.0
aa(lp577
F1510315196.155
ag565
aF0.0
aasbsI44
(imyfunction
mondai
p578
(dp579
g3
S'2017-11-06 19:21:32'
p580
sg5
F4.4018206550344255e-12
sg6
S'44.png'
p581
sg8
(lp582
sg13
(lp583
S'chemistry'
p584
asg16
F0.4999999835560617
sg17
F1509963692.496
sg18
I1
sg19
(lp585
(lp586
F1503233740.794
aS'2017-08-20 21:55:40'
p587
aF0.5
aa(lp588
F1507281467.536
aS'2017-10-06 18:17:47'
p589
aF0.0
aa(lp590
F1509963692.496
ag580
aI0
aasbsI45
(imyfunction
mondai
p591
(dp592
g3
S'2017-11-10 21:01:16'
p593
sg5
F1.0242115569481501e-06
sg6
S'45.png'
p594
sg8
(lp595
sg13
(lp596
S'chemistry'
p597
asg16
F0.9966360255419314
sg17
F1510315276.994
sg18
I1
sg19
(lp598
(lp599
F1503244261.055
aS'2017-08-21 00:51:01'
p600
aF0.0
aa(lp601
F1506961481.977
aS'2017-10-03 01:24:41'
p602
aF0.0
aa(lp603
F1509823260.778
aS'2017-11-05 04:21:00'
p604
aF0.0
aa(lp605
F1510315276.994
ag593
aF1.0
aasbsI46
(imyfunction
mondai
p606
(dp607
g3
S'2017-11-09 02:18:50'
p608
sg5
F0.0018581931051298408
sg6
S'46.png'
p609
sg8
(lp610
S'answer is 7'
p611
asg13
(lp612
S'chemistry'
p613
asg16
F1.74999899477274
sg17
F1510161530.909
sg18
I1
sg19
(lp614
(lp615
F1503245428.763
aS'2017-08-21 01:10:28'
p616
aF0.75
aa(lp617
F1507441491.578
aS'2017-10-08 14:44:51'
p618
aF0.0
aa(lp619
F1510161530.909
ag608
aF1.0
aasbsI47
(imyfunction
mondai
p620
(dp621
g3
S'2017-11-10 21:01:26'
p622
sg5
F1.251697995270353e-18
sg6
S'47.png'
p623
sg8
(lp624
sg13
(lp625
S'chemistry'
p626
asg16
F-4.172044961230156e-15
sg17
F1510315286.071
sg18
I1
sg19
(lp627
(lp628
F1503246725.658
aS'2017-08-21 01:32:05'
p629
aF0.0
aa(lp630
F1506962586.658
aS'2017-10-03 01:43:06'
p631
aF0.0
aa(lp632
F1509823326.98
aS'2017-11-05 04:22:06'
p633
aF0.0
aa(lp634
F1510315286.071
ag622
aF0.003366199349054768
aasbsI48
(imyfunction
mondai
p635
(dp636
g3
S'2017-11-10 21:03:25'
p637
sg5
F1.0756346264036726e-18
sg6
S'48.png'
p638
sg8
(lp639
sg13
(lp640
S'chemistry'
p641
asg16
F-0.003371679138092495
sg17
F1510315405.404
sg18
I1
sg19
(lp642
(lp643
F1503247314.318
aS'2017-08-21 01:41:54'
p644
aF0.0
aa(lp645
F1506962765.807
aS'2017-10-03 01:46:05'
p646
aF0.0
aa(lp647
F1509823586.848
aS'2017-11-05 04:26:26'
p648
aF0.0
aa(lp649
F1510315405.404
ag637
aF0.0
aasbsI49
(imyfunction
mondai
p650
(dp651
g3
S'2017-11-10 00:48:16'
p652
sg5
F8.138405415532783e-07
sg6
S'49.png'
p653
sg8
(lp654
sg13
(lp655
S'chemistry'
p656
asg16
F1.0
sg17
F1510242496.36
sg18
I0
sg19
(lp657
(lp658
F1503255138.538
aS'2017-08-21 03:52:18'
p659
aF0.0
aa(lp660
F1506963689.996
aS'2017-10-03 02:01:29'
p661
aF1.0
aa(lp662
F1510242496.36
ag652
aF3.2084714741959216e-06
aasbsI50
(imyfunction
mondai
p663
(dp664
g3
S'2017-11-10 21:05:54'
p665
sg5
F1.0774806391094058e-18
sg6
S'50.png'
p666
sg8
(lp667
sg13
(lp668
S'chemistry'
p669
asg16
F-0.003371991852419489
sg17
F1510315554.233
sg18
I1
sg19
(lp670
(lp671
F1503268622.629
aS'2017-08-21 07:37:02'
p672
aF0.0
aa(lp673
F1506965281.311
aS'2017-10-03 02:28:01'
p674
aF0.0
aa(lp675
F1509823743.69
aS'2017-11-05 04:29:03'
p676
aF0.0
aa(lp677
F1510315554.233
ag665
aF0.0
aasbsI51
(imyfunction
mondai
p678
(dp679
g3
S'2017-11-10 01:43:50'
p680
sg5
F0.0003072076460579027
sg6
S'51.jpg'
p681
sg8
(lp682
sg13
(lp683
S'chemistry'
p684
asg16
F1.499989193858584
sg17
F1510245830.671
sg18
I2
sg19
(lp685
(lp686
F1503269475.48
aS'2017-08-21 07:51:15'
p687
aF0.5
aa(lp688
F1507281775.99
aS'2017-10-06 18:22:55'
p689
aF0.5
aa(lp690
F1510245830.671
ag680
aF0.5
aasbsI52
(imyfunction
mondai
p691
(dp692
g3
S'2017-11-11 12:19:28'
p693
sg5
F0.001892594896956983
sg6
S'52.jpg'
p694
sg8
(lp695
sg13
(lp696
S'chemistry'
p697
asg16
F1.699999999808111
sg17
F1510370368.186
sg18
I2
sg19
(lp698
(lp699
F1503269869.663
aS'2017-08-21 07:57:49'
p700
aF0.7
aa(lp701
F1507440909.042
aS'2017-10-08 14:35:09'
p702
aF1.0
aa(lp703
F1510370368.186
ag693
aF0.005310734985207818
aasbsI53
(imyfunction
mondai
p704
(dp705
g3
S'2017-11-10 05:08:39'
p706
sg5
F1.3575312029433561e-05
sg6
S'53.png'
p707
sg8
(lp708
sg13
(lp709
S'math'
p710
asg16
F1.1999999999991968
sg17
F1510258119.306
sg18
I4
sg19
(lp711
(lp712
F1503336047.871
aS'2017-08-22 02:20:47'
p713
aF0.45
aa(lp714
F1507281027.181
aS'2017-10-06 18:10:27'
p715
aF0.75
aa(lp716
F1510258119.306
ag706
aF9.903426234928226e-05
aasbsI54
(imyfunction
mondai
p717
(dp718
g3
S'2017-11-09 02:09:55'
p719
sg5
F1.6737587784316628e-10
sg6
S'54.png'
p720
sg8
(lp721
sg13
(lp722
S'math'
p723
asg16
F0.5892772470714089
sg17
F1510160995.619
sg18
I6
sg19
(lp724
(lp725
F1503352854.527
aS'2017-08-22 07:00:54'
p726
aF0.1
aa(lp727
F1507038521.394
aS'2017-10-03 22:48:41'
p728
aF0.5
aa(lp729
F1507796053.214
aS'2017-10-12 17:14:13'
p730
aF0.0
aa(lp731
F1510160995.619
ag719
aF5.9970340795608e-07
aasbsI55
(imyfunction
mondai
p732
(dp733
g3
S'2017-11-08 02:57:59'
p734
sg5
F4.1873338644781806e-09
sg6
S'55.jpg'
p735
sg8
(lp736
sg13
(lp737
S'physical'
p738
asg16
F0.749999834494601
sg17
F1510077479.439
sg18
I4
sg19
(lp739
(lp740
F1503367103.179
aS'2017-08-22 10:58:23'
p741
aF0.0
aa(lp742
F1507002259.751
aS'2017-10-03 12:44:19'
p743
aF0.75
aa(lp744
F1510077479.439
ag734
aI0
aasbsI56
(imyfunction
mondai
p745
(dp746
g3
S'2017-11-06 19:17:58'
p747
sg5
F2.773577033782315e-07
sg6
S'56.png'
p748
sg8
(lp749
sg13
(lp750
S'chemistry'
p751
asg16
F0.9999999988648869
sg17
F1509963478.858
sg18
I5
sg19
(lp752
(lp753
F1503369253.09
aS'2017-08-22 11:34:13'
p754
aF0.4
aa(lp755
F1507201861.287
aS'2017-10-05 20:11:01'
p756
aF0.0
aa(lp757
F1509963478.858
ag747
aF0.6
aasbsI57
(imyfunction
mondai
p758
(dp759
g3
S'2017-11-10 02:40:10'
p760
sg5
F1.7646719716082996e-06
sg6
S'57.png'
p761
sg8
(lp762
sg13
(lp763
S'chemistry'
p764
asg16
F1.0499999999955751
sg17
F1510249210.261
sg18
I11
sg19
(lp765
(lp766
F1503370774.163
aS'2017-08-22 11:59:34'
p767
aF0.5
aa(lp768
F1507283169.396
aS'2017-10-06 18:46:09'
p769
aF0.55
aa(lp770
F1510249210.261
ag760
aF1.9768183463229266e-05
aasbsI58
(imyfunction
mondai
p771
(dp772
g3
S'2017-11-06 19:21:37'
p773
sg5
F4.401974111982526e-12
sg6
S'58.png'
p774
sg8
(lp775
sg13
(lp776
S'chemistry'
p777
asg16
F0.4999999828586975
sg17
F1509963697.716
sg18
I4
sg19
(lp778
(lp779
F1503408670.508
aS'2017-08-22 22:31:10'
p780
aF0.5
aa(lp781
F1507287656.284
aS'2017-10-06 20:00:56'
p782
aF0.0
aa(lp783
F1509963697.716
ag773
aI0
aasbsI59
(imyfunction
mondai
p784
(dp785
g3
S'2017-11-10 05:06:50'
p786
sg5
F3.6930600640086108e-06
sg6
S'59.png'
p787
sg8
(lp788
sg13
(lp789
S'chemistry'
p790
asg16
F1.0999999999612475
sg17
F1510258010.786
sg18
I6
sg19
(lp791
(lp792
F1503436269.897
aS'2017-08-23 06:11:09'
p793
aF0.6
aa(lp794
F1507440544.214
aS'2017-10-08 14:29:04'
p795
aF0.5
aa(lp796
F1510258010.786
ag786
aF5.894303528264895e-05
aasbsI60
(imyfunction
mondai
p797
(dp798
g3
S'2017-11-10 21:05:58'
p799
sg5
F1.2556526411321327e-18
sg6
S'60.png'
p800
sg8
(lp801
sg13
(lp802
S'chemistry'
p803
asg16
F-9.766279327418483e-15
sg17
F1510315558.615
sg18
I1
sg19
(lp804
(lp805
F1503528368.119
aS'2017-08-24 07:46:08'
p806
aF0.0
aa(lp807
F1507036487.553
aS'2017-10-03 22:14:47'
p808
aF0.0
aa(lp809
F1509823758.363
aS'2017-11-05 04:29:18'
p810
aI0
aa(lp811
F1510315558.615
ag799
aF0.0033723935102214484
aasbsI61
(imyfunction
mondai
p812
(dp813
g3
S'2017-11-10 00:48:37'
p814
sg5
F8.139076861678328e-07
sg6
S'61.png'
p815
sg8
(lp816
sg13
(lp817
S'chemistry'
p818
asg16
F1.0
sg17
F1510242517.744
sg18
I1
sg19
(lp819
(lp820
F1503759535.555
aS'2017-08-26 23:58:55'
p821
aF0.0
aa(lp822
F1507038828.001
aS'2017-10-03 22:53:48'
p823
aF1.0
aa(lp824
F1510242517.744
ag814
aF4.287039605220347e-06
aasbsI62
(imyfunction
mondai
p825
(dp826
g3
S'2017-11-10 21:07:52'
p827
sg5
F1.0256651900009293e-06
sg6
S'62.png'
p828
sg8
(lp829
S'\xa5\xa6 u'
p830
asg13
(lp831
S'chemistry'
p832
asg16
F0.9966286678850491
sg17
F1510315672.038
sg18
I1
sg19
(lp833
(lp834
F1503759908.733
aS'2017-08-27 00:05:08'
p835
aF0.0
aa(lp836
F1507039091.306
aS'2017-10-03 22:58:11'
p837
aF0.0
aa(lp838
F1509823844.589
aS'2017-11-05 04:30:44'
p839
aF0.0
aa(lp840
F1510315672.038
ag827
aF1.0
aasbsI63
(imyfunction
mondai
p841
(dp842
g3
S'2017-11-10 21:09:35'
p843
sg5
F1.2588114203963877e-18
sg6
S'63.png'
p844
sg8
(lp845
sg13
(lp846
S'chemistry'
p847
asg16
F-1.0141916949802507e-14
sg17
F1510315775.694
sg18
I1
sg19
(lp848
(lp849
F1503760438.814
aS'2017-08-27 00:13:58'
p850
aF0.0
aa(lp851
F1507039581.643
aS'2017-10-03 23:06:21'
p852
aF0.0
aa(lp853
F1509823851.767
aS'2017-11-05 04:30:51'
p854
aI0
aa(lp855
F1510315775.694
ag843
aF0.003367569639851451
aasbsI64
(imyfunction
mondai
p856
(dp857
g3
S'2017-11-10 21:10:21'
p858
sg5
F1.0261794506161553e-06
sg6
S'64.png'
p859
sg8
(lp860
sg13
(lp861
S'chemistry'
p862
asg16
F0.9966234692981929
sg17
F1510315821.824
sg18
I1
sg19
(lp863
(lp864
F1503761237.292
aS'2017-08-27 00:27:17'
p865
aF0.0
aa(lp866
F1507040252.843
aS'2017-10-03 23:17:32'
p867
aF0.0
aa(lp868
F1509824127.501
aS'2017-11-05 04:35:27'
p869
aF0.0
aa(lp870
F1510315821.824
ag858
aF1.0
aasbsI65
(imyfunction
mondai
p871
(dp872
g3
S'2017-11-10 21:10:48'
p873
sg5
F1.2598796339384695e-18
sg6
S'65.png'
p874
sg8
(lp875
sg13
(lp876
S'chemistry'
p877
asg16
F-1.1117809480287911e-14
sg17
F1510315848.981
sg18
I1
sg19
(lp878
(lp879
F1503763238.777
aS'2017-08-27 01:00:38'
p880
aF0.0
aa(lp881
F1507047848.101
aS'2017-10-04 01:24:08'
p882
aF0.0
aa(lp883
F1509824140.149
aS'2017-11-05 04:35:40'
p884
aI0
aa(lp885
F1510315848.981
ag873
aF0.0033759637345401245
aasbsI66
(imyfunction
mondai
p886
(dp887
g3
S'2017-11-09 02:58:42'
p888
sg5
F1.7789626965151317e-08
sg6
S'66.png'
p889
sg8
(lp890
sg13
(lp891
S'chemistry'
p892
asg16
F0.7999999793676873
sg17
F1510163922.279
sg18
I0
sg19
(lp893
(lp894
F1503764305.612
aS'2017-08-27 01:18:25'
p895
aF0.8
aa(lp896
F1507446407.946
aS'2017-10-08 16:06:47'
p897
aF0.0
aa(lp898
F1510163922.279
ag888
aF2.1275505887080197e-06
aasbsI67
(imyfunction
mondai
p899
(dp900
g3
S'2017-11-10 05:08:26'
p901
sg5
F0.0007300604097523115
sg6
S'67.png'
p902
sg8
(lp903
sg13
(lp904
S'chemistry'
p905
asg16
F1.5999409048916378
sg17
F1510258106.978
sg18
I2
sg19
(lp906
(lp907
F1503776416.902
aS'2017-08-27 04:40:16'
p908
aF0.6
aa(lp909
F1507441384.391
aS'2017-10-08 14:43:04'
p910
aF0.5
aa(lp911
F1510258106.978
ag901
aF0.5
aasbsI68
(imyfunction
mondai
p912
(dp913
g3
S'2017-11-10 00:51:13'
p914
sg5
F0.00030507226858368154
sg6
S'68.png'
p915
sg8
(lp916
sg13
(lp917
S'chemistry'
p918
asg16
F1.4999955581978672
sg17
F1510242673.801
sg18
I2
sg19
(lp919
(lp920
F1503779158.5
aS'2017-08-27 05:25:58'
p921
aF0.0
aa(lp922
F1507048176.263
aS'2017-10-04 01:29:36'
p923
aF1.0
aa(lp924
F1510242673.801
ag914
aF0.5
aasbsI69
(imyfunction
mondai
p925
(dp926
g3
S'2017-11-10 21:10:56'
p927
sg5
F1.2599925761281872e-18
sg6
S'69.png'
p928
sg8
(lp929
sg13
(lp930
S'chemistry'
p931
asg16
F-2.971360052129618e-14
sg17
F1510315856.726
sg18
I1
sg19
(lp932
(lp933
F1503784585.243
aS'2017-08-27 06:56:25'
p934
aF0.0
aa(lp935
F1507132987.358
aS'2017-10-05 01:03:07'
p936
aF0.0
aa(lp937
F1509824145.905
aS'2017-11-05 04:35:45'
p938
aI0
aa(lp939
F1510315856.726
ag927
aF0.0033758860179326096
aasbsI70
(imyfunction
mondai
p940
(dp941
g3
S'2017-11-10 21:11:02'
p942
sg5
F1.2600790869204087e-18
sg6
S'70.png'
p943
sg8
(lp944
sg13
(lp945
S'chemistry'
p946
asg16
F-3.0363542966124106e-14
sg17
F1510315862.658
sg18
I2
sg19
(lp947
(lp948
F1503870311.11
aS'2017-08-28 06:45:11'
p949
aF0.0
aa(lp950
F1507134968.032
aS'2017-10-05 01:36:08'
p951
aF0.0
aa(lp952
F1509824324.927
aS'2017-11-05 04:38:44'
p953
aF0.0
aa(lp954
F1510315862.658
ag942
aF0.0033826559000527377
aasbsI71
(imyfunction
mondai
p955
(dp956
g3
S'2017-11-10 01:14:27'
p957
sg5
F8.187897297939589e-07
sg6
S'71.jpg'
p958
sg8
(lp959
sg13
(lp960
S'chemistry'
p961
asg16
F1.0
sg17
F1510244067.853
sg18
I1
sg19
(lp962
(lp963
F1503879436.234
aS'2017-08-28 09:17:16'
p964
aF0.0
aa(lp965
F1507135290.64
aS'2017-10-05 01:41:30'
p966
aF1.0
aa(lp967
F1510244067.853
ag957
aF6.182800414147176e-06
aasbsI72
(imyfunction
mondai
p968
(dp969
g3
S'2017-11-06 19:21:09'
p970
sg5
F4.401140274306771e-12
sg6
S'72.png'
p971
sg8
(lp972
sg13
(lp973
S'chemistry'
p974
asg16
F0.4999999919841092
sg17
F1509963669.327
sg18
I2
sg19
(lp975
(lp976
F1504016042.217
aS'2017-08-29 23:14:02'
p977
aF0.0
aa(lp978
F1507173933.085
aS'2017-10-05 12:25:33'
p979
aF0.5
aa(lp980
F1509963669.327
ag970
aI0
aasbsI73
(imyfunction
mondai
p981
(dp982
g3
S'2017-11-10 01:14:43'
p983
sg5
F8.188396484272543e-07
sg6
S'73.png'
p984
sg8
(lp985
sg13
(lp986
S'chemistry'
p987
asg16
F0.9999999999999999
sg17
F1510244083.655
sg18
I2
sg19
(lp988
(lp989
F1504016537.49
aS'2017-08-29 23:22:17'
p990
aF0.0
aa(lp991
F1507174805.144
aS'2017-10-05 12:40:05'
p992
aF1.0
aa(lp993
F1510244083.655
ag983
aF7.2005562348047215e-06
aasbsI74
(imyfunction
mondai
p994
(dp995
g3
S'2017-11-10 21:11:07'
p996
sg5
F1.2601469638414984e-18
sg6
S'74.jpg'
p997
sg8
(lp998
sg13
(lp999
S'chemistry'
p1000
asg16
F-4.889136479525591e-14
sg17
F1510315867.312
sg18
I1
sg19
(lp1001
(lp1002
F1504018002.57
aS'2017-08-29 23:46:42'
p1003
aF0.0
aa(lp1004
F1507176030.244
aS'2017-10-05 13:00:30'
p1005
aF0.0
aa(lp1006
F1509824355.538
aS'2017-11-05 04:39:15'
p1007
aI0
aa(lp1008
F1510315867.312
ag996
aF0.0033836722980837932
aasbsI75
(imyfunction
mondai
p1009
(dp1010
g3
S'2017-11-10 21:11:28'
p1011
sg5
F1.260458451152749e-18
sg6
S'75.jpg'
p1012
sg8
(lp1013
sg13
(lp1014
S'chemistry'
p1015
asg16
F-4.922400177381359e-14
sg17
F1510315888.666
sg18
I2
sg19
(lp1016
(lp1017
F1504020346.415
aS'2017-08-30 00:25:46'
p1018
aF0.0
aa(lp1019
F1507176669.845
aS'2017-10-05 13:11:09'
p1020
aF0.0
aa(lp1021
F1509824412.386
aS'2017-11-05 04:40:12'
p1022
aI0
aa(lp1023
F1510315888.666
ag1011
aF0.0033850626306873685
aasbsI76
(imyfunction
mondai
p1024
(dp1025
g3
S'2017-11-10 01:14:49'
p1026
sg5
F8.188582304852447e-07
sg6
S'76.png'
p1027
sg8
(lp1028
sg13
(lp1029
S'chemistry'
p1030
asg16
F0.9999999999999982
sg17
F1510244089.537
sg18
I1
sg19
(lp1031
(lp1032
F1504242498.728
aS'2017-09-01 14:08:18'
p1033
aF0.0
aa(lp1034
F1507176833.07
aS'2017-10-05 13:13:53'
p1035
aF1.0
aa(lp1036
F1510244089.537
ag1026
aF7.256948136254267e-06
aasbsI77
(imyfunction
mondai
p1037
(dp1038
g3
S'2017-11-10 21:12:08'
p1039
sg5
F1.0264211473123978e-06
sg6
S'77.jpg'
p1040
sg8
(lp1041
sg13
(lp1042
S'chemistry'
p1043
asg16
F0.9966117959142737
sg17
F1510315928.308
sg18
I1
sg19
(lp1044
(lp1045
F1504242836.989
aS'2017-09-01 14:13:56'
p1046
aF0.0
aa(lp1047
F1507176917.717
aS'2017-10-05 13:15:17'
p1048
aF0.0
aa(lp1049
F1509824532.173
aS'2017-11-05 04:42:12'
p1050
aF0.0
aa(lp1051
F1510315928.308
ag1039
aF1.0
aasbsI78
(imyfunction
mondai
p1052
(dp1053
g3
S'2017-11-10 01:14:55'
p1054
sg5
F8.188769740869277e-07
sg6
S'78.png'
p1055
sg8
(lp1056
sg13
(lp1057
S'chemistry'
p1058
asg16
F0.9999999999999982
sg17
F1510244095.47
sg18
I2
sg19
(lp1059
(lp1060
F1504243511.051
aS'2017-09-01 14:25:11'
p1061
aF0.0
aa(lp1062
F1507177120.815
aS'2017-10-05 13:18:40'
p1063
aF1.0
aa(lp1064
F1510244095.47
ag1054
aF7.264842454246718e-06
aasbsI79
(imyfunction
mondai
p1065
(dp1066
g3
S'2017-11-10 01:15:01'
p1067
sg5
F8.188946534271192e-07
sg6
S'79.jpg'
p1068
sg8
(lp1069
sg13
(lp1070
S'chemistry'
p1071
asg16
F0.9999999999999982
sg17
F1510244101.066
sg18
I1
sg19
(lp1072
(lp1073
F1504244940.738
aS'2017-09-01 14:49:00'
p1074
aF0.0
aa(lp1075
F1507177430.882
aS'2017-10-05 13:23:50'
p1076
aF1.0
aa(lp1077
F1510244101.066
ag1067
aF7.273381163686462e-06
aasbsI80
(imyfunction
mondai
p1078
(dp1079
g3
S'2017-11-10 01:15:03'
p1080
sg5
F8.189036512080839e-07
sg6
S'80.jpg'
p1081
sg8
(lp1082
sg13
(lp1083
S'chemistry'
p1084
asg16
F0.9999999999999981
sg17
F1510244103.914
sg18
I1
sg19
(lp1085
(lp1086
F1504246658.078
aS'2017-09-01 15:17:38'
p1087
aF0.0
aa(lp1088
F1507177901.567
aS'2017-10-05 13:31:41'
p1089
aF1.0
aa(lp1090
F1510244103.914
ag1080
aF7.2865209381247484e-06
aasbsI81
(imyfunction
mondai
p1091
(dp1092
g3
S'2017-11-10 21:13:52'
p1093
sg5
F1.2625600023918363e-18
sg6
S'81.png'
p1094
sg8
(lp1095
sg13
(lp1096
S'chemistry'
p1097
asg16
F-5.254461799500519e-14
sg17
F1510316032.6
sg18
I1
sg19
(lp1098
(lp1099
F1504275909.657
aS'2017-09-01 23:25:09'
p1100
aF0.0
aa(lp1101
F1507178426.452
aS'2017-10-05 13:40:26'
p1102
aF0.0
aa(lp1103
F1509824625.933
aS'2017-11-05 04:43:45'
p1104
aF0.0
aa(lp1105
F1510316032.6
ag1093
aF0.0033877910950504374
aasbsI82
(imyfunction
mondai
p1106
(dp1107
g3
S'2017-11-10 21:16:32'
p1108
sg5
F1.0274880455399135e-06
sg6
S'82.png'
p1109
sg8
(lp1110
sg13
(lp1111
S'chemistry'
p1112
asg16
F0.9966127471837158
sg17
F1510316192.868
sg18
I1
sg19
(lp1113
(lp1114
F1504277877.469
aS'2017-09-01 23:57:57'
p1115
aF0.0
aa(lp1116
F1507178704.982
aS'2017-10-05 13:45:04'
p1117
aF0.0
aa(lp1118
F1509824772.472
aS'2017-11-05 04:46:12'
p1119
aF0.0
aa(lp1120
F1510316192.868
ag1108
aF1.0
aasbsI83
(imyfunction
mondai
p1121
(dp1122
g3
S'2017-11-10 21:18:58'
p1123
sg5
F1.2670339095456574e-18
sg6
S'83.png'
p1124
sg8
(lp1125
sg13
(lp1126
S'chemistry'
p1127
asg16
F-5.2686807655049486e-14
sg17
F1510316338.219
sg18
I1
sg19
(lp1128
(lp1129
F1504278544.983
aS'2017-09-02 00:09:04'
p1130
aF0.0
aa(lp1131
F1507179118.134
aS'2017-10-05 13:51:58'
p1132
aF0.0
aa(lp1133
F1509825173.081
aS'2017-11-05 04:52:53'
p1134
aF0.0
aa(lp1135
F1510316338.219
ag1123
aF0.0033972748283773
aasbsI84
(imyfunction
mondai
p1136
(dp1137
g3
S'2017-11-10 20:56:24'
p1138
sg5
F0.0003584020535209895
sg6
S'84.png'
p1139
sg8
(lp1140
sg13
(lp1141
S'chemistry'
p1142
asg16
F1.4999999993144824
sg17
F1510314984.538
sg18
I4
sg19
(lp1143
(lp1144
F1504284587.342
aS'2017-09-02 01:49:47'
p1145
aF0.5
aa(lp1146
F1507442311.976
aS'2017-10-08 14:58:31'
p1147
aF1.0
aa(lp1148
F1510314984.538
ag1138
aF0.0016637492668604803
aasbsI85
(imyfunction
mondai
p1149
(dp1150
g3
S'2017-11-10 20:57:57'
p1151
sg5
F0.07069151288615658
sg6
S'85.jpg'
p1152
sg8
(lp1153
sg13
(lp1154
S'chemistry'
p1155
asg16
F2.498321618869726
sg17
F1510315077.981
sg18
I2
sg19
(lp1156
(lp1157
F1504287036.941
aS'2017-09-02 02:30:36'
p1158
aF0.5
aa(lp1159
F1507446336.252
aS'2017-10-08 16:05:36'
p1160
aF1.0
aa(lp1161
F1510315077.981
ag1151
aF1.0
aasbsI86
(imyfunction
mondai
p1162
(dp1163
g3
S'2017-11-10 01:14:36'
p1164
sg5
F4.362559088511221e-07
sg6
S'86.png'
p1165
sg8
(lp1166
sg13
(lp1167
S'chemistry'
p1168
asg16
F0.959999999985973
sg17
F1510244076.83
sg18
I6
sg19
(lp1169
(lp1170
F1504287911.136
aS'2017-09-02 02:45:11'
p1171
aF0.3
aa(lp1172
F1507289954.953
aS'2017-10-06 20:39:14'
p1173
aF0.66
aa(lp1174
F1510244076.83
ag1164
aF6.7290179334813e-06
aasbsI87
(imyfunction
mondai
p1175
(dp1176
g3
S'2017-11-10 21:19:01'
p1177
sg5
F1.2670807056086864e-18
sg6
S'87.png'
p1178
sg8
(lp1179
sg13
(lp1180
S'chemistry'
p1181
asg16
F-5.328667544981056e-14
sg17
F1510316341.41
sg18
I1
sg19
(lp1182
(lp1183
F1504289034.929
aS'2017-09-02 03:03:54'
p1184
aF0.0
aa(lp1185
F1507179649.455
aS'2017-10-05 14:00:49'
p1186
aF0.0
aa(lp1187
F1509825225.098
aS'2017-11-05 04:53:45'
p1188
aI0
aa(lp1189
F1510316341.41
ag1177
aF0.0033991952244293616
aasbsI88
(imyfunction
mondai
p1190
(dp1191
g3
S'2017-11-10 21:19:04'
p1192
sg5
F1.2671246728972754e-18
sg6
S'88.png'
p1193
sg8
(lp1194
sg13
(lp1195
S'chemistry'
p1196
asg16
F-5.50281763342006e-14
sg17
F1510316344.408
sg18
I2
sg19
(lp1197
(lp1198
F1504295038.18
aS'2017-09-02 04:43:58'
p1199
aF0.0
aa(lp1200
F1507182948.05
aS'2017-10-05 14:55:48'
p1201
aF0.0
aa(lp1202
F1509825740.819
aS'2017-11-05 05:02:20'
p1203
aF0.0
aa(lp1204
F1510316344.408
ag1192
aF0.0034194270591039982
aasbsI89
(imyfunction
mondai
p1205
(dp1206
g3
S'2017-11-10 21:19:07'
p1207
sg5
F1.2671665150995449e-18
sg6
S'89.jpg'
p1208
sg8
(lp1209
sg13
(lp1210
S'chemistry'
p1211
asg16
F-5.697511457342755e-14
sg17
F1510316347.261
sg18
I3
sg19
(lp1212
(lp1213
F1504323346.65
aS'2017-09-02 12:35:46'
p1214
aF0.0
aa(lp1215
F1507184338.043
aS'2017-10-05 15:18:58'
p1216
aF0.0
aa(lp1217
F1509825756.585
aS'2017-11-05 05:02:36'
p1218
aI0
aa(lp1219
F1510316347.261
ag1207
aF0.003419938111674252
aasbsI90
(imyfunction
mondai
p1220
(dp1221
g3
S'2017-11-10 01:16:29'
p1222
sg5
F0.00935639811316219
sg6
S'90.png'
p1223
sg8
(lp1224
sg13
(lp1225
S'chemistry'
p1226
asg16
F1.9999925081704641
sg17
F1510244189.48
sg18
I1
sg19
(lp1227
(lp1228
F1504323686.397
aS'2017-09-02 12:41:26'
p1229
aF0.0
aa(lp1230
F1507185189.481
aS'2017-10-05 15:33:09'
p1231
aF1.0
aa(lp1232
F1510244189.48
ag1222
aF1.0
aasbsI91
(imyfunction
mondai
p1233
(dp1234
g3
S'2017-11-10 01:17:15'
p1235
sg5
F0.009356949535708535
sg6
S'91.jpg'
p1236
sg8
(lp1237
sg13
(lp1238
S'chemistry'
p1239
asg16
F1.999992506515778
sg17
F1510244235.313
sg18
I1
sg19
(lp1240
(lp1241
F1504324204.896
aS'2017-09-02 12:50:04'
p1242
aF0.0
aa(lp1243
F1507185292.556
aS'2017-10-05 15:34:52'
p1244
aF1.0
aa(lp1245
F1510244235.313
ag1235
aF1.0
aasbsI92
(imyfunction
mondai
p1246
(dp1247
g3
S'2017-11-10 21:19:09'
p1248
sg5
F1.267193648008416e-18
sg6
S'92.png'
p1249
sg8
(lp1250
sg13
(lp1251
S'chemistry'
p1252
asg16
F-5.805487216824302e-14
sg17
F1510316349.111
sg18
I1
sg19
(lp1253
(lp1254
F1504325453.141
aS'2017-09-02 13:10:53'
p1255
aF0.0
aa(lp1256
F1507186063.447
aS'2017-10-05 15:47:43'
p1257
aF0.0
aa(lp1258
F1509825762.924
aS'2017-11-05 05:02:42'
p1259
aI0
aa(lp1260
F1510316349.111
ag1248
aF0.0034201158026519207
aasbsI93
(imyfunction
mondai
p1261
(dp1262
g3
S'2017-11-10 21:19:14'
p1263
sg5
F1.2672749475418313e-18
sg6
S'93.png'
p1264
sg8
(lp1265
sg13
(lp1266
S'chemistry'
p1267
asg16
F-5.827912718675355e-14
sg17
F1510316354.654
sg18
I1
sg19
(lp1268
(lp1269
F1504327506.993
aS'2017-09-02 13:45:06'
p1270
aF0.0
aa(lp1271
F1507186421.562
aS'2017-10-05 15:53:41'
p1272
aF0.0
aa(lp1273
F1509825894.51
aS'2017-11-05 05:04:54'
p1274
aF0.0
aa(lp1275
F1510316354.654
ag1263
aF0.0034251088147660386
aasbsI94
(imyfunction
mondai
p1276
(dp1277
g3
S'2017-11-10 01:18:53'
p1278
sg5
F8.19627746758563e-07
sg6
S'94.jpg'
p1279
sg8
(lp1280
sg13
(lp1281
S'chemistry'
p1282
asg16
F0.9999999999999957
sg17
F1510244333.004
sg18
I3
sg19
(lp1283
(lp1284
F1504330005.843
aS'2017-09-02 14:26:45'
p1285
aF0.0
aa(lp1286
F1507186945.999
aS'2017-10-05 16:02:25'
p1287
aF1.0
aa(lp1288
F1510244333.004
ag1278
aF7.538596330589168e-06
aasbsI95
(imyfunction
mondai
p1289
(dp1290
g3
S'2017-11-10 01:24:53'
p1291
sg5
F8.206680496829084e-07
sg6
S'95.png'
p1292
sg8
(lp1293
sg13
(lp1294
S'chemistry'
p1295
asg16
F0.9999921611199667
sg17
F1510244693.062
sg18
I1
sg19
(lp1296
(lp1297
F1504330578.003
aS'2017-09-02 14:36:18'
p1298
aF0.0
aa(lp1299
F1507197430.401
aS'2017-10-05 18:57:10'
p1300
aF1.0
aa(lp1301
F1510244693.062
ag1291
aF0.0
aasbsI96
(imyfunction
mondai
p1302
(dp1303
g3
S'2017-11-10 02:16:55'
p1304
sg5
F8.307150501366817e-07
sg6
S'96.png'
p1305
sg8
(lp1306
sg13
(lp1307
S'chemistry'
p1308
asg16
F0.9999999999948661
sg17
F1510247815.762
sg18
I4
sg19
(lp1309
(lp1310
F1504331481.399
aS'2017-09-02 14:51:21'
p1311
aF0.25
aa(lp1312
F1507287359.586
aS'2017-10-06 19:55:59'
p1313
aF0.75
aa(lp1314
F1510247815.762
ag1304
aF1.0957208314106074e-05
aasbsI97
(imyfunction
mondai
p1315
(dp1316
g3
S'2017-11-10 21:19:21'
p1317
sg5
F1.2673825531393879e-18
sg6
S'97.png'
p1318
sg8
(lp1319
sg13
(lp1320
S'chemistry'
p1321
asg16
F-6.526020704151094e-14
sg17
F1510316361.99
sg18
I1
sg19
(lp1322
(lp1323
F1504332514.446
aS'2017-09-02 15:08:34'
p1324
aF0.0
aa(lp1325
F1507197848.738
aS'2017-10-05 19:04:08'
p1326
aF0.0
aa(lp1327
F1509826389.441
aS'2017-11-05 05:13:09'
p1328
aF0.0
aa(lp1329
F1510316361.99
ag1317
aF0.0034444929268692553
aasbsI98
(imyfunction
mondai
p1330
(dp1331
g3
S'2017-11-10 15:46:06'
p1332
sg5
F2.7643560245388184e-05
sg6
S'98.jpeg'
p1333
sg8
(lp1334
sg13
(lp1335
S'physical'
p1336
asg16
F1.2499999999911555
sg17
F1510296366.82
sg18
I4
sg19
(lp1337
(lp1338
F1504545992.782
aS'2017-09-05 02:26:32'
p1339
aF0.25
aa(lp1340
F1507440023.274
aS'2017-10-08 14:20:23'
p1341
aF1.0
aa(lp1342
F1510296366.82
ag1332
aF0.00023095892745339148
aasbsI99
(imyfunction
mondai
p1343
(dp1344
g3
S'2017-11-06 19:21:22'
p1345
sg5
F4.401531953409323e-12
sg6
S'99.jpeg'
p1346
sg8
(lp1347
sg13
(lp1348
S'physical'
p1349
asg16
F0.49999998626756476
sg17
F1509963682.669
sg18
I2
sg19
(lp1350
(lp1351
F1504548613.492
aS'2017-09-05 03:10:13'
p1352
aF0.0
aa(lp1353
F1507254507.501
aS'2017-10-06 10:48:27'
p1354
aF0.5
aa(lp1355
F1509963682.669
ag1345
aI0
aasbsI100
(imyfunction
mondai
p1356
(dp1357
g3
S'2017-11-05 03:29:23'
p1358
sg5
F1.686934357641681e-12
sg6
S'100.jpeg'
p1359
sg8
(lp1360
sg13
(lp1361
S'physical'
p1362
asg16
F0.4999999999999995
sg17
F1509820163.087
sg18
I2
sg19
(lp1363
(lp1364
F1504549431.259
aS'2017-09-05 03:23:51'
p1365
aF0.5
aa(lp1366
F1509820163.087
ag1358
aF0.0
aasbsI101
(imyfunction
mondai
p1367
(dp1368
g3
S'2017-11-06 17:20:44'
p1369
sg5
F6.7114963937541845e-15
sg6
S'101.jpeg'
p1370
sg8
(lp1371
sg13
(lp1372
S'physical'
p1373
asg16
F0.2999999998279522
sg17
F1509956444.701
sg18
I3
sg19
(lp1374
(lp1375
F1504557916.173
aS'2017-09-05 05:45:16'
p1376
aF0.0
aa(lp1377
F1507255521.17
aS'2017-10-06 11:05:21'
p1378
aF0.3
aa(lp1379
F1509956444.701
ag1369
aI0
aasbsI102
(imyfunction
mondai
p1380
(dp1381
g3
S'2017-11-10 01:33:59'
p1382
sg5
F8.225002006623451e-07
sg6
S'102.jpeg'
p1383
sg8
(lp1384
sg13
(lp1385
S'physical'
p1386
asg16
F0.9999999999999712
sg17
F1510245239.804
sg18
I1
sg19
(lp1387
(lp1388
F1504561998.287
aS'2017-09-05 06:53:18'
p1389
aF0.0
aa(lp1390
F1507255791.192
aS'2017-10-06 11:09:51'
p1391
aF1.0
aa(lp1392
F1510245239.804
ag1382
aF9.79766409216079e-06
aasbsI103
(imyfunction
mondai
p1393
(dp1394
g3
S'2017-11-06 18:38:21'
p1395
sg5
F2.0073375045244686e-14
sg6
S'103.png'
p1396
sg8
(lp1397
sg13
(lp1398
S'physical'
p1399
asg16
F0.3299999996531467
sg17
F1509961101.665
sg18
I3
sg19
(lp1400
(lp1401
F1504566130.357
aS'2017-09-05 08:02:10'
p1402
aF0.0
aa(lp1403
F1507256734.83
aS'2017-10-06 11:25:34'
p1404
aF0.33
aa(lp1405
F1509961101.665
ag1395
aI0
aasbsI104
(imyfunction
mondai
p1406
(dp1407
g3
S'2017-11-10 01:37:36'
p1408
sg5
F0.009371543855314551
sg6
S'104.jpg'
p1409
sg8
(lp1410
sg13
(lp1411
S'physical'
p1412
asg16
F1.9999901705425385
sg17
F1510245456.524
sg18
I1
sg19
(lp1413
(lp1414
F1504579510.387
aS'2017-09-05 11:45:10'
p1415
aF0.0
aa(lp1416
F1507256847.652
aS'2017-10-06 11:27:27'
p1417
aF1.0
aa(lp1418
F1510245456.524
ag1408
aF1.0
aasbsI105
(imyfunction
mondai
p1419
(dp1420
g3
S'2017-11-10 05:08:34'
p1421
sg5
F3.148255684407831e-11
sg6
S'105.jpg'
p1422
sg8
(lp1423
sg13
(lp1424
S'physical'
p1425
asg16
F0.49999999999997274
sg17
F1510258114.546
sg18
I4
sg19
(lp1426
(lp1427
F1506129496.71
aS'2017-09-23 10:18:16'
p1428
aF0.0
aa(lp1429
F1508828137.393
aS'2017-10-24 15:55:37'
p1430
aF0.5
aa(lp1431
F1510258114.546
ag1421
aF7.080868691277626e-05
aasbsI106
(imyfunction
mondai
p1432
(dp1433
g3
S'2017-11-01 16:39:50'
p1434
sg5
F5.050307786076875e-08
sg6
S'106.jpg'
p1435
sg8
(lp1436
sg13
(lp1437
S'physical'
p1438
asg16
F1.0
sg17
F1509521990.3
sg18
I2
sg19
(lp1439
(lp1440
F1506132713.435
aS'2017-09-23 11:11:53'
p1441
aF0.0
aa(lp1442
F1509521990.3
ag1434
aF1.0
aasbsI107
(imyfunction
mondai
p1443
(dp1444
g3
S'2017-11-01 17:47:33'
p1445
sg5
F2.563867440694035e-11
sg6
S'107.jpg'
p1446
sg8
(lp1447
sg13
(lp1448
S'physical'
p1449
asg16
F0.66
sg17
F1509526053.592
sg18
I2
sg19
(lp1450
(lp1451
F1506134378.641
aS'2017-09-23 11:39:38'
p1452
aF0.0
aa(lp1453
F1509526053.592
ag1445
aF0.66
aasbsI108
(imyfunction
mondai
p1454
(dp1455
g3
S'2017-11-04 16:18:59'
p1456
sg5
F1.3662079368278517e-07
sg6
S'108.jpg'
p1457
sg8
(lp1458
sg13
(lp1459
S'physical'
p1460
asg16
F1.0
sg17
F1509779939.628
sg18
I1
sg19
(lp1461
(lp1462
F1506135155.006
aS'2017-09-23 11:52:35'
p1463
aF0.0
aa(lp1464
F1509779939.628
ag1456
aF1.0
aasbsI109
(imyfunction
mondai
p1465
(dp1466
g3
S'2017-11-04 16:27:13'
p1467
sg5
F4.6842538354961135e-15
sg6
S'109.png'
p1468
sg8
(lp1469
sg13
(lp1470
S'physical'
p1471
asg16
F0.33
sg17
F1509780433.028
sg18
I2
sg19
(lp1472
(lp1473
F1506137630.469
aS'2017-09-23 12:33:50'
p1474
aF0.0
aa(lp1475
F1509780433.028
ag1467
aF0.33
aasbsI110
(imyfunction
mondai
p1476
(dp1477
g3
S'2017-11-04 16:35:32'
p1478
sg5
F1.2979206633307726e-12
sg6
S'110.jpg'
p1479
sg8
(lp1480
sg13
(lp1481
S'physical'
p1482
asg16
F0.5
sg17
F1509780932.642
sg18
I2
sg19
(lp1483
(lp1484
F1506138671.837
aS'2017-09-23 12:51:11'
p1485
aF0.0
aa(lp1486
F1509780932.642
ag1478
aF0.5
aasbsI111
(imyfunction
mondai
p1487
(dp1488
g3
S'2017-11-04 16:38:25'
p1489
sg5
F1.2994186930404004e-12
sg6
S'111.jpg'
p1490
sg8
(lp1491
sg13
(lp1492
S'physical'
p1493
asg16
F0.5
sg17
F1509781105.264
sg18
I2
sg19
(lp1494
(lp1495
F1506147063.957
aS'2017-09-23 15:11:03'
p1496
aF0.0
aa(lp1497
F1509781105.264
ag1489
aF0.5
aasbsI112
(imyfunction
mondai
p1498
(dp1499
g3
S'2017-11-06 00:12:00'
p1500
sg5
F2.1273289742109168e-07
sg6
S'112.png'
p1501
sg8
(lp1502
sg13
(lp1503
S'physical'
p1504
asg16
F0.9999999999866408
sg17
F1509894720.702
sg18
I4
sg19
(lp1505
(lp1506
F1506147682.265
aS'2017-09-23 15:21:22'
p1507
aF0.5
aa(lp1508
F1509894720.702
ag1500
aF0.5
aasbsI113
(imyfunction
mondai
p1509
(dp1510
g3
S'2017-11-04 16:43:08'
p1511
sg5
F1.3738654918541868e-07
sg6
S'113.png'
p1512
sg8
(lp1513
sg13
(lp1514
S'physical'
p1515
asg16
F1.0
sg17
F1509781388.38
sg18
I1
sg19
(lp1516
(lp1517
F1506148490.104
aS'2017-09-23 15:34:50'
p1518
aF0.0
aa(lp1519
F1509781388.38
ag1511
aF1.0
aasbsI114
(imyfunction
mondai
p1520
(dp1521
g3
S'2017-11-04 16:53:05'
p1522
sg5
F1.3070885843416158e-12
sg6
S'114.jpg'
p1523
sg8
(lp1524
sg13
(lp1525
S'physical'
p1526
asg16
F0.5
sg17
F1509781985.98
sg18
I1
sg19
(lp1527
(lp1528
F1506155638.422
aS'2017-09-23 17:33:58'
p1529
aF0.0
aa(lp1530
F1509781985.98
ag1522
aF0.5
aasbsI115
(imyfunction
mondai
p1531
(dp1532
g3
S'2017-11-10 20:58:16'
p1533
sg5
F1.2489584895608015e-18
sg6
S'115.jpg'
p1534
sg8
(lp1535
sg13
(lp1536
S'physical'
p1537
asg16
F-5.803319474763249e-19
sg17
F1510315096.766
sg18
I2
sg19
(lp1538
(lp1539
F1506157652.404
aS'2017-09-23 18:07:32'
p1540
aF0.0
aa(lp1541
F1509785647.734
aS'2017-11-04 17:54:07'
p1542
aF0.0
aa(lp1543
F1510315096.766
ag1533
aF0.0021811951579525203
aasbsI116
(imyfunction
mondai
p1544
(dp1545
g3
S'2017-11-10 20:58:20'
p1546
sg5
F1.2490163853308432e-18
sg6
S'116.jpg'
p1547
sg8
(lp1548
sg13
(lp1549
S'physical'
p1550
asg16
F-5.893791916432976e-19
sg17
F1510315100.771
sg18
I1
sg19
(lp1551
(lp1552
F1506159252.417
aS'2017-09-23 18:34:12'
p1553
aF0.0
aa(lp1554
F1509785911.182
aS'2017-11-04 17:58:31'
p1555
aF0.0
aa(lp1556
F1510315100.771
ag1546
aF0.0021877547216808155
aasbsI117
(imyfunction
mondai
p1557
(dp1558
g3
S'2017-11-04 18:01:38'
p1559
sg5
F1.3990582443418526e-07
sg6
S'117.png'
p1560
sg8
(lp1561
sg13
(lp1562
S'physical'
p1563
asg16
F1.0
sg17
F1509786098.312
sg18
I2
sg19
(lp1564
(lp1565
F1506162234.45
aS'2017-09-23 19:23:54'
p1566
aF0.0
aa(lp1567
F1509786098.312
ag1559
aF1.0
aasbsI118
(imyfunction
mondai
p1568
(dp1569
g3
S'2017-11-04 18:15:41'
p1570
sg5
F1.403618141816231e-07
sg6
S'118.jpg'
p1571
sg8
(lp1572
sg13
(lp1573
S'physical'
p1574
asg16
F1.0
sg17
F1509786941.739
sg18
I1
sg19
(lp1575
(lp1576
F1506294608.09
aS'2017-09-25 08:10:08'
p1577
aF0.0
aa(lp1578
F1509786941.739
ag1570
aF1.0
aasbsI119
(imyfunction
mondai
p1579
(dp1580
g3
S'2017-11-10 20:58:25'
p1581
sg5
F1.2490790690252736e-18
sg6
S'119.jpg'
p1582
sg8
(lp1583
sg13
(lp1584
S'physical'
p1585
asg16
F-2.8235804321054852e-18
sg17
F1510315105.107
sg18
I1
sg19
(lp1586
(lp1587
F1506295905.774
aS'2017-09-25 08:31:45'
p1588
aF0.0
aa(lp1589
F1509787202.415
aS'2017-11-04 18:20:02'
p1590
aF0.0
aa(lp1591
F1510315105.107
ag1581
aF0.0022205844297209115
aasbsI120
(imyfunction
mondai
p1592
(dp1593
g3
S'2017-11-04 18:26:36'
p1594
sg5
F1.3570204080739454e-12
sg6
S'120.jpg'
p1595
sg8
(lp1596
sg13
(lp1597
S'physical'
p1598
asg16
F0.5
sg17
F1509787596.21
sg18
I2
sg19
(lp1599
(lp1600
F1506327418.434
aS'2017-09-25 17:16:58'
p1601
aF0.0
aa(lp1602
F1509787596.21
ag1594
aF0.5
aasbsI121
(imyfunction
mondai
p1603
(dp1604
g3
S'2017-11-10 20:58:29'
p1605
sg5
F1.2491455293156957e-18
sg6
S'121.jpg'
p1606
sg8
(lp1607
sg13
(lp1608
S'physical'
p1609
asg16
F-4.1730886871002715e-18
sg17
F1510315109.704
sg18
I2
sg19
(lp1610
(lp1611
F1506332473.34
aS'2017-09-25 18:41:13'
p1612
aF0.0
aa(lp1613
F1509790017.759
aS'2017-11-04 19:06:57'
p1614
aF0.0
aa(lp1615
F1510315109.704
ag1605
aF0.002294011913108089
aasbsI122
(imyfunction
mondai
p1616
(dp1617
g3
S'2017-11-04 19:20:56'
p1618
sg5
F5.09450938031029e-15
sg6
S'122.jpg'
p1619
sg8
(lp1620
sg13
(lp1621
S'physical'
p1622
asg16
F0.33
sg17
F1509790856.665
sg18
I3
sg19
(lp1623
(lp1624
F1506334077.056
aS'2017-09-25 19:07:57'
p1625
aF0.0
aa(lp1626
F1509790856.665
ag1618
aF0.33
aasbsI123
(imyfunction
mondai
p1627
(dp1628
g3
S'2017-11-04 19:59:55'
p1629
sg5
F1.4378962309512212e-07
sg6
S'123.jpg'
p1630
sg8
(lp1631
sg13
(lp1632
S'physical'
p1633
asg16
F1.0
sg17
F1509793195.666
sg18
I2
sg19
(lp1634
(lp1635
F1506335499.155
aS'2017-09-25 19:31:39'
p1636
aF0.0
aa(lp1637
F1509793195.666
ag1629
aF1.0
aasbsI124
(imyfunction
mondai
p1638
(dp1639
g3
S'2017-11-04 20:01:50'
p1640
sg5
F1.438531120159383e-07
sg6
S'124.jpg'
p1641
sg8
(lp1642
sg13
(lp1643
S'physical'
p1644
asg16
F1.0
sg17
F1509793310.088
sg18
I1
sg19
(lp1645
(lp1646
F1506370557.351
aS'2017-09-26 05:15:57'
p1647
aF0.0
aa(lp1648
F1509793310.088
ag1640
aF1.0
aasbsI125
(imyfunction
mondai
p1649
(dp1650
g3
S'2017-11-04 20:08:13'
p1651
sg5
F1.4406627118171826e-07
sg6
S'125.jpg'
p1652
sg8
(lp1653
sg13
(lp1654
S'physical'
p1655
asg16
F1.0
sg17
F1509793693.882
sg18
I1
sg19
(lp1656
(lp1657
F1506372586.124
aS'2017-09-26 05:49:46'
p1658
aF0.0
aa(lp1659
F1509793693.882
ag1651
aF1.0
aasbsI126
(imyfunction
mondai
p1660
(dp1661
g3
S'2017-11-10 20:58:39'
p1662
sg5
F1.2492815547900337e-18
sg6
S'126.jpg'
p1663
sg8
(lp1664
sg13
(lp1665
S'physical'
p1666
asg16
F-6.367176625891049e-18
sg17
F1510315119.112
sg18
I2
sg19
(lp1667
(lp1668
F1506373963.589
aS'2017-09-26 06:12:43'
p1669
aF0.0
aa(lp1670
F1509795004.035
aS'2017-11-04 20:30:04'
p1671
aF0.0
aa(lp1672
F1510315119.112
ag1662
aF0.0024300330602857125
aasbsI127
(imyfunction
mondai
p1673
(dp1674
g3
S'2017-11-04 21:00:56'
p1675
sg5
F1.4583466959158917e-07
sg6
S'127.jpg'
p1676
sg8
(lp1677
sg13
(lp1678
S'physical'
p1679
asg16
F1.0
sg17
F1509796856.166
sg18
I1
sg19
(lp1680
(lp1681
F1506433333.109
aS'2017-09-26 22:42:13'
p1682
aF0.0
aa(lp1683
F1509796856.166
ag1675
aF1.0
aasbsI128
(imyfunction
mondai
p1684
(dp1685
g3
S'2017-11-10 20:58:43'
p1686
sg5
F1.2493464786319985e-18
sg6
S'128.jpg'
p1687
sg8
(lp1688
sg13
(lp1689
S'physical'
p1690
asg16
F-1.2393336990361653e-17
sg17
F1510315123.602
sg18
I1
sg19
(lp1691
(lp1692
F1506433386.409
aS'2017-09-26 22:43:06'
p1693
aF0.0
aa(lp1694
F1509796884.209
aS'2017-11-04 21:01:24'
p1695
aF0.0
aa(lp1696
F1510315123.602
ag1686
aF0.002483364158085632
aasbsI129
(imyfunction
mondai
p1697
(dp1698
g3
S'2017-11-05 05:51:47'
p1699
sg5
F7.720891529553408e-14
sg6
S'129.png'
p1700
sg8
(lp1701
sg13
(lp1702
S'physical'
p1703
asg16
F0.39999999998787544
sg17
F1509828707.479
sg18
I5
sg19
(lp1704
(lp1705
F1506458514.65
aS'2017-09-27 05:41:54'
p1706
aF0.4
aa(lp1707
F1509828707.479
ag1699
aI0
aasbsI130
(imyfunction
mondai
p1708
(dp1709
g3
S'2017-11-10 20:58:49'
p1710
sg5
F1.2494249267497644e-18
sg6
S'130.jpg'
p1711
sg8
(lp1712
sg13
(lp1713
S'physical'
p1714
asg16
F-1.6830748740452486e-17
sg17
F1510315129.027
sg18
I2
sg19
(lp1715
(lp1716
F1506459850.374
aS'2017-09-27 06:04:10'
p1717
aF0.0
aa(lp1718
F1509796905.583
aS'2017-11-04 21:01:45'
p1719
aF0.0
aa(lp1720
F1510315129.027
ag1710
aF0.0024838226167723217
aasbsI131
(imyfunction
mondai
p1721
(dp1722
g3
S'2017-11-11 12:19:30'
p1723
sg5
F4.0497364252502106e-14
sg6
S'131.jpg'
p1724
sg8
(lp1725
sg13
(lp1726
S'physical'
p1727
asg16
F0.24999999999999997
sg17
F1510370370.07
sg18
I2
sg19
(lp1728
(lp1729
F1506462691.94
aS'2017-09-27 06:51:31'
p1730
aF0.0
aa(lp1731
F1509797136.172
aS'2017-11-04 21:05:36'
p1732
aF0.25
aa(lp1733
F1510370370.07
ag1723
aF0.006465693279877761
aasbsI132
(imyfunction
mondai
p1734
(dp1735
g3
S'2017-11-10 20:58:55'
p1736
sg5
F1.2495213415350663e-18
sg6
S'132.jpg'
p1737
sg8
(lp1738
sg13
(lp1739
S'physical'
p1740
asg16
F-2.789510265903354e-17
sg17
F1510315135.694
sg18
I3
sg19
(lp1741
(lp1742
F1506503838.042
aS'2017-09-27 18:17:18'
p1743
aF0.0
aa(lp1744
F1509797240.2
aS'2017-11-04 21:07:20'
p1745
aF0.0
aa(lp1746
F1510315135.694
ag1736
aF0.002493268421439688
aasbsI133
(imyfunction
mondai
p1747
(dp1748
g3
S'2017-11-10 20:58:58'
p1749
sg5
F1.2495679536005902e-18
sg6
S'133.jpg'
p1750
sg8
(lp1751
sg13
(lp1752
S'physical'
p1753
asg16
F-2.852001689060002e-17
sg17
F1510315138.917
sg18
I3
sg19
(lp1754
(lp1755
F1506505769.532
aS'2017-09-27 18:49:29'
p1756
aF0.0
aa(lp1757
F1509797257.494
aS'2017-11-04 21:07:37'
p1758
aF0.0
aa(lp1759
F1510315138.917
ag1749
aF0.0024936745051958873
aasbsI134
(imyfunction
mondai
p1760
(dp1761
g3
S'2017-11-10 20:59:01'
p1762
sg5
F1.2496081602529242e-18
sg6
S'134.jpg'
p1763
sg8
(lp1764
sg13
(lp1765
S'physical'
p1766
asg16
F-2.914613422368457e-17
sg17
F1510315141.697
sg18
I2
sg19
(lp1767
(lp1768
F1506508264.869
aS'2017-09-27 19:31:04'
p1769
aF0.0
aa(lp1770
F1509797876.56
aS'2017-11-04 21:17:56'
p1771
aF0.0
aa(lp1772
F1510315141.697
ag1762
aF0.002511525324082287
aasbsI135
(imyfunction
mondai
p1773
(dp1774
g3
S'2017-11-10 20:59:04'
p1775
sg5
F1.2496556578349702e-18
sg6
S'135.jpg'
p1776
sg8
(lp1777
sg13
(lp1778
S'physical'
p1779
asg16
F-2.9519835128344627e-17
sg17
F1510315144.981
sg18
I3
sg19
(lp1780
(lp1781
F1506509509.686
aS'2017-09-27 19:51:49'
p1782
aF0.0
aa(lp1783
F1509798020.631
aS'2017-11-04 21:20:20'
p1784
aF0.0
aa(lp1785
F1510315144.981
ag1775
aF0.002515621138395431
aasbsI136
(imyfunction
mondai
p1786
(dp1787
g3
S'2017-11-04 21:22:44'
p1788
sg5
F1.465724827937667e-07
sg6
S'136.jpg'
p1789
sg8
(lp1790
sg13
(lp1791
S'physical'
p1792
asg16
F1.0
sg17
F1509798164.216
sg18
I2
sg19
(lp1793
(lp1794
F1506516601.052
aS'2017-09-27 21:50:01'
p1795
aF0.0
aa(lp1796
F1509798164.216
ag1788
aF1.0
aasbsI137
(imyfunction
mondai
p1797
(dp1798
g3
S'2017-11-10 20:59:09'
p1799
sg5
F1.249723595244785e-18
sg6
S'137.jpg'
p1800
sg8
(lp1801
sg13
(lp1802
S'physical'
p1803
asg16
F-3.152669138802942e-17
sg17
F1510315149.678
sg18
I1
sg19
(lp1804
(lp1805
F1506517911.457
aS'2017-09-27 22:11:51'
p1806
aF0.0
aa(lp1807
F1509800739.69
aS'2017-11-04 22:05:39'
p1808
aF0.0
aa(lp1809
F1510315149.678
ag1799
aF0.002595906998890413
aasbsI138
(imyfunction
mondai
p1810
(dp1811
g3
S'2017-11-05 03:29:03'
p1812
sg5
F1.590027616836795e-07
sg6
S'138.jpeg'
p1813
sg8
(lp1814
sg13
(lp1815
S'math'
p1816
asg16
F0.999802595053132
sg17
F1509820143.369
sg18
I1
sg19
(lp1817
(lp1818
F1506740752.301
aS'2017-09-30 12:05:52'
p1819
aF0.0
aa(lp1820
F1507477766.193
aS'2017-10-09 00:49:26'
p1821
aF0.0
aa(lp1822
F1509820143.369
ag1812
aF1.0
aasbsI139
(imyfunction
mondai
p1823
(dp1824
g3
S'2017-11-05 05:22:52'
p1825
sg5
F1.6324930515298532e-07
sg6
S'139.jpeg'
p1826
sg8
(lp1827
sg13
(lp1828
S'math'
p1829
asg16
F0.9998028102740147
sg17
F1509826972.649
sg18
I1
sg19
(lp1830
(lp1831
F1506741552.498
aS'2017-09-30 12:19:12'
p1832
aF0.0
aa(lp1833
F1507478660.639
aS'2017-10-09 01:04:20'
p1834
aF0.0
aa(lp1835
F1509826972.649
ag1825
aF1.0
aasbsI140
(imyfunction
mondai
p1836
(dp1837
g3
S'2017-11-05 05:26:15'
p1838
sg5
F1.6333037510119887e-07
sg6
S'140.jpeg'
p1839
sg8
(lp1840
sg13
(lp1841
S'math'
p1842
asg16
F0.999786192347198
sg17
F1509827175.243
sg18
I2
sg19
(lp1843
(lp1844
F1506749258.778
aS'2017-09-30 14:27:38'
p1845
aF0.0
aa(lp1846
F1507479376.256
aS'2017-10-09 01:16:16'
p1847
aF0.0
aa(lp1848
F1509827175.243
ag1838
aF1.0
aasbsI141
(imyfunction
mondai
p1849
(dp1850
g3
S'2017-11-10 21:26:59'
p1851
sg5
F4.23191760854948e-11
sg6
S'141.jpeg'
p1852
sg8
(lp1853
sg13
(lp1854
S'math'
p1855
asg16
F0.4963160143668611
sg17
F1510316819.463
sg18
I1
sg19
(lp1856
(lp1857
F1506750516.768
aS'2017-09-30 14:48:36'
p1858
aF0.0
aa(lp1859
F1507479697.815
aS'2017-10-09 01:21:37'
p1860
aF0.0
aa(lp1861
F1509827546.958
aS'2017-11-05 05:32:26'
p1862
aF0.0
aa(lp1863
F1510316819.463
ag1851
aF0.5
aasbsI142
(imyfunction
mondai
p1864
(dp1865
g3
S'2017-11-06 19:20:38'
p1866
sg5
F1.2446575175883365e-08
sg6
S'142.jpeg'
p1867
sg8
(lp1868
sg13
(lp1869
S'math'
p1870
asg16
F0.8297826811725624
sg17
F1509963638.208
sg18
I3
sg19
(lp1871
(lp1872
F1506751630.334
aS'2017-09-30 15:07:10'
p1873
aF0.0
aa(lp1874
F1507480341.279
aS'2017-10-09 01:32:21'
p1875
aF0.33
aa(lp1876
F1509963638.208
ag1866
aF0.5
aasbsI143
(imyfunction
mondai
p1877
(dp1878
g3
S'2017-11-10 21:31:08'
p1879
sg5
F4.238120049692215e-11
sg6
S'143.jpeg'
p1880
sg8
(lp1881
sg13
(lp1882
S'math'
p1883
asg16
F0.496308225558944
sg17
F1510317068.209
sg18
I1
sg19
(lp1884
(lp1885
F1506753424.981
aS'2017-09-30 15:37:04'
p1886
aF0.0
aa(lp1887
F1507481179.374
aS'2017-10-09 01:46:19'
p1888
aF0.0
aa(lp1889
F1509827901.949
aS'2017-11-05 05:38:21'
p1890
aF0.0
aa(lp1891
F1510317068.209
ag1879
aF0.5
aasbsI144
(imyfunction
mondai
p1892
(dp1893
g3
S'2017-11-10 03:16:14'
p1894
sg5
F8.402147837826553e-07
sg6
S'144.jpeg'
p1895
sg8
(lp1896
sg13
(lp1897
S'math'
p1898
asg16
F0.999846586668985
sg17
F1510251374.151
sg18
I1
sg19
(lp1899
(lp1900
F1506756245.305
aS'2017-09-30 16:24:05'
p1901
aF0.0
aa(lp1902
F1507532292.155
aS'2017-10-09 15:58:12'
p1903
aF1.0
aa(lp1904
F1510251374.151
ag1894
aF0.0
aasbsI145
(imyfunction
mondai
p1905
(dp1906
g3
S'2017-11-08 02:51:00'
p1907
sg5
F4.290039691161322e-07
sg6
S'145.jpeg'
p1908
sg8
(lp1909
sg13
(lp1910
S'math'
p1911
asg16
F0.9998731815992212
sg17
F1510077060.488
sg18
I2
sg19
(lp1912
(lp1913
F1506757681.878
aS'2017-09-30 16:48:01'
p1914
aF0.0
aa(lp1915
F1507532955.989
aS'2017-10-09 16:09:15'
p1916
aF0.5
aa(lp1917
F1510077060.488
ag1907
aF0.5
aasbsI146
(imyfunction
mondai
p1918
(dp1919
g3
S'2017-11-11 12:19:33'
p1920
sg5
F1.6150756204069218e-16
sg6
S'146.png'
p1921
sg8
(lp1922
sg13
(lp1923
S'math'
p1924
asg16
F0.0999999999901644
sg17
F1510370373.194
sg18
I8
sg19
(lp1925
(lp1926
F1507448651.688
aS'2017-10-08 16:44:11'
p1927
aF0.1
aa(lp1928
F1509892748.304
aS'2017-11-05 23:39:08'
p1929
aI0
aa(lp1930
F1510370373.194
ag1920
aF0.007062774113540493
aasbsI147
(imyfunction
mondai
p1931
(dp1932
g3
S'2017-11-08 04:43:43'
p1933
sg5
F5.843305599699051e-10
sg6
S'147.png'
p1934
sg8
(lp1935
sg13
(lp1936
S'math'
p1937
asg16
F0.6599996071426554
sg17
F1510083823.03
sg18
I9
sg19
(lp1938
(lp1939
F1507452340.628
aS'2017-10-08 17:45:40'
p1940
aF0.66
aa(lp1941
F1510083823.03
ag1933
aI0
aasbsI148
(imyfunction
mondai
p1942
(dp1943
g3
S'2017-11-06 19:21:20'
p1944
sg5
F2.1127849828035028e-13
sg6
S'148.png'
p1945
sg8
(lp1946
sg13
(lp1947
S'math'
p1948
asg16
F0.3999999916923502
sg17
F1509963680.24
sg18
I9
sg19
(lp1949
(lp1950
F1507468985.909
aS'2017-10-08 22:23:05'
p1951
aF0.4
aa(lp1952
F1509963680.24
ag1944
aI0
aasbsI149
(imyfunction
mondai
p1953
(dp1954
g3
S'2017-11-09 05:58:29'
p1955
sg5
F1.8736273848940258e-08
sg6
S'149.png'
p1956
sg8
(lp1957
sg13
(lp1958
S'math'
p1959
asg16
F0.8
sg17
F1510174709.801
sg18
I10
sg19
(lp1960
(lp1961
F1507471003.735
aS'2017-10-08 22:56:43'
p1962
aF0.8
aa(lp1963
F1510174709.801
ag1955
aF2.2735330367174012e-06
aasbsI150
(imyfunction
mondai
p1964
(dp1965
g3
S'2017-11-06 00:47:37'
p1966
sg5
F1.656099227476418e-17
sg6
S'150.jpg'
p1967
sg8
(lp1968
sg13
(lp1969
S'math'
p1970
asg16
F0.15999999993740666
sg17
F1509896857.034
sg18
I6
sg19
(lp1971
(lp1972
F1507476849.026
aS'2017-10-09 00:34:09'
p1973
aF0.16
aa(lp1974
F1509896857.034
ag1966
aF0.0
aasbsI151
(imyfunction
mondai
p1975
(dp1976
g3
S'2017-11-06 18:48:03'
p1977
sg5
F1.0363389195798249e-05
sg6
S'151.jpg'
p1978
sg8
(lp1979
sg13
(lp1980
S'math'
p1981
asg16
F1.249999999448792
sg17
F1509961683.131
sg18
I2
sg19
(lp1982
(lp1983
F1507537535.679
aS'2017-10-09 17:25:35'
p1984
aF0.25
aa(lp1985
F1509961683.131
ag1977
aF1.0
aasbsI152
(imyfunction
mondai
p1986
(dp1987
g3
S'2017-11-10 21:32:00'
p1988
sg5
F1.2785518402511489e-18
sg6
S'152.jpg'
p1989
sg8
(lp1990
sg13
(lp1991
S'math'
p1992
asg16
F-3.0869933330651437e-12
sg17
F1510317120.087
sg18
I2
sg19
(lp1993
(lp1994
F1507538724.533
aS'2017-10-09 17:45:24'
p1995
aF0.0
aa(lp1996
F1509828654.886
aS'2017-11-05 05:50:54'
p1997
aI0
aa(lp1998
F1510317120.087
ag1988
aF0.0035051133517635916
aasbsI153
(imyfunction
mondai
p1999
(dp2000
g3
S'2017-11-10 21:32:01'
p2001
sg5
F1.2785799124664923e-18
sg6
S'153.jpeg'
p2002
sg8
(lp2003
sg13
(lp2004
S'chemistry'
p2005
asg16
F-3.11829457951147e-12
sg17
F1510317121.984
sg18
I3
sg19
(lp2006
(lp2007
F1507539602.653
aS'2017-10-09 18:00:02'
p2008
aF0.0
aa(lp2009
F1509828661.346
aS'2017-11-05 05:51:01'
p2010
aI0
aa(lp2011
F1510317121.984
ag2001
aF0.0035052984704485772
aasbsI154
(imyfunction
mondai
p2012
(dp2013
g3
S'2017-11-08 02:52:23'
p2014
sg5
F9.394575367902118e-12
sg6
S'154.jpeg'
p2015
sg8
(lp2016
sg13
(lp2017
S'chemistry'
p2018
asg16
F0.4999999566731249
sg17
F1510077143.781
sg18
I1
sg19
(lp2019
(lp2020
F1507539917.682
aS'2017-10-09 18:05:17'
p2021
aF0.5
aa(lp2022
F1510077143.781
ag2014
aF0.0
aasbsI155
(imyfunction
mondai
p2023
(dp2024
g3
S'2017-11-10 21:33:44'
p2025
sg5
F4.263725145585345e-11
sg6
S'155.jpeg'
p2026
sg8
(lp2027
sg13
(lp2028
S'chemistry'
p2029
asg16
F0.4964978241508289
sg17
F1510317224.583
sg18
I1
sg19
(lp2030
(lp2031
F1507540444.282
aS'2017-10-09 18:14:04'
p2032
aF0.0
aa(lp2033
F1509828686.943
aS'2017-11-05 05:51:26'
p2034
aI0
aa(lp2035
F1510317224.583
ag2025
aF0.5
aasbsI156
(imyfunction
mondai
p2036
(dp2037
g3
S'2017-11-10 21:34:54'
p2038
sg5
F1.28113094197306e-18
sg6
S'156.jpeg'
p2039
sg8
(lp2040
sg13
(lp2041
S'chemistry'
p2042
asg16
F-3.155761394908366e-12
sg17
F1510317294.198
sg18
I1
sg19
(lp2043
(lp2044
F1507540663.236
aS'2017-10-09 18:17:43'
p2045
aF0.0
aa(lp2046
F1509828690.006
aS'2017-11-05 05:51:30'
p2047
aI0
aa(lp2048
F1510317294.198
ag2038
aF0.003499479236495668
aasbsI157
(imyfunction
mondai
p2049
(dp2050
g3
S'2017-11-10 21:34:56'
p2051
sg5
F1.2811584332011874e-18
sg6
S'157.jpeg'
p2052
sg8
(lp2053
sg13
(lp2054
S'chemistry'
p2055
asg16
F-3.2072770561896786e-12
sg17
F1510317296.052
sg18
I3
sg19
(lp2056
(lp2057
F1507542063.935
aS'2017-10-09 18:41:03'
p2058
aF0.0
aa(lp2059
F1509828691.672
aS'2017-11-05 05:51:31'
p2060
aI0
aa(lp2061
F1510317296.052
ag2051
aF0.0034994716218870463
aasbsI158
(imyfunction
mondai
p2062
(dp2063
g3
S'2017-11-08 05:16:34'
p2064
sg5
F5.908297928016359e-10
sg6
S'158.jpeg'
p2065
sg8
(lp2066
sg13
(lp2067
S'chemistry'
p2068
asg16
F0.66
sg17
F1510085794.784
sg18
I2
sg19
(lp2069
(lp2070
F1507542428.917
aS'2017-10-09 18:47:08'
p2071
aF0.66
aa(lp2072
F1510085794.784
ag2064
aF6.437766166281539e-07
aasbsI159
(imyfunction
mondai
p2073
(dp2074
g3
S'2017-11-10 21:34:57'
p2075
sg5
F1.281173676700984e-18
sg6
S'159.jpeg'
p2076
sg8
(lp2077
sg13
(lp2078
S'chemistry'
p2079
asg16
F-3.2404161537661128e-12
sg17
F1510317297.08
sg18
I1
sg19
(lp2080
(lp2081
F1507542953.359
aS'2017-10-09 18:55:53'
p2082
aF0.0
aa(lp2083
F1509828692.951
aS'2017-11-05 05:51:32'
p2084
aI0
aa(lp2085
F1510317297.08
ag2075
aF0.0034994818286972255
aasbsI160
(imyfunction
mondai
p2086
(dp2087
g3
S'2017-11-10 21:34:58'
p2088
sg5
F1.2811914264160912e-18
sg6
S'160.jpeg'
p2089
sg8
(lp2090
sg13
(lp2091
S'chemistry'
p2092
asg16
F-3.2728358996630952e-12
sg17
F1510317298.277
sg18
I3
sg19
(lp2093
(lp2094
F1507543815.607
aS'2017-10-09 19:10:15'
p2095
aF0.0
aa(lp2096
F1509828695.079
aS'2017-11-05 05:51:35'
p2097
aI0
aa(lp2098
F1510317298.277
ag2088
aF0.00349951949693553
aasbsI161
(imyfunction
mondai
p2099
(dp2100
g3
S'2017-11-09 06:30:28'
p2101
sg5
F0.0026641171705154834
sg6
S'161.jpeg'
p2102
sg8
(lp2103
sg13
(lp2104
S'chemistry'
p2105
asg16
F1.79999679593364
sg17
F1510176628.083
sg18
I1
sg19
(lp2106
(lp2107
F1507544308.072
aS'2017-10-09 19:18:28'
p2108
aF0.8
aa(lp2109
F1510176628.083
ag2101
aF1.0
aasbsI162
(imyfunction
mondai
p2110
(dp2111
g3
S'2017-11-10 21:35:00'
p2112
sg5
F1.281218310955129e-18
sg6
S'162.jpeg'
p2113
sg8
(lp2114
sg13
(lp2115
S'chemistry'
p2116
asg16
F-3.31423198867083e-12
sg17
F1510317300.09
sg18
I2
sg19
(lp2117
(lp2118
F1507544903.377
aS'2017-10-09 19:28:23'
p2119
aF0.0
aa(lp2120
F1509828696.882
aS'2017-11-05 05:51:36'
p2121
aI0
aa(lp2122
F1510317300.09
ag2112
aF0.0034995190918980595
aasbsI163
(imyfunction
mondai
p2123
(dp2124
g3
S'2017-11-10 21:35:01'
p2125
sg5
F1.2812368768817688e-18
sg6
S'163.jpeg'
p2126
sg8
(lp2127
sg13
(lp2128
S'chemistry'
p2129
asg16
F-3.5148169494847655e-12
sg17
F1510317301.342
sg18
I2
sg19
(lp2130
(lp2131
F1507549981.563
aS'2017-10-09 20:53:01'
p2132
aF0.0
aa(lp2133
F1509828698.072
aS'2017-11-05 05:51:38'
p2134
aI0
aa(lp2135
F1510317301.342
ag2125
aF0.003499516580664152
aasbsI164
(imyfunction
mondai
p2136
(dp2137
g3
S'2017-11-10 21:35:02'
p2138
sg5
F1.2812508608280189e-18
sg6
S'164.jpeg'
p2139
sg8
(lp2140
sg13
(lp2141
S'chemistry'
p2142
asg16
F-3.5376187660107267e-12
sg17
F1510317302.285
sg18
I2
sg19
(lp2143
(lp2144
F1507550541.506
aS'2017-10-09 21:02:21'
p2145
aF0.0
aa(lp2146
F1509828699.319
aS'2017-11-05 05:51:39'
p2147
aI0
aa(lp2148
F1510317302.285
ag2138
aF0.003499528893795198
aasbsI165
(imyfunction
mondai
p2149
(dp2150
g3
S'2017-11-10 21:35:03'
p2151
sg5
F1.2812698424615697e-18
sg6
S'165.jpeg'
p2152
sg8
(lp2153
sg13
(lp2154
S'chemistry'
p2155
asg16
F-3.5523812489298874e-12
sg17
F1510317303.565
sg18
I3
sg19
(lp2156
(lp2157
F1507550902.297
aS'2017-10-09 21:08:22'
p2158
aF0.0
aa(lp2159
F1509828700.313
aS'2017-11-05 05:51:40'
p2160
aI0
aa(lp2161
F1510317303.565
ag2151
aF0.0034995173097248063
aasbsI166
(imyfunction
mondai
p2162
(dp2163
g3
S'2017-11-05 23:31:57'
p2164
sg5
F2.107696065103135e-07
sg6
S'166.jpg'
p2165
sg8
(lp2166
(lp2167
S'2017-10-11 07:58:16'
p2168
aS'answer is 3'
p2169
aasg13
(lp2170
S'physical'
p2171
asg16
F0.9999999999927383
sg17
F1509892317.464
sg18
I1
sg19
(lp2172
(lp2173
F1507676296.193
ag2168
aF0.0
aa(lp2174
F1509892317.464
ag2164
aF1.0
aasbsI167
(imyfunction
mondai
p2175
(dp2176
g3
S'2017-11-05 23:38:58'
p2177
sg5
F2.111119921611934e-07
sg6
S'167.jpg'
p2178
sg8
(lp2179
(lp2180
S'2017-10-11 08:23:17'
p2181
aS'answer is 1'
p2182
aasg13
(lp2183
S'physical'
p2184
asg16
F0.9999999999926468
sg17
F1509892738.181
sg18
I1
sg19
(lp2185
(lp2186
F1507677797.802
ag2181
aF0.0
aa(lp2187
F1509892738.181
ag2177
aF1.0
aasbsI168
(imyfunction
mondai
p2188
(dp2189
g3
S'2017-11-05 23:42:53'
p2190
sg5
F2.1130383362280279e-07
sg6
S'168.jpg'
p2191
sg8
(lp2192
(lp2193
S'2017-10-11 15:27:59'
p2194
aS'answer is 4'
p2195
aasg13
(lp2196
S'physical'
p2197
asg16
F0.9999999999901513
sg17
F1509892973.614
sg18
I1
sg19
(lp2198
(lp2199
F1507703279.013
ag2194
aF0.0
aa(lp2200
F1509892973.614
ag2190
aF1.0
aasbsI169
(imyfunction
mondai
p2201
(dp2202
g3
S'2017-11-05 23:48:15'
p2203
sg5
F2.1156656384597287e-07
sg6
S'169.jpg'
p2204
sg8
(lp2205
(lp2206
S'2017-10-11 16:49:30'
p2207
aS'ans'
p2208
aasg13
(lp2209
S'physical'
p2210
asg16
F0.9999999999896164
sg17
F1509893295.697
sg18
I1
sg19
(lp2211
(lp2212
F1507708170.907
ag2207
aF0.0
aa(lp2213
F1509893295.697
ag2203
aF1.0
aasbsI170
(imyfunction
mondai
p2214
(dp2215
g3
S'2017-11-05 23:50:34'
p2216
sg5
F2.1167953233805926e-07
sg6
S'170.jpg'
p2217
sg8
(lp2218
(lp2219
S'2017-10-11 18:48:58'
p2220
aS'answer is 1'
p2221
aasg13
(lp2222
S'physical'
p2223
asg16
F0.9999999999887363
sg17
F1509893434.063
sg18
I1
sg19
(lp2224
(lp2225
F1507715338.734
ag2220
aF0.0
aa(lp2226
F1509893434.063
ag2216
aF1.0
aasbsI171
(imyfunction
mondai
p2227
(dp2228
g3
S'2017-11-05 23:53:12'
p2229
sg5
F2.1180922331324337e-07
sg6
S'171.jpg'
p2230
sg8
(lp2231
(lp2232
S'2017-10-11 19:41:13'
p2233
aS'answer is 3'
p2234
aasg13
(lp2235
S'physical'
p2236
asg16
F0.9999999999883415
sg17
F1509893592.82
sg18
I1
sg19
(lp2237
(lp2238
F1507718473.631
ag2233
aF0.0
aa(lp2239
F1509893592.82
ag2229
aF1.0
aasbsI172
(imyfunction
mondai
p2240
(dp2241
g3
S'2017-11-05 23:54:22'
p2242
sg5
F2.1186640889848898e-07
sg6
S'172.jpg'
p2243
sg8
(lp2244
(lp2245
S'2017-10-11 19:47:11'
p2246
aS'answer is 4'
p2247
aasg13
(lp2248
S'chemistry'
p2249
asg16
F0.9999999999883027
sg17
F1509893662.791
sg18
I1
sg19
(lp2250
(lp2251
F1507718831.233
ag2246
aF0.0
aa(lp2252
F1509893662.791
ag2242
aF1.0
aasbsI173
(imyfunction
mondai
p2253
(dp2254
g3
S'2017-11-05 23:57:41'
p2255
sg5
F2.120287344005518e-07
sg6
S'173.jpg'
p2256
sg8
(lp2257
(lp2258
S'2017-10-11 19:52:49'
p2259
aS'answer is 4'
p2260
aasg13
(lp2261
S'chemistry'
p2262
asg16
F0.9999999999882838
sg17
F1509893861.306
sg18
I1
sg19
(lp2263
(lp2264
F1507719169.331
ag2259
aF0.0
aa(lp2265
F1509893861.306
ag2255
aF1.0
aasbsI174
(imyfunction
mondai
p2266
(dp2267
g3
S'2017-11-05 23:59:35'
p2268
sg5
F2.1212244775433938e-07
sg6
S'174.jpg'
p2269
sg8
(lp2270
(lp2271
S'2017-10-11 20:29:32'
p2272
aS'answer is 1'
p2273
aasg13
(lp2274
S'chemistry'
p2275
asg16
F0.9999999999879972
sg17
F1509893975.843
sg18
I1
sg19
(lp2276
(lp2277
F1507721372.248
ag2272
aF0.0
aa(lp2278
F1509893975.843
ag2268
aF1.0
aasbsI175
(imyfunction
mondai
p2279
(dp2280
g3
S'2017-11-11 12:19:25'
p2281
sg5
F1.255074203594504e-06
sg6
S'175.jpg'
p2282
sg8
(lp2283
(lp2284
S'2017-10-11 20:40:42'
p2285
aS'answer is 6'
p2286
aasg13
(lp2287
S'chemistry'
p2288
asg16
F0.9959626992127378
sg17
F1510370365.438
sg18
I1
sg19
(lp2289
(lp2290
F1507722042.07
ag2285
aF0.0
aa(lp2291
F1509894113.178
aS'2017-11-06 00:01:53'
p2292
aF0.0
aa(lp2293
F1510370365.438
ag2281
aF1.0
aasbsI176
(imyfunction
mondai
p2294
(dp2295
g3
S'2017-11-06 00:04:14'
p2296
sg5
F2.123506765480686e-07
sg6
S'176.jpg'
p2297
sg8
(lp2298
(lp2299
S'2017-10-11 20:54:35'
p2300
aS'answer is 2'
p2301
aasg13
(lp2302
S'chemistry'
p2303
asg16
F0.9999999999878258
sg17
F1509894254.574
sg18
I1
sg19
(lp2304
(lp2305
F1507722875.516
ag2300
aF0.0
aa(lp2306
F1509894254.574
ag2296
aF1.0
aasbsI177
(imyfunction
mondai
p2307
(dp2308
g3
S'2017-11-06 00:05:54'
p2309
sg5
F2.1243293740141195e-07
sg6
S'177.jpg'
p2310
sg8
(lp2311
(lp2312
S'2017-10-11 21:05:20'
p2313
aS'answer is 8'
p2314
aasg13
(lp2315
S'chemistry'
p2316
asg16
F0.9999999999877488
sg17
F1509894354.964
sg18
I1
sg19
(lp2317
(lp2318
F1507723520.985
ag2313
aF0.0
aa(lp2319
F1509894354.964
ag2309
aF1.0
aasbsI178
(imyfunction
mondai
p2320
(dp2321
g3
S'2017-11-06 00:13:54'
p2322
sg5
F2.128260622554867e-07
sg6
S'178.jpg'
p2323
sg8
(lp2324
(lp2325
S'2017-10-12 20:33:01'
p2326
aS'answer is 3'
p2327
aasg13
(lp2328
S'physical'
p2329
asg16
F0.999999999967617
sg17
F1509894834.192
sg18
I1
sg19
(lp2330
(lp2331
F1507807981.467
ag2326
aF0.0
aa(lp2332
F1509894834.192
ag2322
aF1.0
aasbsI179
(imyfunction
mondai
p2333
(dp2334
g3
S'2017-11-06 00:15:36'
p2335
sg5
F2.1290990365789812e-07
sg6
S'179.jpg'
p2336
sg8
(lp2337
(lp2338
S'2017-10-12 21:04:22'
p2339
aS'answer is 4'
p2340
aasg13
(lp2341
S'physical'
p2342
asg16
F0.9999999999669433
sg17
F1509894936.282
sg18
I1
sg19
(lp2343
(lp2344
F1507809862.47
ag2339
aF0.0
aa(lp2345
F1509894936.282
ag2335
aF1.0
aasbsI180
(imyfunction
mondai
p2346
(dp2347
g3
S'2017-11-06 00:18:01'
p2348
sg5
F2.130289553722854e-07
sg6
S'180.jpg'
p2349
sg8
(lp2350
(lp2351
S'2017-10-12 21:21:23'
p2352
aS'answer is 2'
p2353
aasg13
(lp2354
S'physical'
p2355
asg16
F0.9999999999666065
sg17
F1509895081.177
sg18
I1
sg19
(lp2356
(lp2357
F1507810883.52
ag2352
aF0.0
aa(lp2358
F1509895081.177
ag2348
aF1.0
aasbsI181
(imyfunction
mondai
p2359
(dp2360
g3
S'2017-11-06 00:25:10'
p2361
sg5
F2.133821748739617e-07
sg6
S'181.jpg'
p2362
sg8
(lp2363
(lp2364
S'2017-10-13 00:54:07'
p2365
aS'answer is 2'
p2366
aasg13
(lp2367
S'physical'
p2368
asg16
F0.9999999999614821
sg17
F1509895510.596
sg18
I1
sg19
(lp2369
(lp2370
F1507823647.317
ag2365
aF0.0
aa(lp2371
F1509895510.596
ag2361
aF1.0
aasbsI182
(imyfunction
mondai
p2372
(dp2373
g3
S'2017-11-06 00:36:54'
p2374
sg5
F2.1396236396991224e-07
sg6
S'182.jpg'
p2375
sg8
(lp2376
(lp2377
S'2017-10-13 01:54:17'
p2378
aS'answer is 3'
p2379
aasg13
(lp2380
S'physical'
p2381
asg16
F0.9999999999601644
sg17
F1509896214.408
sg18
I1
sg19
(lp2382
(lp2383
F1507827257.484
ag2378
aF0.0
aa(lp2384
F1509896214.408
ag2374
aF1.0
aasbsI183
(imyfunction
mondai
p2385
(dp2386
g3
S'2017-11-06 00:43:43'
p2387
sg5
F2.143000111947625e-07
sg6
S'183.jpg'
p2388
sg8
(lp2389
(lp2390
S'2017-10-13 12:50:55'
p2391
aS'answer is 7'
p2392
aasg13
(lp2393
S'physical'
p2394
asg16
F0.9999999999374461
sg17
F1509896623.121
sg18
I1
sg19
(lp2395
(lp2396
F1507866655.695
ag2391
aF0.0
aa(lp2397
F1509896623.121
ag2387
aF1.0
aasbsI184
(imyfunction
mondai
p2398
(dp2399
g3
S'2017-11-06 01:01:19'
p2400
sg5
F2.1517532861155156e-07
sg6
S'184.jpg'
p2401
sg8
(lp2402
(lp2403
S'2017-10-13 13:01:36'
p2404
aS'answer is 6'
p2405
aasg13
(lp2406
S'physical'
p2407
asg16
F0.9999999999377462
sg17
F1509897679.678
sg18
I1
sg19
(lp2408
(lp2409
F1507867296.778
ag2404
aF0.0
aa(lp2410
F1509897679.678
ag2400
aF1.0
aasbsI185
(imyfunction
mondai
p2411
(dp2412
g3
S'2017-11-06 01:03:40'
p2413
sg5
F2.152923088481103e-07
sg6
S'185.jpg'
p2414
sg8
(lp2415
(lp2416
S'2017-10-13 13:37:17'
p2417
aS'answer is 4'
p2418
aasg13
(lp2419
S'chemistry'
p2420
asg16
F0.9999999999362886
sg17
F1509897820.554
sg18
I1
sg19
(lp2421
(lp2422
F1507869437.306
ag2417
aF0.0
aa(lp2423
F1509897820.554
ag2413
aF1.0
aasbsI186
(imyfunction
mondai
p2424
(dp2425
g3
S'2017-11-06 01:05:36'
p2426
sg5
F2.1538849335475393e-07
sg6
S'186.jpg'
p2427
sg8
(lp2428
(lp2429
S'2017-10-13 17:29:58'
p2430
aS'answer is 4'
p2431
aasg13
(lp2432
S'physical'
p2433
asg16
F0.9999999999252155
sg17
F1509897936.329
sg18
I1
sg19
(lp2434
(lp2435
F1507883398.421
ag2430
aF0.0
aa(lp2436
F1509897936.329
ag2426
aF1.0
aasbsI187
(imyfunction
mondai
p2437
(dp2438
g3
S'2017-11-06 16:22:41'
p2439
sg5
F2.663284247528488e-07
sg6
S'187.jpg'
p2440
sg8
(lp2441
(lp2442
S'2017-10-13 17:44:23'
p2443
aS'answer is 3'
p2444
aasg13
(lp2445
S'physical'
p2446
asg16
F0.9999999999600446
sg17
F1509952961.089
sg18
I1
sg19
(lp2447
(lp2448
F1507884263.63
ag2443
aF0.0
aa(lp2449
F1509952961.089
ag2439
aF1.0
aasbsI188
(imyfunction
mondai
p2450
(dp2451
g3
S'2017-11-06 16:25:27'
p2452
sg5
F2.6649992990097774e-07
sg6
S'188.jpg'
p2453
sg8
(lp2454
(lp2455
S'2017-10-13 17:51:16'
p2456
aS'answer is 1'
p2457
aasg13
(lp2458
S'physical'
p2459
asg16
F0.9999999999599307
sg17
F1509953127.95
sg18
I1
sg19
(lp2460
(lp2461
F1507884676.435
ag2456
aF0.0
aa(lp2462
F1509953127.95
ag2452
aF1.0
aasbsI189
(imyfunction
mondai
p2463
(dp2464
g3
S'2017-11-06 16:28:13'
p2465
sg5
F2.6666976357217423e-07
sg6
S'189.jpg'
p2466
sg8
(lp2467
(lp2468
S'2017-10-13 17:56:35'
p2469
aS'answer is 1'
p2470
aasg13
(lp2471
S'physical'
p2472
asg16
F0.9999999999598592
sg17
F1509953293.079
sg18
I1
sg19
(lp2473
(lp2474
F1507884995.554
ag2469
aF0.0
aa(lp2475
F1509953293.079
ag2465
aF1.0
aasbsI190
(imyfunction
mondai
p2476
(dp2477
g3
S'2017-11-06 16:30:51'
p2478
sg5
F2.66832808883001e-07
sg6
S'190.jpg'
p2479
sg8
(lp2480
(lp2481
S'2017-10-14 14:04:14'
p2482
aS'answer is 1'
p2483
aasg13
(lp2484
S'chemistry'
p2485
asg16
F0.9999999999073149
sg17
F1509953451.509
sg18
I1
sg19
(lp2486
(lp2487
F1507957454.81
ag2482
aF0.0
aa(lp2488
F1509953451.509
ag2478
aF1.0
aasbsI191
(imyfunction
mondai
p2489
(dp2490
g3
S'2017-11-06 16:46:12'
p2491
sg5
F2.6778290064369746e-07
sg6
S'191.jpg'
p2492
sg8
(lp2493
(lp2494
S'2017-10-14 14:23:02'
p2495
aS'answer is 6'
p2496
aasg13
(lp2497
S'chemistry'
p2498
asg16
F0.9999999999070927
sg17
F1509954372.784
sg18
I1
sg19
(lp2499
(lp2500
F1507958582.999
ag2495
aF0.0
aa(lp2501
F1509954372.784
ag2491
aF1.0
aasbsI192
(imyfunction
mondai
p2502
(dp2503
g3
S'2017-11-06 16:48:00'
p2504
sg5
F2.6789406807896394e-07
sg6
S'192.jpg'
p2505
sg8
(lp2506
(lp2507
S'2017-10-14 14:27:29'
p2508
aS'answer is 2'
p2509
aasg13
(lp2510
S'chemistry'
p2511
asg16
F0.9999999999069217
sg17
F1509954480.366
sg18
I1
sg19
(lp2512
(lp2513
F1507958849.5
ag2508
aF0.0
aa(lp2514
F1509954480.366
ag2504
aF1.0
aasbsI193
(imyfunction
mondai
p2515
(dp2516
g3
S'2017-11-11 12:27:07'
p2517
sg5
F1.6562204561261685e-18
sg6
S'193.jpg'
p2518
sg8
(lp2519
(lp2520
S'2017-10-15 00:07:09'
p2521
aS'answer is 3'
p2522
aasg13
(lp2523
S'physical'
p2524
asg16
F-0.008101952822045073
sg17
F1510370827.525
sg18
I1
sg19
(lp2525
(lp2526
F1507993629.653
ag2521
aF0.0
aa(lp2527
F1509954755.35
aS'2017-11-06 16:52:35'
p2528
aF0.0
aa(lp2529
F1510370827.525
ag2517
aF0.0
aasbsI194
(imyfunction
mondai
p2530
(dp2531
g3
S'2017-12-22 01:56:40'
p2532
sg5
F0.9943498381321243
sg6
S'194.jpg'
p2533
sg8
(lp2534
(lp2535
S'2017-10-15 00:18:36'
p2536
aS'answer is 1'
p2537
aasg13
(lp2538
S'physical'
p2539
asg16
F0.9999999998603175
sg17
F1513875400.844
sg18
I1
sg19
(lp2540
(lp2541
F1507994316.668
ag2536
aF0.0
aa(lp2542
F1509954875.181
aS'2017-11-06 16:54:35'
p2543
aF0.0
aa(lp2544
F1513875400.844
ag2532
aF1.0
aasbsI195
(imyfunction
mondai
p2545
(dp2546
g3
S'2017-11-06 16:57:16'
p2547
sg5
F2.6846935259556184e-07
sg6
S'195.jpg'
p2548
sg8
(lp2549
(lp2550
S'2017-10-15 00:26:03'
p2551
aS'answer is 4'
p2552
aasg13
(lp2553
S'physical'
p2554
asg16
F0.9999999998598544
sg17
F1509955036.384
sg18
I1
sg19
(lp2555
(lp2556
F1507994763.883
ag2551
aF0.0
aa(lp2557
F1509955036.384
ag2547
aF1.0
aasbsI196
(imyfunction
mondai
p2558
(dp2559
g3
S'2017-12-22 01:59:44'
p2560
sg5
F0.9852417571748127
sg6
S'196.jpg'
p2561
sg8
(lp2562
(lp2563
S'2017-10-15 00:30:39'
p2564
aS'answer is 1'
p2565
aasg13
(lp2566
S'physical'
p2567
asg16
F-1.395891548976762e-10
sg17
F1513875584.904
sg18
I1
sg19
(lp2568
(lp2569
F1507995039.301
ag2564
aF0.0
aa(lp2570
F1509955655.543
aS'2017-11-06 17:07:35'
p2571
aF0.0
aa(lp2572
F1513875584.904
ag2560
aF0.0
aasbsI197
(imyfunction
mondai
p2573
(dp2574
g3
S'2017-11-06 17:08:18'
p2575
sg5
F2.6915606391304415e-07
sg6
S'197.jpg'
p2576
sg8
(lp2577
(lp2578
S'2017-10-15 01:51:08'
p2579
aS'answer is 2'
p2580
aasg13
(lp2581
S'physical'
p2582
asg16
F0.9999999998524607
sg17
F1509955698.539
sg18
I1
sg19
(lp2583
(lp2584
F1507999868.093
ag2579
aF0.0
aa(lp2585
F1509955698.539
ag2575
aF1.0
aasbsI198
(imyfunction
mondai
p2586
(dp2587
g3
S'2017-12-22 02:07:02'
p2588
sg5
F0.990243943792874
sg6
S'198.jpg'
p2589
sg8
(lp2590
(lp2591
S'2017-10-15 01:58:06'
p2592
aS'answer is 6'
p2593
aasg13
(lp2594
S'physical'
p2595
asg16
F-1.4783945912874798e-10
sg17
F1513876022.457
sg18
I1
sg19
(lp2596
(lp2597
F1508000286.81
ag2592
aF0.0
aa(lp2598
F1509955941.666
aS'2017-11-06 17:12:21'
p2599
aF0.0
aa(lp2600
F1513876022.457
ag2588
aF0.0
aasbsI199
(imyfunction
mondai
p2601
(dp2602
g3
S'2017-11-06 17:13:52'
p2603
sg5
F2.695026238113222e-07
sg6
S'199.jpg'
p2604
sg8
(lp2605
(lp2606
S'2017-10-15 02:02:51'
p2607
aS'answer is 4'
p2608
aasg13
(lp2609
S'chemistry'
p2610
asg16
F0.9999999998518283
sg17
F1509956032.065
sg18
I1
sg19
(lp2611
(lp2612
F1508000571.139
ag2607
aF0.0
aa(lp2613
F1509956032.065
ag2603
aF1.0
aasbsI200
(imyfunction
mondai
p2614
(dp2615
g3
S'2017-11-06 17:16:59'
p2616
sg5
F2.6969786242527996e-07
sg6
S'200.jpg'
p2617
sg8
(lp2618
(lp2619
S'2017-10-15 02:21:46'
p2620
aS'answer is 2'
p2621
aasg13
(lp2622
S'chemistry'
p2623
asg16
F0.9999999998501934
sg17
F1509956219.772
sg18
I1
sg19
(lp2624
(lp2625
F1508001706.966
ag2620
aF0.0
aa(lp2626
F1509956219.772
ag2616
aF1.0
aasbsI201
(imyfunction
mondai
p2627
(dp2628
g3
S'2017-12-22 02:21:15'
p2629
sg5
F1.9665663024777444e-20
sg6
S'201.jpg'
p2630
sg8
(lp2631
(lp2632
S'2017-10-15 02:32:25'
p2633
aS'answer is 5'
p2634
aasg13
(lp2635
S'chemistry'
p2636
asg16
F0.999999999849466
sg17
F1513876875.554
sg18
I1
sg19
(lp2637
(lp2638
F1508002345.603
ag2633
aF0.0
aa(lp2639
F1509956439.886
aS'2017-11-06 17:20:39'
p2640
aF0.0
aa(lp2641
F1513876875.554
ag2629
aF1.0
aasbsI202
(imyfunction
mondai
p2642
(dp2643
g3
S'2017-11-06 18:06:21'
p2644
sg5
F2.0301087192325923e-20
sg6
S'202.jpg'
p2645
sg8
(lp2646
(lp2647
S'2017-10-15 14:33:39'
p2648
aS'answer is 3'
p2649
aasg13
(lp2650
S'physical'
p2651
asg16
F-2.4064339264238433e-10
sg17
F1509959181.399
sg18
I1
sg19
(lp2652
(lp2653
F1508045619.689
ag2648
aF0.0
aa(lp2654
F1509959181.399
ag2644
aF0.0
aasbsI203
(imyfunction
mondai
p2655
(dp2656
g3
S'2017-11-06 18:07:12'
p2657
sg5
F2.728513066598818e-07
sg6
S'203.jpg'
p2658
sg8
(lp2659
(lp2660
S'2017-10-15 15:06:25'
p2661
aS'answer is 4'
p2662
aasg13
(lp2663
S'physical'
p2664
asg16
F0.9999999997539664
sg17
F1509959232.889
sg18
I1
sg19
(lp2665
(lp2666
F1508047585.104
ag2661
aF0.0
aa(lp2667
F1509959232.889
ag2657
aF1.0
aasbsI204
(imyfunction
mondai
p2668
(dp2669
g3
S'2017-11-06 18:25:55'
p2670
sg5
F2.740354073739744e-07
sg6
S'204.jpg'
p2671
sg8
(lp2672
(lp2673
S'2017-10-15 15:34:46'
p2674
aS'answer is 2'
p2675
aasg13
(lp2676
S'physical'
p2677
asg16
F0.9999999997523126
sg17
F1509960355.313
sg18
I1
sg19
(lp2678
(lp2679
F1508049286.372
ag2674
aF0.0
aa(lp2680
F1509960355.313
ag2670
aF1.0
aasbsI205
(imyfunction
mondai
p2681
(dp2682
g3
S'2017-11-06 18:26:37'
p2683
sg5
F2.740795949145318e-07
sg6
S'205.jpg'
p2684
sg8
(lp2685
(lp2686
S'2017-10-15 15:38:16'
p2687
aS'answer is 6'
p2688
aasg13
(lp2689
S'physical'
p2690
asg16
F0.9999999997518302
sg17
F1509960397.105
sg18
I1
sg19
(lp2691
(lp2692
F1508049496.279
ag2687
aF0.0
aa(lp2693
F1509960397.105
ag2683
aF1.0
aasbsI206
(imyfunction
mondai
p2694
(dp2695
g3
S'2017-11-06 18:28:44'
p2696
sg5
F2.7421438803487134e-07
sg6
S'206.jpg'
p2697
sg8
(lp2698
(lp2699
S'2017-10-15 16:36:48'
p2700
aS'answer is 2'
p2701
aasg13
(lp2702
S'chemistry'
p2703
asg16
F0.9999999997419139
sg17
F1509960524.549
sg18
I1
sg19
(lp2704
(lp2705
F1508053008.871
ag2700
aF0.0
aa(lp2706
F1509960524.549
ag2696
aF1.0
aasbsI207
(imyfunction
mondai
p2707
(dp2708
g3
S'2017-11-06 18:36:04'
p2709
sg5
F2.74679821415226e-07
sg6
S'207.jpg'
p2710
sg8
(lp2711
(lp2712
S'2017-10-15 16:41:27'
p2713
aS'answer is 5'
p2714
aasg13
(lp2715
S'chemistry'
p2716
asg16
F0.9999999997423948
sg17
F1509960964.125
sg18
I1
sg19
(lp2717
(lp2718
F1508053287.288
ag2713
aF0.0
aa(lp2719
F1509960964.125
ag2709
aF1.0
aasbsI208
(imyfunction
mondai
p2720
(dp2721
g3
S'2017-11-06 18:38:16'
p2722
sg5
F2.7481996374888395e-07
sg6
S'208.jpg'
p2723
sg8
(lp2724
(lp2725
S'2017-10-15 21:19:51'
p2726
aS'answer is 2'
p2727
aasg13
(lp2728
S'physical'
p2729
asg16
F0.999999999687928
sg17
F1509961096.336
sg18
I1
sg19
(lp2730
(lp2731
F1508069991.529
ag2726
aF0.0
aa(lp2732
F1509961096.336
ag2722
aF1.0
aasbsI209
(imyfunction
mondai
p2733
(dp2734
g3
S'2017-11-06 18:39:31'
p2735
sg5
F2.7489975235781097e-07
sg6
S'209.jpg'
p2736
sg8
(lp2737
(lp2738
S'2017-10-16 01:40:11'
p2739
aS'answer is 2'
p2740
aasg13
(lp2741
S'physical'
p2742
asg16
F0.9999999996264125
sg17
F1509961171.579
sg18
I1
sg19
(lp2743
(lp2744
F1508085611.712
ag2739
aF0.0
aa(lp2745
F1509961171.579
ag2735
aF1.0
aasbsI210
(imyfunction
mondai
p2746
(dp2747
g3
S'2017-11-06 18:45:04'
p2748
sg5
F2.7525282735131413e-07
sg6
S'210.jpg'
p2749
sg8
(lp2750
(lp2751
S'2017-10-16 02:03:46'
p2752
aS'answer is 4'
p2753
aasg13
(lp2754
S'physical'
p2755
asg16
F0.999999999621705
sg17
F1509961504.276
sg18
I1
sg19
(lp2756
(lp2757
F1508087026.29
ag2752
aF0.0
aa(lp2758
F1509961504.276
ag2748
aF1.0
aasbsI211
(imyfunction
mondai
p2759
(dp2760
g3
S'2017-11-06 19:02:21'
p2761
sg5
F2.7635628014863996e-07
sg6
S'211.jpg'
p2762
sg8
(lp2763
(lp2764
S'2017-10-16 15:14:57'
p2765
aS'answer is 4'
p2766
aasg13
(lp2767
S'physical'
p2768
asg16
F0.9999999993525095
sg17
F1509962541.299
sg18
I1
sg19
(lp2769
(lp2770
F1508134497.273
ag2765
aF0.0
aa(lp2771
F1509962541.299
ag2761
aF1.0
aasbsI212
(imyfunction
mondai
p2772
(dp2773
g3
S'2017-11-06 19:05:26'
p2774
sg5
F2.1151360851051652e-20
sg6
S'212.jpg'
p2775
sg8
(lp2776
(lp2777
S'2017-10-16 15:52:15'
p2778
aS'answer is 4'
p2779
aasg13
(lp2780
S'chemistry'
p2781
asg16
F-6.630643867513114e-10
sg17
F1509962726.376
sg18
I1
sg19
(lp2782
(lp2783
F1508136735.901
ag2778
aF0.0
aa(lp2784
F1509962726.376
ag2774
aF0.0
aasbsI213
(imyfunction
mondai
p2785
(dp2786
g3
S'2017-11-09 02:26:54'
p2787
sg5
F0.00025491040007991577
sg6
S'213.jpg'
p2788
sg8
(lp2789
sg13
(lp2790
S'math'
p2791
asg16
F1.4999986029071528
sg17
F1510162014.361
sg18
I4
sg19
(lp2792
(lp2793
F1508144576.122
aS'2017-10-16 18:02:56'
p2794
aF0.5
aa(lp2795
F1510162014.361
ag2787
aF1.0
aasbsI214
(imyfunction
mondai
p2796
(dp2797
g3
S'2017-11-08 05:14:31'
p2798
sg5
F5.248008362424446e-13
sg6
S'214.jpg'
p2799
sg8
(lp2800
sg13
(lp2801
S'math'
p2802
asg16
F0.4
sg17
F1510085671.282
sg18
I5
sg19
(lp2803
(lp2804
F1508166942.318
aS'2017-10-17 00:15:42'
p2805
aF0.4
aa(lp2806
F1510085671.282
ag2798
aF6.096460601900306e-07
aasbsI215
(imyfunction
mondai
p2807
(dp2808
g3
S'2017-11-10 03:14:05'
p2809
sg5
F0.0021625213465619824
sg6
S'215.jpg'
p2810
sg8
(lp2811
sg13
(lp2812
S'math'
p2813
asg16
F1.7499736421354513
sg17
F1510251245.902
sg18
I4
sg19
(lp2814
(lp2815
F1508174661.772
aS'2017-10-17 02:24:21'
p2816
aF0.75
aa(lp2817
F1510251245.902
ag2809
aF1.0
aasbsI216
(imyfunction
mondai
p2818
(dp2819
g3
S'2017-11-10 01:33:55'
p2820
sg5
F0.0011302261382436448
sg6
S'216.jpg'
p2821
sg8
(lp2822
sg13
(lp2823
S'math'
p2824
asg16
F1.6599908280325435
sg17
F1510245235.245
sg18
I3
sg19
(lp2825
(lp2826
F1508175819.491
aS'2017-10-17 02:43:39'
p2827
aF0.66
aa(lp2828
F1510245235.245
ag2820
aF1.0
aasbsI217
(imyfunction
mondai
p2829
(dp2830
g3
S'2017-11-10 03:33:06'
p2831
sg5
F0.0003116651826827394
sg6
S'217.jpg'
p2832
sg8
(lp2833
sg13
(lp2834
S'math'
p2835
asg16
F1.499967047738577
sg17
F1510252386.133
sg18
I4
sg19
(lp2836
(lp2837
F1508219779.466
aS'2017-10-17 14:56:19'
p2838
aF0.75
aa(lp2839
F1510252386.133
ag2831
aF0.75
aasbsI218
(imyfunction
mondai
p2840
(dp2841
g3
S'2017-11-09 05:55:27'
p2842
sg5
F0.00026211362848211034
sg6
S'218.jpg'
p2843
sg8
(lp2844
sg13
(lp2845
S'math'
p2846
asg16
F1.499997801554907
sg17
F1510174527.972
sg18
I5
sg19
(lp2847
(lp2848
F1508224934.21
aS'2017-10-17 16:22:14'
p2849
aF0.5
aa(lp2850
F1510174527.972
ag2842
aF1.0
aasbsI219
(imyfunction
mondai
p2851
(dp2852
g3
S'2017-11-08 03:14:19'
p2853
sg5
F2.6463151473471462e-05
sg6
S'219.jpg'
p2854
sg8
(lp2855
sg13
(lp2856
S'math'
p2857
asg16
F1.2999998000052295
sg17
F1510078459.098
sg18
I4
sg19
(lp2858
(lp2859
F1508225462.692
aS'2017-10-17 16:31:02'
p2860
aF0.3
aa(lp2861
F1510078459.098
ag2853
aF1.0
aasbsI220
(imyfunction
mondai
p2862
(dp2863
g3
S'2017-11-10 05:06:46'
p2864
sg5
F2.7929175280505172e-08
sg6
S'220.jpg'
p2865
sg8
(lp2866
sg13
(lp2867
S'math'
p2868
asg16
F0.7999414144891381
sg17
F1510258006.687
sg18
I5
sg19
(lp2869
(lp2870
F1508230353.749
aS'2017-10-17 17:52:33'
p2871
aF0.8
aa(lp2872
F1510258006.687
ag2864
aF0.0
aasbsI221
(imyfunction
mondai
p2873
(dp2874
g3
S'2017-11-10 01:14:31'
p2875
sg5
F3.582556140144039e-10
sg6
S'221.jpg'
p2876
sg8
(lp2877
sg13
(lp2878
S'math'
p2879
asg16
F0.6
sg17
F1510244071.505
sg18
I10
sg19
(lp2880
(lp2881
F1508241590.206
aS'2017-10-17 20:59:50'
p2882
aF0.6
aa(lp2883
F1510244071.505
ag2875
aF6.212340971289375e-06
aasbsI222
(imyfunction
mondai
p2884
(dp2885
g3
S'2017-11-10 00:48:31'
p2886
sg5
F2.836546778495925e-11
sg6
S'222.jpg'
p2887
sg8
(lp2888
sg13
(lp2889
S'math'
p2890
asg16
F0.5
sg17
F1510242511.948
sg18
I6
sg19
(lp2891
(lp2892
F1508350007.402
aS'2017-10-19 03:06:47'
p2893
aF0.5
aa(lp2894
F1510242511.948
ag2886
aF3.2195361770077225e-06
aasbsI223
(imyfunction
mondai
p2895
(dp2896
g3
S'2017-11-10 01:26:03'
p2897
sg5
F0.0005578105649722644
sg6
S'223.jpg'
p2898
sg8
(lp2899
sg13
(lp2900
S'math'
p2901
asg16
F1.5699918555322998
sg17
F1510244763.667
sg18
I7
sg19
(lp2902
(lp2903
F1508350969.765
aS'2017-10-19 03:22:49'
p2904
aF0.57
aa(lp2905
F1510244763.667
ag2897
aF1.0
aasbsI224
(imyfunction
mondai
p2906
(dp2907
g3
S'2017-11-08 21:47:43'
p2908
sg5
F4.4559213748623915e-05
sg6
S'224.jpg'
p2909
sg8
(lp2910
sg13
(lp2911
S'math'
p2912
asg16
F1.3299994627190304
sg17
F1510145263.685
sg18
I6
sg19
(lp2913
(lp2914
F1508352871.541
aS'2017-10-19 03:54:31'
p2915
aF0.33
aa(lp2916
F1510145263.685
ag2908
aF1.0
aasbsI225
(imyfunction
mondai
p2917
(dp2918
g3
S'2017-11-09 05:48:12'
p2919
sg5
F1.0464553270111275e-05
sg6
S'225.jpg'
p2920
sg8
(lp2921
sg13
(lp2922
S'math'
p2923
asg16
F1.1999978373831555
sg17
F1510174092.115
sg18
I5
sg19
(lp2924
(lp2925
F1508425133.985
aS'2017-10-19 23:58:53'
p2926
aF0.4
aa(lp2927
F1510174092.115
ag2919
aF0.8
aasbsI226
(imyfunction
mondai
p2928
(dp2929
g3
S'2017-11-10 15:53:31'
p2930
sg5
F0.0013858877778613699
sg6
S'226.jpg'
p2931
sg8
(lp2932
sg13
(lp2933
S'math'
p2934
asg16
F1.674746289188596
sg17
F1510296811.812
sg18
I6
sg19
(lp2935
(lp2936
F1508426175.882
aS'2017-10-20 00:16:15'
p2937
aF0.875
aa(lp2938
F1510296811.812
ag2930
aF0.8
aasbsI227
(imyfunction
mondai
p2939
(dp2940
g3
S'2017-11-10 01:12:30'
p2941
sg5
F0.0003059375813189723
sg6
S'227.jpg'
p2942
sg8
(lp2943
sg13
(lp2944
S'math'
p2945
asg16
F1.4999943213686349
sg17
F1510243950.332
sg18
I4
sg19
(lp2946
(lp2947
F1508436367.652
aS'2017-10-20 03:06:07'
p2948
aF0.5
aa(lp2949
F1510243950.332
ag2941
aF1.0
aasbsI228
(imyfunction
mondai
p2950
(dp2951
g3
S'2017-11-09 02:18:06'
p2952
sg5
F4.654269085224622e-05
sg6
S'228.jpg'
p2953
sg8
(lp2954
sg13
(lp2955
S'math'
p2956
asg16
F1.3299990661564391
sg17
F1510161486.509
sg18
I6
sg19
(lp2957
(lp2958
F1508437725.656
aS'2017-10-20 03:28:45'
p2959
aF0.33
aa(lp2960
F1510161486.509
ag2952
aF1.0
aasbsI229
(imyfunction
mondai
p2961
(dp2962
g3
S'2017-11-08 04:50:03'
p2963
sg5
F1.4841643265208833e-05
sg6
S'229.jpg'
p2964
sg8
(lp2965
sg13
(lp2966
S'math'
p2967
asg16
F1.2499994518444923
sg17
F1510084203.559
sg18
I4
sg19
(lp2968
(lp2969
F1508444897.203
aS'2017-10-20 05:28:17'
p2970
aF0.25
aa(lp2971
F1510084203.559
ag2963
aF1.0
aasbsI230
(imyfunction
mondai
p2972
(dp2973
g3
S'2017-11-10 12:04:02'
p2974
sg5
F3.14484862460522e-08
sg6
S'230.jpg'
p2975
sg8
(lp2976
sg13
(lp2977
S'math'
p2978
asg16
F0.7998542697264029
sg17
F1510283042.793
sg18
I1
sg19
(lp2979
(lp2980
F1508444998.374
aS'2017-10-20 05:29:58'
p2981
aF0.8
aa(lp2982
F1510283042.793
ag2974
aF0.0
aasbsI231
(imyfunction
mondai
p2983
(dp2984
g3
S'2017-11-10 01:14:24'
p2985
sg5
F0.00030601418711045865
sg6
S'231.jpg'
p2986
sg8
(lp2987
sg13
(lp2988
S'math'
p2989
asg16
F1.4999939663894453
sg17
F1510244064.149
sg18
I2
sg19
(lp2990
(lp2991
F1508445555.5
aS'2017-10-20 05:39:15'
p2992
aF0.5
aa(lp2993
F1510244064.149
ag2985
aF1.0
aasbsI232
(imyfunction
mondai
p2994
(dp2995
g3
S'2017-11-08 02:26:11'
p2996
sg5
F9.296385869624184e-12
sg6
S'232.jpg'
p2997
sg8
(lp2998
sg13
(lp2999
S'math'
p3000
asg16
F0.49999999356933633
sg17
F1510075571.304
sg18
I2
sg19
(lp3001
(lp3002
F1508445878.253
aS'2017-10-20 05:44:38'
p3003
aF0.0
aa(lp3004
F1510075571.304
ag2996
aF0.5
aasbsI233
(imyfunction
mondai
p3005
(dp3006
g3
S'2017-11-08 02:26:39'
p3007
sg5
F4.274640619955581e-07
sg6
S'233.jpg'
p3008
sg8
(lp3009
sg13
(lp3010
S'math'
p3011
asg16
F0.9999999915987503
sg17
F1510075599.01
sg18
I1
sg19
(lp3012
(lp3013
F1508469000.914
aS'2017-10-20 12:10:00'
p3014
aF0.0
aa(lp3015
F1510075599.01
ag3007
aF1.0
aasbsI234
(imyfunction
mondai
p3016
(dp3017
g3
S'2017-11-08 02:37:03'
p3018
sg5
F4.284959388221236e-07
sg6
S'234.jpg'
p3019
sg8
(lp3020
sg13
(lp3021
S'math'
p3022
asg16
F0.9999999894002752
sg17
F1510076223.961
sg18
I1
sg19
(lp3023
(lp3024
F1508489709.335
aS'2017-10-20 17:55:09'
p3025
aF0.0
aa(lp3026
F1510076223.961
ag3018
aF1.0
aasbsI235
(imyfunction
mondai
p3027
(dp3028
g3
S'2017-11-09 02:29:37'
p3029
sg5
F4.6628672013871065e-05
sg6
S'235.jpg'
p3030
sg8
(lp3031
sg13
(lp3032
S'math'
p3033
asg16
F1.3299982524312903
sg17
F1510162177.271
sg18
I3
sg19
(lp3034
(lp3035
F1508516220.781
aS'2017-10-21 01:17:00'
p3036
aF0.33
aa(lp3037
F1510162177.271
ag3029
aF1.0
aasbsI236
(imyfunction
mondai
p3038
(dp3039
g3
S'2017-11-09 02:58:36'
p3040
sg5
F5.130295259625907e-07
sg6
S'236.jpg'
p3041
sg8
(lp3042
sg13
(lp3043
S'math'
p3044
asg16
F0.9899981694876552
sg17
F1510163916.825
sg18
I1
sg19
(lp3045
(lp3046
F1508523717.444
aS'2017-10-21 03:21:57'
p3047
aF0.33
aa(lp3048
F1510163916.825
ag3040
aF0.66
aasbsI237
(imyfunction
mondai
p3049
(dp3050
g3
S'2017-11-08 02:46:57'
p3051
sg5
F4.2947851809547097e-07
sg6
S'237.jpg'
p3052
sg8
(lp3053
(lp3054
S'2017-10-21 20:08:26'
p3055
aS'answer is 4'
p3056
aasg13
(lp3057
S'math'
p3058
asg16
F0.9999999686090592
sg17
F1510076817.736
sg18
I1
sg19
(lp3059
(lp3060
F1508584106.839
ag3055
aF0.0
aa(lp3061
F1510076817.736
ag3051
aF1.0
aasbsI238
(imyfunction
mondai
p3062
(dp3063
g3
S'2017-11-08 02:55:29'
p3064
sg5
F4.303264685005667e-07
sg6
S'238.jpg'
p3065
sg8
(lp3066
sg13
(lp3067
S'math'
p3068
asg16
F0.9999999472148691
sg17
F1510077329.078
sg18
I1
sg19
(lp3069
(lp3070
F1508629521.142
aS'2017-10-22 08:45:21'
p3071
aF0.0
aa(lp3072
F1510077329.078
ag3064
aF1.0
aasbsI239
(imyfunction
mondai
p3073
(dp3074
g3
S'2017-11-10 11:57:03'
p3075
sg5
F9.486890995459891e-07
sg6
S'239.jpeg'
p3076
sg8
(lp3077
sg13
(lp3078
S'math'
p3079
asg16
F0.9999018152375447
sg17
F1510282623.766
sg18
I5
sg19
(lp3080
(lp3081
F1508741189.11
aS'2017-10-23 15:46:29'
p3082
aF0.6
aa(lp3083
F1510282623.766
ag3075
aF0.4
aasbsI240
(imyfunction
mondai
p3084
(dp3085
g3
S'2017-11-08 03:02:04'
p3086
sg5
F4.3098215245559344e-07
sg6
S'240.jpg'
p3087
sg8
(lp3088
sg13
(lp3089
S'math'
p3090
asg16
F0.9999998065123884
sg17
F1510077724.305
sg18
I1
sg19
(lp3091
(lp3092
F1508742148.582
aS'2017-10-23 16:02:28'
p3093
aF0.0
aa(lp3094
F1510077724.305
ag3086
aF1.0
aasbsI241
(imyfunction
mondai
p3095
(dp3096
g3
S'2017-11-08 03:05:30'
p3097
sg5
F8.024425436807916e-20
sg6
S'241.jpg'
p3098
sg8
(lp3099
(lp3100
S'2017-10-23 16:07:55'
p3101
aS'answer is 0'
p3102
aasg13
(lp3103
S'math'
p3104
asg16
F-1.9375858747914604e-07
sg17
F1510077930.429
sg18
I1
sg19
(lp3105
(lp3106
F1508742475.623
ag3101
aF0.0
aa(lp3107
F1510077930.429
ag3097
aF0.0
aasbsI242
(imyfunction
mondai
p3108
(dp3109
g3
S'2017-11-10 00:47:11'
p3110
sg5
F2.360037689655429e-05
sg6
S'242.jpg'
p3111
sg8
(lp3112
sg13
(lp3113
S'math'
p3114
asg16
F1.249998118931253
sg17
F1510242431.976
sg18
I4
sg19
(lp3115
(lp3116
F1508743332.698
aS'2017-10-23 16:22:12'
p3117
aF0.25
aa(lp3118
F1510242431.976
ag3110
aF1.0
aasbsI243
(imyfunction
mondai
p3119
(dp3120
g3
S'2017-11-08 05:32:57'
p3121
sg5
F8.889398176862158e-20
sg6
S'243.jpg'
p3122
sg8
(lp3123
sg13
(lp3124
S'math'
p3125
asg16
F-6.738491214698136e-07
sg17
F1510086777.133
sg18
I1
sg19
(lp3126
(lp3127
F1508859010.703
aS'2017-10-25 00:30:10'
p3128
aF0.0
aa(lp3129
F1510086777.133
ag3121
aF0.0
aasbsI244
(imyfunction
mondai
p3130
(dp3131
g3
S'2017-11-08 05:40:14'
p3132
sg5
F8.934480210221255e-20
sg6
S'244.jpg'
p3133
sg8
(lp3134
(lp3135
S'2017-10-25 00:46:52'
p3136
aS'answer is 7'
p3137
aasg13
(lp3138
S'math'
p3139
asg16
F-6.782695870993274e-07
sg17
F1510087214.216
sg18
I1
sg19
(lp3140
(lp3141
F1508860012.721
ag3136
aF0.0
aa(lp3142
F1510087214.216
ag3132
aF0.0
aasbsI245
(imyfunction
mondai
p3143
(dp3144
g3
S'2017-11-09 02:09:48'
p3145
sg5
F1.754037400039213e-08
sg6
S'245.jpg'
p3146
sg8
(lp3147
sg13
(lp3148
S'math'
p3149
asg16
F0.7999995385077565
sg17
F1510160988.157
sg18
I4
sg19
(lp3150
(lp3151
F1508900515.786
aS'2017-10-25 12:01:55'
p3152
aF0.0
aa(lp3153
F1510160988.157
ag3145
aF0.8
aasbsI246
(imyfunction
mondai
p3154
(dp3155
g3
S'2017-11-10 02:40:01'
p3156
sg5
F1.3203563888423909e-05
sg6
S'246.jpg'
p3157
sg8
(lp3158
sg13
(lp3159
S'math'
p3160
asg16
F1.1999881071068146
sg17
F1510249201.224
sg18
I5
sg19
(lp3161
(lp3162
F1509028710.277
aS'2017-10-26 23:38:30'
p3163
aF0.2
aa(lp3164
F1510249201.224
ag3156
aF1.0
aasbsI247
(imyfunction
mondai
p3165
(dp3166
g3
S'2017-11-10 00:47:51'
p3167
sg5
F8.137363486465752e-07
sg6
S'247.jpg'
p3168
sg8
(lp3169
(lp3170
S'2017-10-27 22:14:21'
p3171
aS'answer is 1'
p3172
aasg13
(lp3173
S'math'
p3174
asg16
F0.9999979682138087
sg17
F1510242471.287
sg18
I1
sg19
(lp3175
(lp3176
F1509110061.457
ag3171
aF0.0
aa(lp3177
F1510242471.287
ag3167
aF1.0
aasbsI248
(imyfunction
mondai
p3178
(dp3179
g3
S'2017-11-10 04:24:35'
p3180
sg5
F8.550222191930444e-07
sg6
S'248.jpg'
p3181
sg8
(lp3182
(lp3183
S'2017-10-31 04:53:35'
p3184
aS'answer is 85'
p3185
aasg13
(lp3186
S'math'
p3187
asg16
F0.9999536766883157
sg17
F1510255475.554
sg18
I1
sg19
(lp3188
(lp3189
F1509393215.198
ag3184
aF0.0
aa(lp3190
F1510255475.554
ag3180
aF1.0
aasbsI249
(imyfunction
mondai
p3191
(dp3192
g3
S'2017-11-10 04:59:15'
p3193
sg5
F6.403143504111428e-19
sg6
S'249.jpg'
p3194
sg8
(lp3195
sg13
(lp3196
S'math'
p3197
asg16
F-4.60969568217463e-05
sg17
F1510257555.701
sg18
I3
sg19
(lp3198
(lp3199
F1509394872.124
aS'2017-10-31 05:21:12'
p3200
aF0.0
aa(lp3201
F1510257555.701
ag3193
aF0.0
aasbsI250
(imyfunction
mondai
p3202
(dp3203
g3
S'2017-11-10 11:44:21'
p3204
sg5
F8.470854927808566e-19
sg6
S'250.jpg'
p3205
sg8
(lp3206
(lp3207
S'2017-11-01 00:55:27'
p3208
aS'answer is 1340'
p3209
aasg13
(lp3210
S'math'
p3211
asg16
F-7.864065906373914e-05
sg17
F1510281861.394
sg18
I1
sg19
(lp3212
(lp3213
F1509465327.679
ag3208
aF0.0
aa(lp3214
F1510281861.394
ag3204
aF0.0
aasbsI251
(imyfunction
mondai
p3215
(dp3216
g3
S'2017-11-10 16:45:16'
p3217
sg5
F3.886667680176098e-05
sg6
S'251.jpg'
p3218
sg8
(lp3219
sg13
(lp3220
S'math'
p3221
asg16
F1.27913730404806
sg17
F1510299916.545
sg18
I7
sg19
(lp3222
(lp3223
F1509470768.074
aS'2017-11-01 02:26:08'
p3224
aF0.28
aa(lp3225
F1510299916.545
ag3217
aF1.0
aasbsI252
(imyfunction
mondai
p3226
(dp3227
g3
S'2017-11-10 16:12:45'
p3228
sg5
F2.754141842055995e-05
sg6
S'252.jpg'
p3229
sg8
(lp3230
sg13
(lp3231
S'math'
p3232
asg16
F1.2492723989411336
sg17
F1510297965.984
sg18
I4
sg19
(lp3233
(lp3234
F1509476333.79
aS'2017-11-01 03:58:53'
p3235
aF0.25
aa(lp3236
F1510297965.984
ag3228
aF1.0
aasbsI253
(imyfunction
mondai
p3237
(dp3238
g3
S'2017-11-10 12:10:32'
p3239
sg5
F8.576621108943358e-19
sg6
S'253.jpg'
p3240
sg8
(lp3241
(lp3242
S'2017-11-02 00:22:21'
p3243
aS'answer is 5'
p3244
aasg13
(lp3245
S'physical'
p3246
asg16
F-0.00020514374020957896
sg17
F1510283432.846
sg18
I1
sg19
(lp3247
(lp3248
F1509549741.356
ag3243
aF0.0
aa(lp3249
F1510283432.846
ag3239
aF0.0
aasbsI254
(imyfunction
mondai
p3250
(dp3251
g3
S'2017-11-10 12:12:31'
p3252
sg5
F9.505380047584804e-07
sg6
S'254.jpg'
p3253
sg8
(lp3254
(lp3255
S'2017-11-02 00:25:22'
p3256
aS'answer is 6'
p3257
aasg13
(lp3258
S'physical'
p3259
asg16
F0.9997947063361344
sg17
F1510283551.232
sg18
I1
sg19
(lp3260
(lp3261
F1509549922.862
ag3256
aF0.0
aa(lp3262
F1510283551.232
ag3252
aF1.0
aasbsI255
(imyfunction
mondai
p3263
(dp3264
g3
S'2017-11-10 15:30:19'
p3265
sg5
F9.954718232957602e-07
sg6
S'255.jpg'
p3266
sg8
(lp3267
(lp3268
S'2017-11-02 00:29:37'
p3269
aS'answer is 2'
p3270
aasg13
(lp3271
S'physical'
p3272
asg16
F0.9998205260396484
sg17
F1510295419.047
sg18
I1
sg19
(lp3273
(lp3274
F1509550177.538
ag3269
aF0.0
aa(lp3275
F1510295419.047
ag3265
aF1.0
aasbsI256
(imyfunction
mondai
p3276
(dp3277
g3
S'2017-11-10 15:31:13'
p3278
sg5
F9.956670323049618e-07
sg6
S'256.jpg'
p3279
sg8
(lp3280
(lp3281
S'2017-11-02 00:37:20'
p3282
aS'answer is 3'
p3283
aasg13
(lp3284
S'physical'
p3285
asg16
F0.9998196752046284
sg17
F1510295473.208
sg18
I1
sg19
(lp3286
(lp3287
F1509550640.329
ag3282
aF0.0
aa(lp3288
F1510295473.208
ag3278
aF1.0
aasbsI257
(imyfunction
mondai
p3289
(dp3290
g3
S'2017-11-10 15:32:10'
p3291
sg5
F9.958795426897211e-07
sg6
S'257.jpg'
p3292
sg8
(lp3293
(lp3294
S'2017-11-02 00:43:18'
p3295
aS'answer is 6'
p3296
aasg13
(lp3297
S'physical'
p3298
asg16
F0.9998190462921472
sg17
F1510295530.988
sg18
I1
sg19
(lp3299
(lp3300
F1509550998.919
ag3295
aF0.0
aa(lp3301
F1510295530.988
ag3291
aF1.0
aasbsI258
(imyfunction
mondai
p3302
(dp3303
g3
S'2017-11-10 15:37:17'
p3304
sg5
F9.970588812842003e-07
sg6
S'258.jpg'
p3305
sg8
(lp3306
(lp3307
S'2017-11-02 00:48:55'
p3308
aS'answer is 3'
p3309
aasg13
(lp3310
S'physical'
p3311
asg16
F0.9998189834458988
sg17
F1510295837.942
sg18
I1
sg19
(lp3312
(lp3313
F1509551335.875
ag3308
aF0.0
aa(lp3314
F1510295837.942
ag3304
aF1.0
aasbsI259
(imyfunction
mondai
p3315
(dp3316
g3
S'2017-11-10 15:39:29'
p3317
sg5
F9.972814864321028e-07
sg6
S'259.jpg'
p3318
sg8
(lp3319
(lp3320
S'2017-11-02 03:12:43'
p3321
aS'answer is 2'
p3322
aasg13
(lp3323
S'physical'
p3324
asg16
F0.9998002782189487
sg17
F1510295969.381
sg18
I1
sg19
(lp3325
(lp3326
F1509559963.615
ag3321
aF0.0
aa(lp3327
F1510295969.381
ag3317
aF1.0
aasbsI260
(imyfunction
mondai
p3328
(dp3329
g3
S'2017-11-10 15:41:41'
p3330
sg5
F9.9774911328339e-07
sg6
S'260.jpg'
p3331
sg8
(lp3332
(lp3333
S'2017-11-02 03:34:11'
p3334
aS'answer is 4'
p3335
aasg13
(lp3336
S'physical'
p3337
asg16
F0.9997975882908785
sg17
F1510296101.447
sg18
I1
sg19
(lp3338
(lp3339
F1509561251.582
ag3334
aF0.0
aa(lp3340
F1510296101.447
ag3330
aF1.0
aasbsI261
(imyfunction
mondai
p3341
(dp3342
g3
S'2017-11-10 15:44:28'
p3343
sg5
F9.948892504594002e-19
sg6
S'261.jpg'
p3344
sg8
(lp3345
(lp3346
S'2017-11-02 04:23:31'
p3347
aS'answer is 1'
p3348
aasg13
(lp3349
S'physical'
p3350
asg16
F-0.0002090603982067021
sg17
F1510296268.956
sg18
I1
sg19
(lp3351
(lp3352
F1509564211.488
ag3347
aF0.0
aa(lp3353
F1510296268.956
ag3343
aF0.0
aasbsI262
(imyfunction
mondai
p3354
(dp3355
g3
S'2017-11-10 15:45:58'
p3356
sg5
F9.986358520675872e-07
sg6
S'262.jpg'
p3357
sg8
(lp3358
(lp3359
S'2017-11-02 04:26:05'
p3360
aS'answer is 6'
p3361
aasg13
(lp3362
S'chemistry'
p3363
asg16
F0.9997907832683026
sg17
F1510296358.423
sg18
I1
sg19
(lp3364
(lp3365
F1509564365.54
ag3360
aF0.0
aa(lp3366
F1510296358.423
ag3356
aF1.0
aasbsI263
(imyfunction
mondai
p3367
(dp3368
g3
S'2017-11-10 16:50:44'
p3369
sg5
F1.002463956988876e-06
sg6
S'263.jpg'
p3370
sg8
(lp3371
(lp3372
S'2017-11-03 17:43:00'
p3373
aS'answer is 2'
p3374
aasg13
(lp3375
S'physical'
p3376
asg16
F0.999054415532912
sg17
F1510300244.494
sg18
I1
sg19
(lp3377
(lp3378
F1509698580.18
ag3373
aF0.0
aa(lp3379
F1510300244.494
ag3369
aF1.0
aasbsI264
(imyfunction
mondai
p3380
(dp3381
g3
S'2017-11-10 17:11:33'
p3382
sg5
F1.0073592065615396e-06
sg6
S'264.jpg'
p3383
sg8
(lp3384
(lp3385
S'2017-11-03 17:59:10'
p3386
aS'answer is 3'
p3387
aasg13
(lp3388
S'physical'
p3389
asg16
F0.9990574681706845
sg17
F1510301493.842
sg18
I1
sg19
(lp3390
(lp3391
F1509699550.151
ag3386
aF0.0
aa(lp3392
F1510301493.842
ag3382
aF1.0
aasbsI265
(imyfunction
mondai
p3393
(dp3394
g3
S'2017-11-10 17:42:31'
p3395
sg5
F1.0452167454990198e-18
sg6
S'265.jpg'
p3396
sg8
(lp3397
(lp3398
S'2017-11-03 18:06:16'
p3399
aS'answer is 1'
p3400
aasg13
(lp3401
S'physical'
p3402
asg16
F-0.0009270465887503642
sg17
F1510303351.517
sg18
I1
sg19
(lp3403
(lp3404
F1509699976.535
ag3399
aF0.0
aa(lp3405
F1510303351.517
ag3395
aF0.0
aasbsI266
(imyfunction
mondai
p3406
(dp3407
g3
S'2017-11-10 17:42:59'
p3408
sg5
F1.0147431661641583e-06
sg6
S'266.jpg'
p3409
sg8
(lp3410
(lp3411
S'2017-11-03 18:28:39'
p3412
aS'answer is 3'
p3413
aasg13
(lp3414
S'physical'
p3415
asg16
F0.9990587439788927
sg17
F1510303379.885
sg18
I1
sg19
(lp3416
(lp3417
F1509701319.164
ag3412
aF0.0
aa(lp3418
F1510303379.885
ag3408
aF1.0
aasbsI267
(imyfunction
mondai
p3419
(dp3420
g3
S'2017-11-10 17:44:25'
p3421
sg5
F1.0141562695398146e-06
sg6
S'267.jpg'
p3422
sg8
(lp3423
(lp3424
S'2017-11-03 19:59:11'
p3425
aS'answer is 2'
p3426
aasg13
(lp3427
S'physical'
p3428
asg16
F0.9989986576518923
sg17
F1510303465.977
sg18
I1
sg19
(lp3429
(lp3430
F1509706751.822
ag3425
aF0.0
aa(lp3431
F1510303465.977
ag3421
aF1.0
aasbsI268
(imyfunction
mondai
p3432
(dp3433
g3
S'2017-11-10 17:46:14'
p3434
sg5
F1.0140661757176086e-06
sg6
S'268.jpg'
p3435
sg8
(lp3436
(lp3437
S'2017-11-03 20:48:23'
p3438
aS'answer is 1'
p3439
aasg13
(lp3440
S'physical'
p3441
asg16
F0.9989651548929811
sg17
F1510303574.498
sg18
I1
sg19
(lp3442
(lp3443
F1509709703.794
ag3438
aF0.0
aa(lp3444
F1510303574.498
ag3434
aF1.0
aasbsI269
(imyfunction
mondai
p3445
(dp3446
g3
S'2017-11-10 17:46:43'
p3447
sg5
F1.0140547165414612e-06
sg6
S'269.jpg'
p3448
sg8
(lp3449
(lp3450
S'2017-11-03 21:00:05'
p3451
aS'answer is 6'
p3452
aasg13
(lp3453
S'chemistry'
p3454
asg16
F0.9989570689214796
sg17
F1510303603.315
sg18
I1
sg19
(lp3455
(lp3456
F1509710405.091
ag3451
aF0.0
aa(lp3457
F1510303603.315
ag3447
aF1.0
aasbsI270
(imyfunction
mondai
p3458
(dp3459
g3
S'2017-11-10 17:49:38'
p3460
sg5
F1.009175363328857e-06
sg6
S'270.jpg'
p3461
sg8
(lp3462
(lp3463
S'2017-11-04 04:12:37'
p3464
aS'answer is 5'
p3465
aasg13
(lp3466
S'physical'
p3467
asg16
F0.9985945027771272
sg17
F1510303778.053
sg18
I1
sg19
(lp3468
(lp3469
F1509736357.791
ag3464
aF0.0
aa(lp3470
F1510303778.053
ag3460
aF1.0
aasbsI271
(imyfunction
mondai
p3471
(dp3472
g3
S'2017-11-10 17:51:26'
p3473
sg5
F1.0096037194443963e-06
sg6
S'271.jpg'
p3474
sg8
(lp3475
(lp3476
S'2017-11-04 04:14:00'
p3477
aS'answer is 2'
p3478
aasg13
(lp3479
S'physical'
p3480
asg16
F0.9985949191427967
sg17
F1510303886.246
sg18
I1
sg19
(lp3481
(lp3482
F1509736440.385
ag3477
aF0.0
aa(lp3483
F1510303886.246
ag3473
aF1.0
aasbsI272
(imyfunction
mondai
p3484
(dp3485
g3
S'2017-11-10 20:53:17'
p3486
sg5
F1.0553073055485667e-06
sg6
S'272.jpg'
p3487
sg8
(lp3488
(lp3489
S'2017-11-04 04:44:56'
p3490
aS'answer is 6'
p3491
aasg13
(lp3492
S'physical'
p3493
asg16
F0.9987347205893878
sg17
F1510314797.347
sg18
I1
sg19
(lp3494
(lp3495
F1509738296.604
ag3490
aF0.0
aa(lp3496
F1510314797.347
ag3486
aF1.0
aasbsI273
(imyfunction
mondai
p3497
(dp3498
g3
S'2017-11-10 20:54:41'
p3499
sg5
F1.05563315604871e-06
sg6
S'273.jpg'
p3500
sg8
(lp3501
(lp3502
S'2017-11-04 04:47:26'
p3503
aS'answer is 4'
p3504
aasg13
(lp3505
S'physical'
p3506
asg16
F0.9987337557830038
sg17
F1510314881.033
sg18
I1
sg19
(lp3507
(lp3508
F1509738446.147
ag3503
aF0.0
aa(lp3509
F1510314881.033
ag3499
aF1.0
aasbsI274
(imyfunction
mondai
p3510
(dp3511
g3
S'2017-11-10 20:55:11'
p3512
sg5
F1.0556466614131038e-06
sg6
S'274.jpg'
p3513
sg8
(lp3514
(lp3515
S'2017-11-04 04:55:51'
p3516
aS'answer is 6'
p3517
aasg13
(lp3518
S'chemistry'
p3519
asg16
F0.9987267787956684
sg17
F1510314911.647
sg18
I1
sg19
(lp3520
(lp3521
F1509738951.517
ag3516
aF0.0
aa(lp3522
F1510314911.647
ag3512
aF1.0
aasbsI275
(imyfunction
mondai
p3523
(dp3524
g3
S'2017-11-10 20:56:12'
p3525
sg5
F1.0558207449929032e-06
sg6
S'275.jpg'
p3526
sg8
(lp3527
(lp3528
S'2017-11-04 05:02:08'
p3529
aS'answer is 1'
p3530
aasg13
(lp3531
S'chemistry'
p3532
asg16
F0.998722107280202
sg17
F1510314972.608
sg18
I1
sg19
(lp3533
(lp3534
F1509739328.904
ag3529
aF0.0
aa(lp3535
F1510314972.608
ag3525
aF1.0
aasbsI276
(imyfunction
mondai
p3536
(dp3537
g3
S'2017-11-08 02:12:02'
p3538
sg5
F4.836497981359976e-13
sg6
S'276.jpg'
p3539
sg8
(lp3540
sg13
(lp3541
S'math'
p3542
asg16
F0.4
sg17
F1510074722.657
sg18
I5
sg19
(lp3543
(lp3544
F1510074722.657
ag3538
aF0.4
aasbsI277
(imyfunction
mondai
p3545
(dp3546
g3
S'2017-11-08 19:02:05'
p3547
sg5
F1.5592635560041281e-19
sg6
S'277.jpg'
p3548
sg8
(lp3549
(lp3550
g3547
aS'answer is 6'
p3551
aasg13
(lp3552
S'chemistry'
p3553
asg16
F0.0
sg17
F1510135325.889
sg18
I1
sg19
(lp3554
(lp3555
F1510135325.889
ag3547
aF0.0
aasbsI278
(imyfunction
mondai
p3556
(dp3557
g3
S'2017-11-09 22:23:29'
p3558
sg5
F4.874767350381453e-19
sg6
S'278.jpg'
p3559
sg8
(lp3560
sg13
(lp3561
S'chemistry'
p3562
asg16
F0.0
sg17
F1510233809.685
sg18
I1
sg19
(lp3563
(lp3564
F1510233809.685
ag3558
aF0.0
aasbsI279
(imyfunction
mondai
p3565
(dp3566
g3
S'2017-11-09 22:26:02'
p3567
sg5
F4.883423054999531e-19
sg6
S'279.jpg'
p3568
sg8
(lp3569
sg13
(lp3570
S'chemistry'
p3571
asg16
F0.0
sg17
F1510233962.962
sg18
I1
sg19
(lp3572
(lp3573
F1510233962.962
ag3567
aF0.0
aasbsI280
(imyfunction
mondai
p3574
(dp3575
g3
S'2017-11-09 22:29:36'
p3576
sg5
F4.895505741611496e-19
sg6
S'280.jpg'
p3577
sg8
(lp3578
sg13
(lp3579
S'chemistry'
p3580
asg16
F0.0
sg17
F1510234176.471
sg18
I1
sg19
(lp3581
(lp3582
F1510234176.471
ag3576
aF0.0
aasbsI281
(imyfunction
mondai
p3583
(dp3584
g3
S'2017-11-09 22:32:03'
p3585
sg5
F4.903828879329379e-19
sg6
S'281.jpg'
p3586
sg8
(lp3587
sg13
(lp3588
S'chemistry'
p3589
asg16
F0.0
sg17
F1510234323.24
sg18
I1
sg19
(lp3590
(lp3591
F1510234323.24
ag3585
aF0.0
aasbsI282
(imyfunction
mondai
p3592
(dp3593
g3
S'2017-11-09 22:34:44'
p3594
sg5
F2.688402701062188e-11
sg6
S'282.jpg'
p3595
sg8
(lp3596
sg13
(lp3597
S'chemistry'
p3598
asg16
F0.5
sg17
F1510234484.742
sg18
I1
sg19
(lp3599
(lp3600
F1510234484.742
ag3594
aF0.5
aasbsI283
(imyfunction
mondai
p3601
(dp3602
g3
S'2017-11-09 22:46:35'
p3603
sg5
F4.953585811013694e-19
sg6
S'283.jpg'
p3604
sg8
(lp3605
sg13
(lp3606
S'chemistry'
p3607
asg16
F0.0
sg17
F1510235195.484
sg18
I1
sg19
(lp3608
(lp3609
F1510235195.484
ag3603
aF0.0
aasbsI284
(imyfunction
mondai
p3610
(dp3611
g3
S'2017-11-09 22:48:38'
p3612
sg5
F4.960633798708784e-19
sg6
S'284.jpg'
p3613
sg8
(lp3614
sg13
(lp3615
S'chemistry'
p3616
asg16
F0.0
sg17
F1510235318.327
sg18
I1
sg19
(lp3617
(lp3618
F1510235318.327
ag3612
aF0.0
aasbsI285
(imyfunction
mondai
p3619
(dp3620
g3
S'2017-11-09 23:34:04'
p3621
sg5
F5.119653767266794e-19
sg6
S'285.jpg'
p3622
sg8
(lp3623
sg13
(lp3624
S'chemistry'
p3625
asg16
F0.0
sg17
F1510238044.532
sg18
I1
sg19
(lp3626
(lp3627
F1510238044.532
ag3621
aF0.0
aasbsI286
(imyfunction
mondai
p3628
(dp3629
g3
S'2017-11-09 23:48:11'
p3630
sg5
F5.170081163108679e-19
sg6
S'286.jpg'
p3631
sg8
(lp3632
sg13
(lp3633
S'chemistry'
p3634
asg16
F0.0
sg17
F1510238891.388
sg18
I1
sg19
(lp3635
(lp3636
F1510238891.388
ag3630
aF0.0
aasbsI287
(imyfunction
mondai
p3637
(dp3638
g3
S'2017-11-10 00:05:38'
p3639
sg5
F2.7881892422404832e-11
sg6
S'287.jpg'
p3640
sg8
(lp3641
sg13
(lp3642
S'chemistry'
p3643
asg16
F0.5
sg17
F1510239938.728
sg18
I1
sg19
(lp3644
(lp3645
F1510239938.728
ag3639
aF0.5
aasbsI288
(imyfunction
mondai
p3646
(dp3647
g3
S'2017-11-10 00:12:53'
p3648
sg5
F5.259503790368096e-19
sg6
S'288.jpg'
p3649
sg8
(lp3650
sg13
(lp3651
S'chemistry'
p3652
asg16
F0.0
sg17
F1510240373.001
sg18
I1
sg19
(lp3653
(lp3654
F1510240373.001
ag3648
aF0.0
aasbsI289
(imyfunction
mondai
p3655
(dp3656
g3
S'2017-12-04 00:59:47'
p3657
sg5
F0.030793471966266927
sg6
S'289.jpg'
p3658
sg8
(lp3659
(lp3660
S'2017-11-22 16:48:37'
p3661
aS'H28'
p3662
aasg13
(lp3663
S'math'
p3664
aS'TIT'
p3665
asg16
F1.49856670542629
sg17
F1512316787.298
sg18
I2
sg19
(lp3666
(lp3667
F1511336917.388
ag3661
aF0.5
aa(lp3668
F1512316787.298
ag3657
aF1.0
aasbsI290
(imyfunction
mondai
p3669
(dp3670
g3
S'2017-11-22 16:49:37'
p3671
sg5
F5.550891275767271e-05
sg6
S'290.jpg'
p3672
sg8
(lp3673
(lp3674
g3671
aS'H28'
p3675
aasg13
(lp3676
g3664
aS'TIT'
p3677
asg16
F1.0
sg17
F1511336977.284
sg18
I2
sg19
(lp3678
(lp3679
F1511336977.284
ag3671
aF1.0
aasbsI291
(imyfunction
mondai
p3680
(dp3681
g3
S'2017-11-29 05:39:29'
p3682
sg5
F0.0021269754394148146
sg6
S'291.jpg'
p3683
sg8
(lp3684
(lp3685
S'2017-11-22 16:51:12'
p3686
aS'H28'
p3687
aasg13
(lp3688
g3664
aS'TIT'
p3689
asg16
F1.1947247842731283
sg17
F1511901569.457
sg18
I3
sg19
(lp3690
(lp3691
F1511337072.505
ag3686
aF0.2
aa(lp3692
F1511901569.457
ag3682
aF1.0
aasbsI292
(imyfunction
mondai
p3693
(dp3694
g3
S'2017-12-04 01:02:45'
p3695
sg5
F0.03080563926978311
sg6
S'292.jpg'
p3696
sg8
(lp3697
(lp3698
S'2017-11-22 16:52:32'
p3699
aS'H27'
p3700
aasg13
(lp3701
g3664
aS'TIT'
p3702
asg16
F1.4985661579659637
sg17
F1512316965.313
sg18
I1
sg19
(lp3703
(lp3704
F1511337152.552
ag3699
aF0.5
aa(lp3705
F1512316965.313
ag3695
aF1.0
aasbsI293
(imyfunction
mondai
p3706
(dp3707
g3
S'2017-12-04 01:08:20'
p3708
sg5
F0.03082743281670306
sg6
S'293.jpg'
p3709
sg8
(lp3710
(lp3711
S'2017-11-22 17:16:35'
p3712
aS'H27'
p3713
aasg13
(lp3714
g3664
aS'TIT'
p3715
asg16
F1.4985555066542422
sg17
F1512317300.56
sg18
I2
sg19
(lp3716
(lp3717
F1511338595.361
ag3712
aF0.5
aa(lp3718
F1512317300.56
ag3708
aF1.0
aasbsI294
(imyfunction
mondai
p3719
(dp3720
g3
S'2017-11-22 18:13:10'
p3721
sg5
F5.6592884756865525e-05
sg6
S'294.jpg'
p3722
sg8
(lp3723
(lp3724
g3721
aS'H27'
p3725
aasg13
(lp3726
S'math'
p3727
aS'TIT'
p3728
asg16
F1.0
sg17
F1511341990.126
sg18
I1
sg19
(lp3729
(lp3730
F1511341990.126
ag3721
aF1.0
aasbsI295
(imyfunction
mondai
p3731
(dp3732
g3
S'2017-12-03 21:23:03'
p3733
sg5
F0.0005179059212767321
sg6
S'295.jpg'
p3734
sg8
(lp3735
(lp3736
S'2017-11-23 16:18:57'
p3737
aS'H26'
p3738
aasg13
(lp3739
g3727
aS'TIT'
p3740
asg16
F0.7993536192255364
sg17
F1512303783.637
sg18
I3
sg19
(lp3741
(lp3742
F1511421537.045
ag3737
aF0.3
aa(lp3743
F1512303783.637
ag3733
aF0.5
aasbsI296
(imyfunction
mondai
p3744
(dp3745
g3
S'2017-11-23 16:24:45'
p3746
sg5
F7.702433349129164e-05
sg6
S'296.jpg'
p3747
sg8
(lp3748
(lp3749
g3746
aS'H26'
p3750
aasg13
(lp3751
g3727
aS'TIT'
p3752
asg16
F1.0
sg17
F1511421885.448
sg18
I1
sg19
(lp3753
(lp3754
F1511421885.448
ag3746
aF1.0
aasbsI297
(imyfunction
mondai
p3755
(dp3756
g3
S'2017-12-13 07:50:09'
p3757
sg5
F0.22026318376378337
sg6
S'297.jpg'
p3758
sg8
(lp3759
(lp3760
S'2017-11-23 16:55:28'
p3761
aS'H26'
p3762
aasg13
(lp3763
g3727
aS'TIT'
p3764
asg16
F1.5997105775688765
sg17
F1513119009.295
sg18
I3
sg19
(lp3765
(lp3766
F1511423728.335
ag3761
aF0.8
aa(lp3767
F1513119009.295
ag3757
aF0.8
aasbsI298
(imyfunction
mondai
p3768
(dp3769
g3
S'2017-12-11 05:25:36'
p3770
sg5
F0.010922796137750808
sg6
S'298.jpg'
p3771
sg8
(lp3772
(lp3773
S'2017-11-24 02:49:42'
p3774
aS'H25'
p3775
aasg13
(lp3776
g3727
aS'TIT'
p3777
asg16
F0.7995138008013438
sg17
F1512937536.559
sg18
I1
sg19
(lp3778
(lp3779
F1511459382.079
ag3774
aF0.0
aa(lp3780
F1512137182.433
aS'2017-12-01 23:06:22'
p3781
aF0.0
aa(lp3782
F1512937536.559
ag3770
aF0.8
aasbsI299
(imyfunction
mondai
p3783
(dp3784
g3
S'2017-12-11 05:36:01'
p3785
sg5
F0.01095575168192349
sg6
S'299.jpg'
p3786
sg8
(lp3787
(lp3788
S'2017-11-24 03:04:09'
p3789
aS'H25'
p3790
aasg13
(lp3791
g3727
aS'TIT'
p3792
asg16
F0.7995151458689946
sg17
F1512938161.669
sg18
I1
sg19
(lp3793
(lp3794
F1511460249.157
ag3789
aF0.0
aa(lp3795
F1512138520.642
aS'2017-12-01 23:28:40'
p3796
aF0.0
aa(lp3797
F1512938161.669
ag3785
aF0.8
aasbsI300
(imyfunction
mondai
p3798
(dp3799
g3
S'2017-12-14 17:33:55'
p3800
sg5
F0.3203891318467058
sg6
S'300.jpg'
p3801
sg8
(lp3802
(lp3803
S'2017-11-24 03:28:43'
p3804
aS'H25'
p3805
aasg13
(lp3806
g3727
aS'TIT'
p3807
asg16
F1.699806183597893
sg17
F1513240435.734
sg18
I3
sg19
(lp3808
(lp3809
F1511461723.454
ag3804
aF0.8
aa(lp3810
F1513240435.734
ag3800
aF0.9
aasbsI301
(imyfunction
mondai
p3811
(dp3812
g3
S'2017-11-24 04:20:05'
p3813
sg5
F9.089527673061973e-05
sg6
S'301.jpg'
p3814
sg8
(lp3815
(lp3816
g3813
aS'H24'
p3817
aasg13
(lp3818
g3727
aS'TIT'
p3819
asg16
F1.0
sg17
F1511464805.507
sg18
I2
sg19
(lp3820
(lp3821
F1511464805.507
ag3813
aF1.0
aasbsI302
(imyfunction
mondai
p3822
(dp3823
g3
S'2017-12-14 17:47:53'
p3824
sg5
F0.36115140324036604
sg6
S'302.jpg'
p3825
sg8
(lp3826
(lp3827
S'2017-11-24 04:30:24'
p3828
aS'H24'
p3829
aasg13
(lp3830
g3727
aS'TIT'
p3831
asg16
F1.7998034978128366
sg17
F1513241273.201
sg18
I1
sg19
(lp3832
(lp3833
F1511465424.437
ag3828
aF0.8
aa(lp3834
F1513241273.201
ag3824
aF1.0
aasbsI303
(imyfunction
mondai
p3835
(dp3836
g3
S'2017-12-04 01:46:55'
p3837
sg5
F0.0024054175979035812
sg6
S'303.jpg'
p3838
sg8
(lp3839
(lp3840
S'2017-11-24 04:48:05'
p3841
aS'H23'
p3842
aasg13
(lp3843
g3727
aS'TIT'
p3844
asg16
F0.9966569143204724
sg17
F1512319615.219
sg18
I2
sg19
(lp3845
(lp3846
F1511466485.983
ag3841
aF0.5
aa(lp3847
F1512319615.219
ag3837
aF0.5
aasbsI304
(imyfunction
mondai
p3848
(dp3849
g3
S'2017-12-04 05:52:58'
p3850
sg5
F0.061596368123877934
sg6
S'304.jpg'
p3851
sg8
(lp3852
(lp3853
S'2017-11-24 05:02:25'
p3854
aS'H23'
p3855
aasg13
(lp3856
g3727
aS'TIT'
p3857
asg16
F1.6904470041859563
sg17
F1512334378.481
sg18
I3
sg19
(lp3858
(lp3859
F1511467345.402
ag3854
aF0.7
aa(lp3860
F1512334378.481
ag3850
aF1.0
aasbsI305
(imyfunction
mondai
p3861
(dp3862
g3
S'2017-11-24 07:08:25'
p3863
sg5
F9.450695450872806e-05
sg6
S'305.jpg'
p3864
sg8
(lp3865
(lp3866
g3863
aS'H23'
p3867
aasg13
(lp3868
g3727
aS'TIT'
p3869
asg16
F1.0
sg17
F1511474905.335
sg18
I2
sg19
(lp3870
(lp3871
F1511474905.335
ag3863
aF1.0
aasbsI306
(imyfunction
mondai
p3872
(dp3873
g3
S'2017-11-24 07:30:11'
p3874
sg5
F3.240147568292777e-05
sg6
S'306.jpg'
p3875
sg8
(lp3876
(lp3877
g3874
aS'H22'
p3878
aasg13
(lp3879
g3727
aS'TIT'
p3880
asg16
F0.9
sg17
F1511476211.662
sg18
I2
sg19
(lp3881
(lp3882
F1511476211.662
ag3874
aF0.9
aasbsI307
(imyfunction
mondai
p3883
(dp3884
g3
S'2017-11-24 07:59:15'
p3885
sg5
F9.562563126727221e-05
sg6
S'307.jpg'
p3886
sg8
(lp3887
(lp3888
g3885
aS'H22'
p3889
aasg13
(lp3890
g3727
aS'TIT'
p3891
asg16
F1.0
sg17
F1511477955.463
sg18
I3
sg19
(lp3892
(lp3893
F1511477955.463
ag3885
aF1.0
aasbsI308
(imyfunction
mondai
p3894
(dp3895
g3
S'2017-12-04 06:06:38'
p3896
sg5
F0.0024428405648129338
sg6
S'308.jpg'
p3897
sg8
(lp3898
(lp3899
S'2017-11-24 08:28:46'
p3900
aS'H22'
p3901
aasg13
(lp3902
g3727
aS'TIT'
p3903
asg16
F0.9898357856440436
sg17
F1512335198.413
sg18
I2
sg19
(lp3904
(lp3905
F1511479726.958
ag3900
aF0.7
aa(lp3906
F1512335198.413
ag3896
aF0.3
aasbsI309
(imyfunction
mondai
p3907
(dp3908
g3
S'2017-11-25 01:24:06'
p3909
sg5
F0.00012179090177498486
sg6
S'309.jpg'
p3910
sg8
(lp3911
(lp3912
g3909
aS'H21'
p3913
aasg13
(lp3914
S'math'
p3915
aS'TIT'
p3916
asg16
F1.0
sg17
F1511540646.809
sg18
I1
sg19
(lp3917
(lp3918
F1511540646.809
ag3909
aF1.0
aasbsI310
(imyfunction
mondai
p3919
(dp3920
g3
S'2017-12-11 05:41:38'
p3921
sg5
F0.0018772625253583588
sg6
S'310.jpg'
p3922
sg8
(lp3923
(lp3924
S'2017-11-25 01:34:35'
p3925
aS'H21'
p3926
aasg13
(lp3927
g3915
aS'TIT'
p3928
asg16
F0.4989159902339432
sg17
F1512938498.963
sg18
I1
sg19
(lp3929
(lp3930
F1511541275.758
ag3925
aF0.0
aa(lp3931
F1512139049.754
aS'2017-12-01 23:37:29'
p3932
aF0.0
aa(lp3933
F1512938498.963
ag3921
aF0.5
aasbsI311
(imyfunction
mondai
p3934
(dp3935
g3
S'2017-12-14 15:37:21'
p3936
sg5
F0.1360244443466282
sg6
S'311.jpg'
p3937
sg8
(lp3938
(lp3939
S'2017-11-25 02:04:41'
p3940
aS'H21'
p3941
aasg13
(lp3942
g3915
aS'TIT'
p3943
asg16
F1.1989835218904805
sg17
F1513233441.61
sg18
I2
sg19
(lp3944
(lp3945
F1511543081.326
ag3940
aF0.2
aa(lp3946
F1512305665.885
aS'2017-12-03 21:54:25'
p3947
aF0.0
aa(lp3948
F1513233441.61
ag3936
aF1.0
aasbsI312
(imyfunction
mondai
p3949
(dp3950
g3
S'2017-12-04 02:07:17'
p3951
sg5
F0.030581193362198788
sg6
S'312.jpg'
p3952
sg8
(lp3953
(lp3954
S'2017-11-25 02:38:10'
p3955
aS'H20'
p3956
aasg13
(lp3957
g3915
aS'TIT'
p3958
asg16
F1.4943931691089443
sg17
F1512320837.533
sg18
I2
sg19
(lp3959
(lp3960
F1511545090.609
ag3955
aF0.5
aa(lp3961
F1512320837.533
ag3951
aF1.0
aasbsI313
(imyfunction
mondai
p3962
(dp3963
g3
S'2017-11-25 15:34:54'
p3964
sg5
F0.0001483016138276257
sg6
S'313.jpg'
p3965
sg8
(lp3966
(lp3967
g3964
aS'H20'
p3968
aasg13
(lp3969
g3915
aS'TIT'
p3970
asg16
F1.0
sg17
F1511591694.299
sg18
I3
sg19
(lp3971
(lp3972
F1511591694.299
ag3964
aF1.0
aasbsI314
(imyfunction
mondai
p3973
(dp3974
g3
S'2017-12-03 20:52:54'
p3975
sg5
F0.002293203860778075
sg6
S'314.jpg'
p3976
sg8
(lp3977
(lp3978
S'2017-11-25 15:55:36'
p3979
aS'H19'
p3980
aasg13
(lp3981
g3915
aS'TIT'
p3982
asg16
F0.9997271134638284
sg17
F1512301974.586
sg18
I2
sg19
(lp3983
(lp3984
F1511592936.917
ag3979
aF0.0
aa(lp3985
F1512301974.586
ag3975
aF1.0
aasbsI315
(imyfunction
mondai
p3986
(dp3987
g3
S'2017-12-22 00:39:43'
p3988
sg5
F0.9711633304503733
sg6
S'315.jpg'
p3989
sg8
(lp3990
(lp3991
S'2017-11-25 20:43:44'
p3992
aS'H19'
p3993
aasg13
(lp3994
g3915
aS'TIT'
p3995
asg16
F0.7996660339924034
sg17
F1513870783.479
sg18
I2
sg19
(lp3996
(lp3997
F1511610224.178
ag3992
aF0.0
aa(lp3998
F1512302362.517
aS'2017-12-03 20:59:22'
p3999
aF0.3
aa(lp4000
F1513870783.479
ag3988
aF0.5
aasbsI316
(imyfunction
mondai
p4001
(dp4002
g3
S'2017-11-25 21:01:19'
p4003
sg5
F0.00015994174129774653
sg6
S'316.jpg'
p4004
sg8
(lp4005
(lp4006
g4003
aS'H19'
p4007
aasg13
(lp4008
g3915
aS'TIT'
p4009
asg16
F1.0
sg17
F1511611279.84
sg18
I2
sg19
(lp4010
(lp4011
F1511611279.84
ag4003
aF1.0
aasbsI317
(imyfunction
mondai
p4012
(dp4013
g3
S'2017-12-12 03:24:13'
p4014
sg5
F4.711914866254434e-05
sg6
S'317.jpg'
p4015
sg8
(lp4016
(lp4017
S'2017-11-25 22:02:52'
p4018
aS'H18'
p4019
aasg13
(lp4020
g3915
aS'TIT'
p4021
asg16
F-0.0006056018923578938
sg17
F1513016653.425
sg18
I2
sg19
(lp4022
(lp4023
F1511614972.956
ag4018
aF0.0
aa(lp4024
F1512303278.177
aS'2017-12-03 21:14:38'
p4025
aF0.0
aa(lp4026
F1513016653.425
ag4014
aF0.0
aasbsI318
(imyfunction
mondai
p4027
(dp4028
g3
S'2017-12-04 05:43:18'
p4029
sg5
F0.0003671797838161807
sg6
S'318.jpg'
p4030
sg8
(lp4031
(lp4032
S'2017-11-26 00:15:14'
p4033
aS'H18'
p4034
aasg13
(lp4035
S'math'
p4036
aS'TIT'
p4037
asg16
F0.7413512267348432
sg17
F1512333798.453
sg18
I2
sg19
(lp4038
(lp4039
F1511622914.252
ag4033
aF0.5
aa(lp4040
F1512333798.453
ag4029
aF0.25
aasbsI319
(imyfunction
mondai
p4041
(dp4042
g3
S'2017-12-04 05:51:35'
p4043
sg5
F0.0012175470912133763
sg6
S'319.jpg'
p4044
sg8
(lp4045
(lp4046
S'2017-11-26 03:36:35'
p4047
aS'2016'
p4048
aasg13
(lp4049
g4036
aS'TIT'
p4050
asg16
F0.890655118162708
sg17
F1512334295.193
sg18
I2
sg19
(lp4051
(lp4052
F1511634995.531
ag4047
aF0.5
aa(lp4053
F1512334295.193
ag4043
aF0.4
aasbsI320
(imyfunction
mondai
p4054
(dp4055
g3
S'2017-12-13 07:38:32'
p4056
sg5
F0.11080401636266077
sg6
S'320.jpg'
p4057
sg8
(lp4058
(lp4059
S'2017-11-26 04:39:43'
p4060
aS'2016'
p4061
aasg13
(lp4062
g4036
aS'TIT'
p4063
asg16
F1.2597497281611347
sg17
F1513118312.441
sg18
I3
sg19
(lp4064
(lp4065
F1511638783.408
ag4060
aF0.66
aa(lp4066
F1513118312.441
ag4056
aF0.6
aasbsI321
(imyfunction
mondai
p4067
(dp4068
g3
S'2017-12-22 00:53:27'
p4069
sg5
F0.9720607326523978
sg6
S'321.jpg'
p4070
sg8
(lp4071
(lp4072
S'2017-11-26 05:23:15'
p4073
aS'2016'
p4074
aasg13
(lp4075
g4036
aS'TIT'
p4076
asg16
F0.696486279920753
sg17
F1513871607.216
sg18
I2
sg19
(lp4077
(lp4078
F1511641395.074
ag4073
aF0.3
aa(lp4079
F1512320337.386
aS'2017-12-04 01:58:57'
p4080
aF0.0
aa(lp4081
F1513871607.216
ag4069
aF0.4
aasbsI322
(imyfunction
mondai
p4082
(dp4083
g3
S'2017-12-04 17:19:12'
p4084
sg5
F0.03407452461718999
sg6
S'322.jpg'
p4085
sg8
(lp4086
(lp4087
S'2017-11-26 15:48:11'
p4088
aS'2016'
p4089
aasg13
(lp4090
g4036
aS'TIT'
p4091
asg16
F1.4904889453878711
sg17
F1512375552.978
sg18
I2
sg19
(lp4092
(lp4093
F1511678891.028
ag4088
aF0.5
aa(lp4094
F1512375552.978
ag4084
aF1.0
aasbsI323
(imyfunction
mondai
p4095
(dp4096
g3
S'2017-12-14 17:03:39'
p4097
sg5
F0.08457065935503079
sg6
S'323.jpg'
p4098
sg8
(lp4099
(lp4100
S'2017-11-26 16:27:28'
p4101
aS'2016'
p4102
aasg13
(lp4103
g4036
aS'TIT'
p4104
asg16
F0.9971270400660086
sg17
F1513238619.674
sg18
I2
sg19
(lp4105
(lp4106
F1511681248.355
ag4101
aF0.2
aa(lp4107
F1512318470.083
aS'2017-12-04 01:27:50'
p4108
aF0.0
aa(lp4109
F1513238619.674
ag4097
aF0.8
aasbsI324
(imyfunction
mondai
p4110
(dp4111
g3
S'2017-12-13 07:13:39'
p4112
sg5
F0.0034312062615393705
sg6
S'324.jpg'
p4113
sg8
(lp4114
(lp4115
S'2017-11-26 17:50:01'
p4116
aS'2016'
p4117
aasg13
(lp4118
g4036
aS'TIT'
p4119
asg16
F0.39900683964972167
sg17
F1513116819.337
sg18
I3
sg19
(lp4120
(lp4121
F1511686201.415
ag4116
aF0.0
aa(lp4122
F1512305224.643
aS'2017-12-03 21:47:04'
p4123
aF0.1
aa(lp4124
F1513116819.337
ag4112
aF0.3
aasbsI325
(imyfunction
mondai
p4125
(dp4126
g3
S'2017-12-11 05:58:19'
p4127
sg5
F0.026851304729124444
sg6
S'325.jpg'
p4128
sg8
(lp4129
(lp4130
S'2017-11-26 23:14:52'
p4131
aS'2015'
p4132
aasg13
(lp4133
g4036
aS'TIT'
p4134
asg16
F0.999737342443025
sg17
F1512939499.373
sg18
I2
sg19
(lp4135
(lp4136
F1511705692.768
ag4131
aF0.5
aa(lp4137
F1512939499.373
ag4127
aF0.5
aasbsI326
(imyfunction
mondai
p4138
(dp4139
g3
S'2017-12-14 17:16:35'
p4140
sg5
F0.028047027610570683
sg6
S'326.jpg'
p4141
sg8
(lp4142
(lp4143
S'2017-11-27 00:26:16'
p4144
aS'2015'
p4145
aasg13
(lp4146
g4036
aS'TIT'
p4147
asg16
F0.6598107808591679
sg17
F1513239395.398
sg18
I3
sg19
(lp4148
(lp4149
F1511709976.083
ag4144
aF0.66
aa(lp4150
F1513239395.398
ag4140
aF0.0
aasbsI327
(imyfunction
mondai
p4151
(dp4152
g3
S'2017-12-12 03:37:26'
p4153
sg5
F0.0031794684397437566
sg6
S'327.jpg'
p4154
sg8
(lp4155
(lp4156
S'2017-11-27 00:51:18'
p4157
aS'2015'
p4158
aasg13
(lp4159
g4036
aS'TIT'
p4160
asg16
F0.49871369718307434
sg17
F1513017446.207
sg18
I2
sg19
(lp4161
(lp4162
F1511711478.233
ag4157
aF0.0
aa(lp4163
F1512306421.861
aS'2017-12-03 22:07:01'
p4164
aF0.0
aa(lp4165
F1513017446.207
ag4153
aF0.5
aasbsI328
(imyfunction
mondai
p4166
(dp4167
g3
S'2017-11-27 01:06:21'
p4168
sg5
F0.00023624321868351766
sg6
S'328.jpg'
p4169
sg8
(lp4170
(lp4171
g4168
aS'2015'
p4172
aasg13
(lp4173
g4036
aS'TIT'
p4174
asg16
F1.0
sg17
F1511712381.378
sg18
I3
sg19
(lp4175
(lp4176
F1511712381.378
ag4168
aF1.0
aasbsI329
(imyfunction
mondai
p4177
(dp4178
g3
S'2017-12-04 02:04:04'
p4179
sg5
F0.007917156177715106
sg6
S'329.jpg'
p4180
sg8
(lp4181
(lp4182
S'2017-11-27 01:50:18'
p4183
aS'2014'
p4184
aasg13
(lp4185
g4036
aS'TIT'
p4186
asg16
F1.1964001374787998
sg17
F1512320644.273
sg18
I2
sg19
(lp4187
(lp4188
F1511715018.883
ag4183
aF0.2
aa(lp4189
F1512320644.273
ag4179
aF1.0
aasbsI330
(imyfunction
mondai
p4190
(dp4191
g3
S'2017-12-13 01:08:00'
p4192
sg5
F0.0014766240287092545
sg6
S'330.jpg'
p4193
sg8
(lp4194
(lp4195
S'2017-11-27 02:23:17'
p4196
aS'2014'
p4197
aasg13
(lp4198
g4036
aS'TIT'
p4199
asg16
F0.29881894673417475
sg17
F1513094880.311
sg18
I2
sg19
(lp4200
(lp4201
F1511716997.127
ag4196
aF0.0
aa(lp4202
F1512307853.981
aS'2017-12-03 22:30:53'
p4203
aF0.0
aa(lp4204
F1513094880.311
ag4192
aF0.3
aasbsI331
(imyfunction
mondai
p4205
(dp4206
g3
S'2017-11-27 03:16:31'
p4207
sg5
F0.00024346971011066052
sg6
S'331.jpg'
p4208
sg8
(lp4209
(lp4210
g4207
aS'2014'
p4211
aasg13
(lp4212
g4036
aS'TIT'
p4213
asg16
F1.0
sg17
F1511720191.25
sg18
I3
sg19
(lp4214
(lp4215
F1511720191.25
ag4207
aF1.0
aasbsI332
(imyfunction
mondai
p4216
(dp4217
g3
S'2017-12-15 00:36:02'
p4218
sg5
F0.21877989535212067
sg6
S'332.jpg'
p4219
sg8
(lp4220
(lp4221
S'2017-11-27 03:56:26'
p4222
aS'2014'
p4223
aasg13
(lp4224
g4036
aS'TIT'
p4225
asg16
F1.3997459143296709
sg17
F1513265762.859
sg18
I3
sg19
(lp4226
(lp4227
F1511722586.365
ag4222
aF0.7
aa(lp4228
F1513265762.859
ag4218
aF0.7
aasbsI333
(imyfunction
mondai
p4229
(dp4230
g3
S'2017-12-13 01:22:33'
p4231
sg5
F0.00011710382446532436
sg6
S'333.jpg'
p4232
sg8
(lp4233
(lp4234
S'2017-11-27 04:22:34'
p4235
aS'2013'
p4236
aasg13
(lp4237
g4036
aS'TIT'
p4238
asg16
F-0.0011821693886250567
sg17
F1513095753.003
sg18
I2
sg19
(lp4239
(lp4240
F1511724154.706
ag4235
aF0.0
aa(lp4241
F1512315663.599
aS'2017-12-04 00:41:03'
p4242
aF0.0
aa(lp4243
F1513095753.003
ag4231
aF0.0
aasbsI334
(imyfunction
mondai
p4244
(dp4245
g3
S'2017-12-13 02:23:59'
p4246
sg5
F0.0001222058300759403
sg6
S'334.jpg'
p4247
sg8
(lp4248
(lp4249
S'2017-11-27 04:48:51'
p4250
aS'2013'
p4251
aasg13
(lp4252
g4036
aS'TIT'
p4253
asg16
F-0.0011903136228494768
sg17
F1513099439.776
sg18
I1
sg19
(lp4254
(lp4255
F1511725731.46
ag4250
aF0.0
aa(lp4256
F1512316242.41
aS'2017-12-04 00:50:42'
p4257
aF0.0
aa(lp4258
F1513099439.776
ag4246
aF0.0
aasbsI335
(imyfunction
mondai
p4259
(dp4260
g3
S'2017-12-13 02:30:03'
p4261
sg5
F0.00012075834913393407
sg6
S'335.jpg'
p4262
sg8
(lp4263
(lp4264
S'2017-11-28 03:41:04'
p4265
aS'2013'
p4266
aasg13
(lp4267
g4036
aS'TIT'
p4268
asg16
F-0.002819253083681072
sg17
F1513099803.499
sg18
I1
sg19
(lp4269
(lp4270
F1511808064.039
ag4265
aF0.0
aa(lp4271
F1512318964.011
aS'2017-12-04 01:36:04'
p4272
aF0.0
aa(lp4273
F1513099803.499
ag4261
aF0.0
aasbsI336
(imyfunction
mondai
p4274
(dp4275
g3
S'2017-12-13 03:02:40'
p4276
sg5
F0.0001234805162932445
sg6
S'336.jpg'
p4277
sg8
(lp4278
(lp4279
S'2017-11-28 04:11:24'
p4280
aS'2013'
p4281
aasg13
(lp4282
g4036
aS'TIT'
p4283
asg16
F-0.002863043061285232
sg17
F1513101760.857
sg18
I3
sg19
(lp4284
(lp4285
F1511809884.693
ag4280
aF0.0
aa(lp4286
F1512319328.134
aS'2017-12-04 01:42:08'
p4287
aF0.0
aa(lp4288
F1513101760.857
ag4276
aF0.0
aasbsI337
(imyfunction
mondai
p4289
(dp4290
g3
S'2017-12-12 03:16:24'
p4291
sg5
F0.0031720907184704327
sg6
S'337.jpg'
p4292
sg8
(lp4293
(lp4294
S'2017-11-28 04:31:23'
p4295
aS'2012'
p4296
aasg13
(lp4297
g4036
aS'TIT'
p4298
asg16
F0.4996818013990187
sg17
F1513016184.131
sg18
I2
sg19
(lp4299
(lp4300
F1511811083.922
ag4295
aF0.5
aa(lp4301
F1513016184.131
ag4291
aF0.0
aasbsI338
(imyfunction
mondai
p4302
(dp4303
g3
S'2017-12-13 07:42:57'
p4304
sg5
F0.0535940821851019
sg6
S'338.jpg'
p4305
sg8
(lp4306
(lp4307
S'2017-11-28 23:11:38'
p4308
aS'2012'
p4309
aasg13
(lp4310
g4036
aS'TIT'
p4311
asg16
F0.9997484601021377
sg17
F1513118577.83
sg18
I2
sg19
(lp4312
(lp4313
F1511878298.972
ag4308
aF0.5
aa(lp4314
F1513118577.83
ag4304
aF0.5
aasbsI339
(imyfunction
mondai
p4315
(dp4316
g3
S'2017-12-04 02:19:20'
p4317
sg5
F2.857781266391691e-05
sg6
S'339.jpg'
p4318
sg8
(lp4319
(lp4320
S'2017-11-28 23:55:21'
p4321
aS'2012'
p4322
aasg13
(lp4323
g4036
aS'TIT'
p4324
asg16
F0.4939031879505604
sg17
F1512321560.494
sg18
I2
sg19
(lp4325
(lp4326
F1511880921.422
ag4321
aF0.0
aa(lp4327
F1512321560.494
ag4317
aF0.5
aasbsI340
(imyfunction
mondai
p4328
(dp4329
g3
S'2017-12-13 02:31:54'
p4330
sg5
F0.0014846435042029072
sg6
S'340.jpg'
p4331
sg8
(lp4332
(lp4333
S'2017-11-29 00:25:46'
p4334
aS'2012'
p4335
aasg13
(lp4336
g4036
aS'TIT'
p4337
asg16
F0.2936964489873427
sg17
F1513099914.867
sg18
I3
sg19
(lp4338
(lp4339
F1511882746.642
ag4334
aF0.0
aa(lp4340
F1512322106.22
aS'2017-12-04 02:28:26'
p4341
aF0.0
aa(lp4342
F1513099914.867
ag4330
aF0.3
aasbsI341
(imyfunction
mondai
p4343
(dp4344
g3
S'2017-12-13 07:19:53'
p4345
sg5
F0.0003580989879323207
sg6
S'341.jpg'
p4346
sg8
(lp4347
(lp4348
S'2017-11-29 01:15:24'
p4349
aS'2012'
p4350
aasg13
(lp4351
g4036
aS'TIT'
p4352
asg16
F0.09344385172626891
sg17
F1513117193.597
sg18
I1
sg19
(lp4353
(lp4354
F1511885724.749
ag4349
aF0.0
aa(lp4355
F1512323467.624
aS'2017-12-04 02:51:07'
p4356
aF0.1
aa(lp4357
F1513117193.597
ag4345
aF0.0
aasbsI342
(imyfunction
mondai
p4358
(dp4359
g3
S'2017-12-13 04:17:45'
p4360
sg5
F0.0001257478000586123
sg6
S'342.jpg'
p4361
sg8
(lp4362
(lp4363
S'2017-11-29 03:29:04'
p4364
aS'2011'
p4365
aasg13
(lp4366
g4036
aS'TIT'
p4367
asg16
F-0.006326493393716043
sg17
F1513106265.687
sg18
I2
sg19
(lp4368
(lp4369
F1511893744.833
ag4364
aF0.0
aa(lp4370
F1512332869.399
aS'2017-12-04 05:27:49'
p4371
aF0.0
aa(lp4372
F1513106265.687
ag4360
aF0.0
aasbsI343
(imyfunction
mondai
p4373
(dp4374
g3
S'2017-12-11 04:32:26'
p4375
sg5
F0.00636971129673097
sg6
S'343.jpg'
p4376
sg8
(lp4377
(lp4378
S'2017-11-29 04:10:41'
p4379
aS'2011'
p4380
aasg13
(lp4381
g4036
aS'TIT'
p4382
asg16
F0.6999352531122104
sg17
F1512934346.274
sg18
I1
sg19
(lp4383
(lp4384
F1511896241.119
ag4379
aF0.2
aa(lp4385
F1512934346.274
ag4375
aF0.5
aasbsI344
(imyfunction
mondai
p4386
(dp4387
g3
S'2017-12-04 06:10:45'
p4388
sg5
F0.002441219243371584
sg6
S'344.jpg'
p4389
sg8
(lp4390
(lp4391
S'2017-11-29 16:37:18'
p4392
aS'2011'
p4393
aasg13
(lp4394
S'math'
p4395
aS'TIT'
p4396
asg16
F0.9895891422908947
sg17
F1512335445.964
sg18
I2
sg19
(lp4397
(lp4398
F1511941038.085
ag4392
aF0.0
aa(lp4399
F1512335445.964
ag4388
aF1.0
aasbsI345
(imyfunction
mondai
p4400
(dp4401
g3
S'2017-12-14 18:02:47'
p4402
sg5
F0.002562852956848922
sg6
S'345.jpg'
p4403
sg8
(lp4404
(lp4405
S'2017-11-29 16:58:11'
p4406
aS'2011'
p4407
aasg13
(lp4408
g4395
aS'TIT'
p4409
asg16
F0.18931645494773805
sg17
F1513242167.237
sg18
I2
sg19
(lp4410
(lp4411
F1511942291.698
ag4406
aF0.0
aa(lp4412
F1512336100.789
aS'2017-12-04 06:21:40'
p4413
aF0.2
aa(lp4414
F1513242167.237
ag4402
aF0.0
aasbsI346
(imyfunction
mondai
p4415
(dp4416
g3
S'2017-12-11 06:24:21'
p4417
sg5
F0.0005310034055034633
sg6
S'346.jpg'
p4418
sg8
(lp4419
(lp4420
S'2017-11-30 00:37:40'
p4421
aS'2010'
p4422
aasg13
(lp4423
g4395
aS'TIT'
p4424
asg16
F0.3295993814338745
sg17
F1512941061.631
sg18
I3
sg19
(lp4425
(lp4426
F1511969860.069
ag4421
aF0.33
aa(lp4427
F1512941061.631
ag4417
aF0.0
aasbsI347
(imyfunction
mondai
p4428
(dp4429
g3
S'2017-12-13 07:03:37'
p4430
sg5
F0.000136735272035768
sg6
S'347.jpg'
p4431
sg8
(lp4432
(lp4433
S'2017-11-30 01:20:51'
p4434
aS'2010'
p4435
aasg13
(lp4436
g4395
aS'TIT'
p4437
asg16
F-0.009628566561082373
sg17
F1513116217.576
sg18
I3
sg19
(lp4438
(lp4439
F1511972451.743
ag4434
aF0.0
aa(lp4440
F1512375168.452
aS'2017-12-04 17:12:48'
p4441
aF0.0
aa(lp4442
F1513116217.576
ag4430
aF0.0
aasbsI348
(imyfunction
mondai
p4443
(dp4444
g3
S'2017-11-30 01:52:33'
p4445
sg5
F2.7346271375265574e-10
sg6
S'348.jpg'
p4446
sg8
(lp4447
(lp4448
g4445
aS'2017'
p4449
aasg13
(lp4450
S'math'
p4451
aS'YNU'
p4452
asg16
F0.0
sg17
F1511974353.976
sg18
I1
sg19
(lp4453
(lp4454
F1511974353.976
ag4445
aF0.0
aasbsI349
(imyfunction
mondai
p4455
(dp4456
g3
S'2017-12-09 18:19:43'
p4457
sg5
F0.0007437914574002878
sg6
S'349.jpg'
p4458
sg8
(lp4459
(lp4460
S'2017-12-01 20:52:26'
p4461
aS'2010'
p4462
aasg13
(lp4463
g4451
aS'TIT'
p4464
asg16
F0.4895125113885788
sg17
F1512811183.692
sg18
I2
sg19
(lp4465
(lp4466
F1512129146.691
ag4461
aF0.5
aa(lp4467
F1512811183.692
ag4457
aF0.0
aasbsI350
(imyfunction
mondai
p4468
(dp4469
g3
S'2017-12-11 03:42:19'
p4470
sg5
F0.012249869412045629
sg6
S'350.jpg'
p4471
sg8
(lp4472
(lp4473
S'2017-12-01 21:36:06'
p4474
aS'2010'
p4475
aasg13
(lp4476
g4451
aS'TIT'
p4477
asg16
F0.8289047743645552
sg17
F1512931339.016
sg18
I1
sg19
(lp4478
(lp4479
F1512131766.673
ag4474
aF0.0
aa(lp4480
F1512376255.234
aS'2017-12-04 17:30:55'
p4481
aF0.4
aa(lp4482
F1512931339.016
ag4470
aF0.5
aasbsI351
(imyfunction
mondai
p4483
(dp4484
g3
S'2017-12-09 18:32:26'
p4485
sg5
F0.000745563667196998
sg6
S'351.jpg'
p4486
sg8
(lp4487
(lp4488
S'2017-12-01 22:27:14'
p4489
aS'2010'
p4490
aasg13
(lp4491
g4451
aS'TIT'
p4492
asg16
F0.48916159005305765
sg17
F1512811946.388
sg18
I2
sg19
(lp4493
(lp4494
F1512134834.838
ag4489
aF0.5
aa(lp4495
F1512811946.388
ag4485
aF0.0
aasbsI352
(imyfunction
mondai
p4496
(dp4497
g3
S'2017-12-22 01:51:44'
p4498
sg5
F0.9894853143085647
sg6
S'352.jpg'
p4499
sg8
(lp4500
(lp4501
S'2017-12-01 22:47:11'
p4502
aS'2010'
p4503
aasg13
(lp4504
g4451
aS'TIT'
p4505
asg16
F0.5995441166292587
sg17
F1513875104.87
sg18
I3
sg19
(lp4506
(lp4507
F1512136031.436
ag4502
aF0.0
aa(lp4508
F1512803593.486
aS'2017-12-09 16:13:13'
p4509
aF0.1
aa(lp4510
F1513875104.87
ag4498
aF0.5
aasbsI353
(imyfunction
mondai
p4511
(dp4512
g3
S'2017-12-11 04:04:56'
p4513
sg5
F0.0490133784960448
sg6
S'353.jpg'
p4514
sg8
(lp4515
(lp4516
S'2017-12-04 23:32:47'
p4517
aS'2009'
p4518
aasg13
(lp4519
S'math'
p4520
aS'TIT'
p4521
asg16
F1.1719347139549505
sg17
F1512932696.98
sg18
I1
sg19
(lp4522
(lp4523
F1512397967.227
ag4517
aF0.5
aa(lp4524
F1512932696.98
ag4513
aF0.7
aasbsI354
(imyfunction
mondai
p4525
(dp4526
g3
S'2017-12-09 16:28:51'
p4527
sg5
F0.00012111315401231644
sg6
S'354.jpg'
p4528
sg8
(lp4529
(lp4530
S'2017-12-05 00:22:23'
p4531
aS'2009'
p4532
aasg13
(lp4533
g4520
aS'TIT'
p4534
asg16
F0.2906385822420258
sg17
F1512804531.67
sg18
I1
sg19
(lp4535
(lp4536
F1512400943.573
ag4531
aF0.0
aa(lp4537
F1512804531.67
ag4527
aF0.3
aasbsI355
(imyfunction
mondai
p4538
(dp4539
g3
S'2017-12-05 21:33:18'
p4540
sg5
F0.0008195498942750309
sg6
S'355.jpeg'
p4541
sg8
(lp4542
sg13
(lp4543
S'physical'
p4544
asg16
F0.75
sg17
F1512477198.263
sg18
I4
sg19
(lp4545
(lp4546
F1512477198.263
ag4540
aF0.75
aasbsI356
(imyfunction
mondai
p4547
(dp4548
g3
S'2017-12-06 17:41:46'
p4549
sg5
F0.0003541460745006272
sg6
S'356.jpg'
p4550
sg8
(lp4551
sg13
(lp4552
S'physical'
p4553
asg16
F0.6
sg17
F1512549706.768
sg18
I5
sg19
(lp4554
(lp4555
F1512549706.768
ag4549
aF0.6
aasbsI357
(imyfunction
mondai
p4556
(dp4557
g3
S'2017-12-06 18:36:44'
p4558
sg5
F0.0012043046028838396
sg6
S'357.jpg'
p4559
sg8
(lp4560
sg13
(lp4561
S'physical'
p4562
asg16
F0.75
sg17
F1512553004.545
sg18
I4
sg19
(lp4563
(lp4564
F1512553004.545
ag4558
aF0.75
aasbsI358
(imyfunction
mondai
p4565
(dp4566
g3
S'2017-12-06 22:33:25'
p4567
sg5
F0.0012943451801683077
sg6
S'358.jpeg'
p4568
sg8
(lp4569
sg13
(lp4570
S'physical'
p4571
asg16
F0.75
sg17
F1512567205.111
sg18
I4
sg19
(lp4572
(lp4573
F1512567205.111
ag4567
aF0.75
aasbsI359
(imyfunction
mondai
p4574
(dp4575
g3
S'2017-12-06 23:19:06'
p4576
sg5
F1.0195194714151125e-05
sg6
S'359.jpeg'
p4577
sg8
(lp4578
sg13
(lp4579
S'physical'
p4580
asg16
F0.25
sg17
F1512569946.793
sg18
I8
sg19
(lp4581
(lp4582
F1512569946.793
ag4576
aF0.25
aasbsI360
(imyfunction
mondai
p4583
(dp4584
g3
S'2017-12-07 22:53:11'
p4585
sg5
F2.1500374302462815e-05
sg6
S'360.jpeg'
p4586
sg8
(lp4587
sg13
(lp4588
S'physical'
p4589
asg16
F0.25
sg17
F1512654791.047
sg18
I4
sg19
(lp4590
(lp4591
F1512654791.047
ag4585
aF0.25
aasbsI361
(imyfunction
mondai
p4592
(dp4593
g3
S'2017-12-08 01:36:18'
p4594
sg5
F0.0004675980253864133
sg6
S'361.jpg'
p4595
sg8
(lp4596
sg13
(lp4597
S'physical'
p4598
asg16
F0.55
sg17
F1512664578.297
sg18
I7
sg19
(lp4599
(lp4600
F1512664578.297
ag4594
aF0.55
aasbsI362
(imyfunction
mondai
p4601
(dp4602
g3
S'2017-12-08 03:14:12'
p4603
sg5
F7.197794673509022e-06
sg6
S'362.jpeg'
p4604
sg8
(lp4605
sg13
(lp4606
S'physical'
p4607
asg16
F0.15
sg17
F1512670452.93
sg18
I6
sg19
(lp4608
(lp4609
F1512670452.93
ag4603
aF0.15
aasbsI363
(imyfunction
mondai
p4610
(dp4611
g3
S'2017-12-08 03:44:10'
p4612
sg5
F0.0003192229525175991
sg6
S'363.jpg'
p4613
sg8
(lp4614
sg13
(lp4615
S'physical'
p4616
asg16
F0.5
sg17
F1512672250.291
sg18
I4
sg19
(lp4617
(lp4618
F1512672250.291
ag4612
aF0.5
aasbsI364
(imyfunction
mondai
p4619
(dp4620
g3
S'2017-12-09 19:22:59'
p4621
sg5
F0.0003634554697387365
sg6
S'364.jpeg'
p4622
sg8
(lp4623
sg13
(lp4624
S'physical'
p4625
asg16
F0.4
sg17
F1512814979.822
sg18
I7
sg19
(lp4626
(lp4627
F1512814979.822
ag4621
aF0.4
aasbsI365
(imyfunction
mondai
p4628
(dp4629
g3
S'2017-12-09 22:38:13'
p4630
sg5
F0.0027770131590743397
sg6
S'365.jpeg'
p4631
sg8
(lp4632
sg13
(lp4633
S'physical'
p4634
asg16
F0.66
sg17
F1512826693.696
sg18
I6
sg19
(lp4635
(lp4636
F1512826693.696
ag4630
aF0.66
aasbsI366
(imyfunction
mondai
p4637
(dp4638
g3
S'2017-12-10 00:16:00'
p4639
sg5
F0.0004143778149091975
sg6
S'366.jpeg'
p4640
sg8
(lp4641
sg13
(lp4642
S'physical'
p4643
asg16
F0.4
sg17
F1512832560.504
sg18
I7
sg19
(lp4644
(lp4645
F1512832560.504
ag4639
aF0.4
aasbsI367
(imyfunction
mondai
p4646
(dp4647
g3
S'2017-12-10 02:07:57'
p4648
sg5
F0.00043566718309107517
sg6
S'367.jpeg'
p4649
sg8
(lp4650
sg13
(lp4651
S'physical'
p4652
asg16
F0.4
sg17
F1512839277.946
sg18
I5
sg19
(lp4653
(lp4654
F1512839277.946
ag4648
aF0.4
aasbsI368
(imyfunction
mondai
p4655
(dp4656
g3
S'2017-12-10 03:27:16'
p4657
sg5
F0.0002438622012288114
sg6
S'368.jpeg'
p4658
sg8
(lp4659
sg13
(lp4660
S'physical'
p4661
asg16
F0.33
sg17
F1512844036.68
sg18
I3
sg19
(lp4662
(lp4663
F1512844036.68
ag4657
aF0.33
aasbsI369
(imyfunction
mondai
p4664
(dp4665
g3
S'2017-12-13 01:37:32'
p4666
sg5
F0.005441839071336918
sg6
S'369.jpg'
p4667
sg8
(lp4668
(lp4669
g4666
aS'https://www.youtube.com/watch?v=0UdkePmNmRg&index=4&list=PLd3yb0oVJ_W27Xrw7Ydf3rzEGVgnLe_Of'
p4670
aasg13
(lp4671
S'math'
p4672
aS'YNU'
p4673
asg16
F0.5
sg17
F1513096652.786
sg18
I1
sg19
(lp4674
(lp4675
F1513096652.786
ag4666
aF0.5
aasbsI370
(imyfunction
mondai
p4676
(dp4677
g3
S'2017-12-13 03:48:26'
p4678
sg5
F0.000131121268217169
sg6
S'370.jpg'
p4679
sg8
(lp4680
sg13
(lp4681
S'physical'
p4682
asg16
F0.0
sg17
F1513104506.401
sg18
I10
sg19
(lp4683
(lp4684
F1513104506.401
ag4678
aF0.0
aasbsI371
(imyfunction
mondai
p4685
(dp4686
g3
S'2017-12-13 04:57:59'
p4687
sg5
F0.003249142266656644
sg6
S'371.jpeg'
p4688
sg8
(lp4689
sg13
(lp4690
S'physical'
p4691
asg16
F0.4
sg17
F1513108679.471
sg18
I7
sg19
(lp4692
(lp4693
F1513108679.471
ag4687
aF0.4
aasbsI372
(imyfunction
mondai
p4694
(dp4695
g3
S'2017-12-15 00:36:20'
p4696
sg5
F0.0008478620667030712
sg6
S'372.jpg'
p4697
sg8
(lp4698
(lp4699
g4696
aS'https://www.youtube.com/watch?v=cG1ClsIpFvs&index=10&t=42s&list=PLd3yb0oVJ_W27Xrw7Ydf3rzEGVgnLe_Of'
p4700
aasg13
(lp4701
g4672
aS'YNU'
p4702
asg16
F0.0
sg17
F1513265780.24
sg18
I1
sg19
(lp4703
(lp4704
F1513265780.24
ag4696
aF0.0
aasbsI373
(imyfunction
mondai
p4705
(dp4706
g3
S'2017-12-15 03:41:54'
p4707
sg5
F0.003794585036848229
sg6
S'373.jpeg'
p4708
sg8
(lp4709
sg13
(lp4710
S'physical'
p4711
asg16
F0.2
sg17
F1513276914.075
sg18
I5
sg19
(lp4712
(lp4713
F1513276914.075
ag4707
aF0.2
aasbsI374
(imyfunction
mondai
p4714
(dp4715
g3
S'2017-12-15 03:47:15'
p4716
sg5
F0.000968066685255435
sg6
S'374.jpeg'
p4717
sg8
(lp4718
sg13
(lp4719
S'physical'
p4720
asg16
F0.0
sg17
F1513277235.412
sg18
I6
sg19
(lp4721
(lp4722
F1513277235.412
ag4716
aF0.0
aasbsI375
(imyfunction
mondai
p4723
(dp4724
g3
S'2017-12-15 15:24:48'
p4725
sg5
F0.0015713870748530088
sg6
S'375.jpg'
p4726
sg8
(lp4727
sg13
(lp4728
S'physical'
p4729
asg16
F0.0
sg17
F1513319088.697
sg18
I7
sg19
(lp4730
(lp4731
F1513319088.697
ag4725
aF0.0
aasbsI376
(imyfunction
mondai
p4732
(dp4733
g3
S'2017-12-16 15:49:37'
p4734
sg5
F0.00434570795828751
sg6
S'376.jpg'
p4735
sg8
(lp4736
(lp4737
g4734
aS'https://www.youtube.com/watch?v=vPUO8d2Y0TQ&list=PLrN2HSNdl6vrhHbv4AAoLrFperyPOpCq-'
p4738
aasg13
(lp4739
S'math'
p4740
aS'YNU'
p4741
asg16
F0.0
sg17
F1513406977.366
sg18
I1
sg19
(lp4742
(lp4743
F1513406977.366
ag4734
aF0.0
aasbsI377
(imyfunction
mondai
p4744
(dp4745
g3
S'2017-12-16 16:35:18'
p4746
sg5
F0.0044857911787150075
sg6
S'377.jpg'
p4747
sg8
(lp4748
(lp4749
g4746
aS'https://www.youtube.com/watch?v=dRp5fx3f_YU&list=PLrN2HSNdl6vrhHbv4AAoLrFperyPOpCq-&index=2'
p4750
aasg13
(lp4751
g4740
aS'YNU'
p4752
asg16
F0.0
sg17
F1513409718.51
sg18
I1
sg19
(lp4753
(lp4754
F1513409718.51
ag4746
aF0.0
aasbsI378
(imyfunction
mondai
p4755
(dp4756
g3
S'2017-12-16 16:53:35'
p4757
sg5
F0.004543095677767806
sg6
S'378.jpg'
p4758
sg8
(lp4759
(lp4760
g4757
aS'https://www.youtube.com/watch?v=qgkvyYSUBvs&list=PLrN2HSNdl6vrhHbv4AAoLrFperyPOpCq-&index=3'
p4761
aasg13
(lp4762
g4740
aS'YNU'
p4763
asg16
F0.0
sg17
F1513410815.251
sg18
I1
sg19
(lp4764
(lp4765
F1513410815.251
ag4757
aF0.0
aasbsI379
(imyfunction
mondai
p4766
(dp4767
g3
S'2017-12-16 17:39:10'
p4768
sg5
F0.004689242766169283
sg6
S'379.jpg'
p4769
sg8
(lp4770
(lp4771
g4768
aS'https://www.youtube.com/watch?v=VFRiQyANo6E&index=4&list=PLrN2HSNdl6vrhHbv4AAoLrFperyPOpCq-'
p4772
aasg13
(lp4773
g4740
aS'YNU'
p4774
asg16
F0.0
sg17
F1513413550.888
sg18
I1
sg19
(lp4775
(lp4776
F1513413550.888
ag4768
aF0.0
aasbsI380
(imyfunction
mondai
p4777
(dp4778
g3
S'2017-12-16 17:56:05'
p4779
sg5
F0.00474461768998375
sg6
S'380.jpg'
p4780
sg8
(lp4781
(lp4782
g4779
aS'https://www.youtube.com/watch?v=5u72HALJmaE&index=5&list=PLrN2HSNdl6vrhHbv4AAoLrFperyPOpCq-'
p4783
aasg13
(lp4784
g4740
aS'YNU'
p4785
asg16
F0.0
sg17
F1513414565.202
sg18
I1
sg19
(lp4786
(lp4787
F1513414565.202
ag4779
aF0.0
aasbsI381
(imyfunction
mondai
p4788
(dp4789
g3
S'2017-12-16 18:39:30'
p4790
sg5
F0.004889863041333745
sg6
S'381.jpg'
p4791
sg8
(lp4792
(lp4793
g4790
aS'https://www.youtube.com/watch?v=bZSXxkGai1I&list=PLrN2HSNdl6vrhHbv4AAoLrFperyPOpCq-&index=6'
p4794
aasg13
(lp4795
g4740
aS'YNU'
p4796
asg16
F0.0
sg17
F1513417170.459
sg18
I1
sg19
(lp4797
(lp4798
F1513417170.459
ag4790
aF0.0
aasbsI382
(imyfunction
mondai
p4799
(dp4800
g3
S'2017-12-16 19:15:45'
p4801
sg5
F0.005014502384261939
sg6
S'382.jpg'
p4802
sg8
(lp4803
(lp4804
g4801
aS'https://www.youtube.com/watch?v=DrEc1he0hQQ&list=PLrN2HSNdl6vrhHbv4AAoLrFperyPOpCq-&index=8'
p4805
aasg13
(lp4806
g4740
aS'YNU'
p4807
asg16
F0.0
sg17
F1513419345.138
sg18
I1
sg19
(lp4808
(lp4809
F1513419345.138
ag4801
aF0.0
aasbsI383
(imyfunction
mondai
p4810
(dp4811
g3
S'2017-12-16 23:00:09'
p4812
sg5
F0.005860142252821617
sg6
S'383.jpg'
p4813
sg8
(lp4814
(lp4815
g4812
aS'https://www.youtube.com/watch?v=r63har1joLI&index=12&list=PLrN2HSNdl6vrhHbv4AAoLrFperyPOpCq-'
p4816
aasg13
(lp4817
g4740
aS'YNU'
p4818
asg16
F0.0
sg17
F1513432809.687
sg18
I1
sg19
(lp4819
(lp4820
F1513432809.687
ag4812
aF0.0
aasbsI384
(imyfunction
mondai
p4821
(dp4822
g3
S'2017-12-17 02:36:34'
p4823
sg5
F0.006810479075300035
sg6
S'384.jpg'
p4824
sg8
(lp4825
(lp4826
g4823
aS'https://www.youtube.com/watch?v=W9EN_y767U8&index=13&list=PLrN2HSNdl6vrhHbv4AAoLrFperyPOpCq-'
p4827
aasg13
(lp4828
g4740
aS'YNU'
p4829
asg16
F0.0
sg17
F1513445794.621
sg18
I1
sg19
(lp4830
(lp4831
F1513445794.621
ag4823
aF0.0
aasbsI385
(imyfunction
mondai
p4832
(dp4833
g3
S'2017-12-17 03:14:27'
p4834
sg5
F0.006992016148810136
sg6
S'385.jpg'
p4835
sg8
(lp4836
(lp4837
g4834
aS'https://www.youtube.com/watch?v=Oy5qKw3Nr1U&list=PLrN2HSNdl6vrhHbv4AAoLrFperyPOpCq-&index=15'
p4838
aasg13
(lp4839
g4740
aS'YNU'
p4840
asg16
F0.0
sg17
F1513448067.501
sg18
I1
sg19
(lp4841
(lp4842
F1513448067.501
ag4834
aF0.0
aasbsI386
(imyfunction
mondai
p4843
(dp4844
g3
S'2017-12-17 17:28:22'
p4845
sg5
F0.01265131217072733
sg6
S'386.jpg'
p4846
sg8
(lp4847
(lp4848
g4845
aS'https://www.youtube.com/watch?v=FJFL4_ND5TM&list=PLrN2HSNdl6vrhHbv4AAoLrFperyPOpCq-&index=18'
p4849
aasg13
(lp4850
g4740
aS'YNU'
p4851
asg16
F0.0
sg17
F1513499302.009
sg18
I1
sg19
(lp4852
(lp4853
F1513499302.009
ag4845
aF0.0
aasbsI387
(imyfunction
mondai
p4854
(dp4855
g3
S'2017-12-17 17:53:21'
p4856
sg5
F0.012872800071350969
sg6
S'387.jpg'
p4857
sg8
(lp4858
(lp4859
g4856
aS'https://www.youtube.com/watch?v=S799wFGrlYg&index=19&list=PLrN2HSNdl6vrhHbv4AAoLrFperyPOpCq-'
p4860
aasg13
(lp4861
g4740
aS'YNU'
p4862
asg16
F0.0
sg17
F1513500801.535
sg18
I1
sg19
(lp4863
(lp4864
F1513500801.535
ag4856
aF0.0
aasbsI388
(imyfunction
mondai
p4865
(dp4866
g3
S'2017-12-17 22:59:15'
p4867
sg5
F0.01591945130679095
sg6
S'388.jpg'
p4868
sg8
(lp4869
(lp4870
g4867
aS'https://www.youtube.com/watch?v=al5tGWXUBTc&list=PLrN2HSNdl6vrrj9r_Jo7uRoarGjEjBXvw&index=6'
p4871
aasg13
(lp4872
g4740
aS'YNU'
p4873
asg16
F0.0
sg17
F1513519155.068
sg18
I1
sg19
(lp4874
(lp4875
F1513519155.068
ag4867
aF0.0
aasbsI389
(imyfunction
mondai
p4876
(dp4877
g3
S'2017-12-17 23:32:02'
p4878
sg5
F0.016286181949015977
sg6
S'389.jpg'
p4879
sg8
(lp4880
(lp4881
g4878
aS'https://www.youtube.com/watch?v=dp1a7bYSzgU&index=7&list=PLrN2HSNdl6vrrj9r_Jo7uRoarGjEjBXvw'
p4882
aasg13
(lp4883
g4740
aS'YNU'
p4884
asg16
F0.0
sg17
F1513521122.854
sg18
I1
sg19
(lp4885
(lp4886
F1513521122.854
ag4878
aF0.0
aasbsI390
(imyfunction
mondai
p4887
(dp4888
g3
S'2017-12-18 02:05:04'
p4889
sg5
F0.01811223370697001
sg6
S'390.jpg'
p4890
sg8
(lp4891
(lp4892
g4889
aS'https://www.youtube.com/watch?v=MwinL143QwM&index=12&list=PLrN2HSNdl6vrrj9r_Jo7uRoarGjEjBXvw'
p4893
aasg13
(lp4894
g4740
aS'YNU'
p4895
asg16
F0.0
sg17
F1513530304.633
sg18
I1
sg19
(lp4896
(lp4897
F1513530304.633
ag4889
aF0.0
aasbsI391
(imyfunction
mondai
p4898
(dp4899
g3
S'2017-12-19 07:22:30'
p4900
sg5
F0.0613766300562834
sg6
S'391.jpeg'
p4901
sg8
(lp4902
sg13
(lp4903
S'physical'
p4904
asg16
F0.0
sg17
F1513635750.782
sg18
I3
sg19
(lp4905
(lp4906
F1513635750.782
ag4900
aF0.0
aasbsI392
(imyfunction
mondai
p4907
(dp4908
g3
S'2017-12-19 21:01:41'
p4909
sg5
F0.21305650641764204
sg6
S'392.jpeg'
p4910
sg8
(lp4911
sg13
(lp4912
S'physical'
p4913
asg16
F0.33
sg17
F1513684901.527
sg18
I6
sg19
(lp4914
(lp4915
F1513684901.527
ag4909
aF0.33
aasbsI393
(imyfunction
mondai
p4916
(dp4917
g3
S'2017-12-19 21:43:05'
p4918
sg5
F0.1115698196251922
sg6
S'393.jpg'
p4919
sg8
(lp4920
(lp4921
g4918
aS'https://www.youtube.com/watch?v=N8YvzXecHpQ&list=PLrN2HSNdl6vrrj9r_Jo7uRoarGjEjBXvw&index=20'
p4922
aasg13
(lp4923
g4740
aS'YNU'
p4924
asg16
F0.0
sg17
F1513687385.274
sg18
I1
sg19
(lp4925
(lp4926
F1513687385.274
ag4918
aF0.0
aasbsI394
(imyfunction
mondai
p4927
(dp4928
g3
S'2017-12-19 21:56:12'
p4929
sg5
F0.11259046702430235
sg6
S'394.jpg'
p4930
sg8
(lp4931
(lp4932
g4929
aS'https://www.youtube.com/watch?v=BT9nlM0huck&list=PLrN2HSNdl6vrrj9r_Jo7uRoarGjEjBXvw&index=21'
p4933
aasg13
(lp4934
g4740
aS'YNU'
p4935
asg16
F0.0
sg17
F1513688172.073
sg18
I1
sg19
(lp4936
(lp4937
F1513688172.073
ag4929
aF0.0
aasbsI395
(imyfunction
mondai
p4938
(dp4939
g3
S'2017-12-20 08:14:23'
p4940
sg5
F0.3228021387936644
sg6
S'395.jpg'
p4941
sg8
(lp4942
(lp4943
g4940
aS'https://www.youtube.com/watch?v=iRsQLWHf3LI&list=PLrN2HSNdl6vrrj9r_Jo7uRoarGjEjBXvw&index=25'
p4944
aasg13
(lp4945
g4740
aS'YNU'
p4946
asg16
F0.4
sg17
F1513725263.77
sg18
I1
sg19
(lp4947
(lp4948
F1513725263.77
ag4940
aF0.4
aasbsI396
(imyfunction
mondai
p4949
(dp4950
g3
S'2017-12-22 00:01:20'
p4951
sg5
F0.9074686055552885
sg6
S'396.jpg'
p4952
sg8
(lp4953
(lp4954
g4951
aS'https://www.youtube.com/watch?v=nHZ28sORSpk&list=PLrN2HSNdl6vrrj9r_Jo7uRoarGjEjBXvw&index=29'
p4955
aasg13
(lp4956
g4740
aS'YNU'
p4957
asg16
F0.0
sg17
F1513868480.399
sg18
I1
sg19
(lp4958
(lp4959
F1513868480.399
ag4951
aF0.0
aasbsI397
(imyfunction
mondai
p4960
(dp4961
g3
S'2017-12-22 00:21:50'
p4962
sg5
F0.9204785458450094
sg6
S'397.jpg'
p4963
sg8
(lp4964
(lp4965
g4962
aS'https://www.youtube.com/watch?v=JoTgaqBLiu8&list=PLrN2HSNdl6vrrj9r_Jo7uRoarGjEjBXvw&index=30'
p4966
aasg13
(lp4967
g4740
aS'YNU'
p4968
asg16
F0.0
sg17
F1513869710.279
sg18
I1
sg19
(lp4969
(lp4970
F1513869710.279
ag4962
aF0.0
aasbs.