(dp0
I1
(imyfunction
mondai
p1
(dp2
S'wordtime'
p3
S'2017-07-04 14:18:19'
p4
sS'remember'
p5
F3.716412514442123e-07
sS'imgnum'
p6
S'1.png'
p7
sS'memo'
p8
(lp9
(lp10
F1498515733.947
aS'2017-06-27 07:22:13'
p11
aS'answer 3'
p12
aasS'tag'
p13
(lp14
S'chemistry'
p15
asS'understand'
p16
F0.999316953411003
sS'lasttime'
p17
F1499145499.01
sS'history'
p18
(lp19
(lp20
F1498515733.947
ag11
aI0
aa(lp21
F1499145499.01
ag4
aI1
aasbsI2
(imyfunction
mondai
p22
(dp23
g3
S'2017-07-04 14:33:48'
p24
sg5
F5.1202497420036486e-20
sg6
S'2.jpg'
p25
sg8
(lp26
S'answer is 3'
p27
asg13
(lp28
g15
asg16
F-0.0009548136980126638
sg17
F1499146428.99
sg18
(lp29
(lp30
F1498545603.881
aS'2017-06-27 15:40:03'
p31
aI0
aa(lp32
F1499146428.99
ag24
aI0
aasbsI3
(imyfunction
mondai
p33
(dp34
g3
S'2017-07-12 03:37:55'
p35
sg5
F4.663200564119951e-06
sg6
S'3.jpg'
p36
sg8
(lp37
S'answer is 5'
p38
asg13
(lp39
g15
asg16
F0.9999994937212187
sg17
F1499798275.889
sg18
(lp40
(lp41
F1498545806.078
aS'2017-06-27 15:43:26'
p42
aI0
aa(lp43
F1499798275.889
ag35
aI1
aasbsI4
(imyfunction
mondai
p44
(dp45
g3
S'2017-07-12 03:40:20'
p46
sg5
F4.665803210611155e-06
sg6
S'4.jpg'
p47
sg8
(lp48
S'answer is 2'
p49
asg13
(lp50
g15
asg16
F0.9999994935594296
sg17
F1499798420.515
sg18
(lp51
(lp52
F1498545978.31
aS'2017-06-27 15:46:18'
p53
aI0
aa(lp54
F1499798420.515
ag46
aI1
aasbsI5
(imyfunction
mondai
p55
(dp56
g3
S'2017-07-12 03:41:46'
p57
sg5
F4.667341985429131e-06
sg6
S'5.jpg'
p58
sg8
(lp59
S'answer is 3'
p60
asg13
(lp61
g15
asg16
F0.9999994359484087
sg17
F1499798506.186
sg18
(lp62
(lp63
F1498555372.608
aS'2017-06-27 18:22:52'
p64
aI0
aa(lp65
F1499798506.186
ag57
aI1
aasbsI6
(imyfunction
mondai
p66
(dp67
g3
S'2017-07-12 03:44:19'
p68
sg5
F4.670108230157085e-06
sg6
S'6.jpg'
p69
sg8
(lp70
S'answer is 5'
p71
asg13
(lp72
g15
asg16
F0.9999994346046224
sg17
F1499798659.768
sg18
(lp73
(lp74
F1498555731.783
aS'2017-06-27 18:28:51'
p75
aI0
aa(lp76
F1499798659.768
ag68
aI1
aasbsI7
(imyfunction
mondai
p77
(dp78
g3
S'2017-07-12 03:45:07'
p79
sg5
F4.670938407977292e-06
sg6
S'7.jpg'
p80
sg8
(lp81
S'answer is 1'
p82
asg13
(lp83
g15
asg16
F0.999998982652945
sg17
F1499798707.42
sg18
(lp84
(lp85
F1498606533.242
aS'2017-06-28 08:35:33'
p86
aI0
aa(lp87
F1499798707.42
ag79
aI1
aasbsI8
(imyfunction
mondai
p88
(dp89
g3
S'2017-07-12 03:45:38'
p90
sg5
F4.671484727220808e-06
sg6
S'8.jpg'
p91
sg8
(lp92
S'answer is 4'
p93
asg13
(lp94
g15
asg16
F0.9999988380453558
sg17
F1499798738.24
sg18
(lp95
(lp96
F1498618047.081
aS'2017-06-28 11:47:27'
p97
aI0
aa(lp98
F1499798738.24
ag90
aI1
aasbsI9
(imyfunction
mondai
p99
(dp100
g3
S'2017-06-28 15:24:07'
p101
sg5
F1.3769691131026682e-22
sg6
S'9.jpg'
p102
sg8
(lp103
S'answer is 2'
p104
asg13
(lp105
g15
asg16
F0.0
sg17
F1498631047.991
sg18
(lp106
(lp107
F1498631047.991
ag101
aI0
aasbsI10
(imyfunction
mondai
p108
(dp109
g3
S'2017-06-28 15:25:58'
p110
sg5
F1.3787300652393439e-22
sg6
S'10.jpg'
p111
sg8
(lp112
S'answer is 4'
p113
asg13
(lp114
g15
asg16
F0.0
sg17
F1498631158.414
sg18
(lp115
(lp116
F1498631158.414
ag110
aI0
aasbsI11
(imyfunction
mondai
p117
(dp118
g3
S'2017-07-04 13:54:14'
p119
sg5
F5.218892931845246e-20
sg6
S'11.jpg'
p120
sg8
(lp121
(lp122
F1499144054.099
ag119
aS'answer 2,3,2'
p123
aasg13
(lp124
g15
asg16
F0.0
sg17
F1499144054.099
sg18
(lp125
(lp126
F1499144054.099
ag119
aI0
aasbsI12
(imyfunction
mondai
p127
(dp128
g3
S'2017-07-04 14:00:01'
p129
sg5
F5.239930633398263e-20
sg6
S'12.jpg'
p130
sg8
(lp131
(lp132
F1499144401.683
ag129
aS'answer 3'
p133
aasg13
(lp134
g15
asg16
F0.0
sg17
F1499144401.683
sg18
(lp135
(lp136
F1499144401.683
ag129
aI0
aasbsI13
(imyfunction
mondai
p137
(dp138
g3
S'2017-07-04 14:17:31'
p139
sg5
F8.001363111492013e-20
sg6
S'13.jpg'
p140
sg8
(lp141
(lp142
F1499144716.146
aS'2017-07-04 14:05:16'
p143
aS'answer 3'
p144
aasg13
(lp145
g15
asg16
F0.008471551343691375
sg17
F1499145451.206
sg18
(lp146
F1499144716.146
ag143
aI0
asbsI14
(imyfunction
mondai
p147
(dp148
g3
S'2017-07-04 16:24:59'
p149
sg5
F5.794867836532295e-20
sg6
S'14.jpg'
p150
sg8
(lp151
sg13
(lp152
S'math'
p153
asg16
F0.0
sg17
F1499153099.088
sg18
(lp154
(lp155
F1499153099.088
ag149
aI0
aasbsI15
(imyfunction
mondai
p156
(dp157
g3
S'2017-07-04 20:02:05'
p158
sg5
F6.737828664116325e-20
sg6
S'15.png'
p159
sg8
(lp160
sg13
(lp161
g153
asg16
F0.0
sg17
F1499166125.188
sg18
(lp162
(lp163
F1499166125.188
ag158
aI0
aasbsI16
(imyfunction
mondai
p164
(dp165
g3
S'2017-07-04 21:08:46'
p166
sg5
F7.057196269590349e-20
sg6
S'16.png'
p167
sg8
(lp168
S'\xbb\xad\xcd\xbc\xba\xf3\xd5\xd2\xbd\xbb\xb5\xe3'
p169
asg13
(lp170
S'math'
p171
asg16
F0.0
sg17
F1499170126.383
sg18
(lp172
(lp173
F1499170126.383
ag166
aI0
aasbsI17
(imyfunction
mondai
p174
(dp175
g3
S'2017-07-04 23:19:34'
p176
sg5
F7.728261658098094e-20
sg6
S'17.jpg'
p177
sg8
(lp178
S'answer is 4'
p179
asg13
(lp180
S'chemistry'
p181
asg16
F0.0
sg17
F1499177974.623
sg18
(lp182
(lp183
F1499177974.623
ag176
aI0
aasbsI18
(imyfunction
mondai
p184
(dp185
g3
S'2017-07-04 23:22:46'
p186
sg5
F7.745484700791979e-20
sg6
S'18.jpg'
p187
sg8
(lp188
S'answer is 1'
p189
asg13
(lp190
g181
asg16
F0.0
sg17
F1499178166.958
sg18
(lp191
(lp192
F1499178166.958
ag186
aI0
aasbsI19
(imyfunction
mondai
p193
(dp194
g3
S'2017-07-05 16:03:21'
p195
sg5
F1.5517304463780137e-19
sg6
S'19.jpg'
p196
sg8
(lp197
sg13
(lp198
g171
asg16
F0.0
sg17
F1499238201.632
sg18
(lp199
(lp200
F1499238201.632
ag195
aI0
aasbsI20
(imyfunction
mondai
p201
(dp202
g3
S'2017-07-08 19:24:45'
p203
sg5
F9.902026018597311e-15
sg6
S'20.jpg'
p204
sg8
(lp205
sg13
(lp206
g171
asg16
F0.2
sg17
F1499509485.541
sg18
(lp207
(lp208
F1499509485.541
ag203
aF0.2
aasbsI21
(imyfunction
mondai
p209
(dp210
g3
S'2017-07-08 21:19:28'
p211
sg5
F8.866968002944158e-11
sg6
S'21.jpg'
p212
sg8
(lp213
sg13
(lp214
g181
asg16
F0.5
sg17
F1499516368.113
sg18
(lp215
(lp216
F1499516368.113
ag211
aF0.5
aasbsI22
(imyfunction
mondai
p217
(dp218
g3
S'2017-07-09 01:21:40'
p219
sg5
F4.5928751509101885e-18
sg6
S'22.jpg'
p220
sg8
(lp221
sg13
(lp222
g181
asg16
F0.0
sg17
F1499530900.691
sg18
(lp223
(lp224
F1499530900.691
ag219
aI0
aasbsI23
(imyfunction
mondai
p225
(dp226
g3
S'2017-07-09 01:22:30'
p227
sg5
F4.595504367357944e-18
sg6
S'23.jpg'
p228
sg8
(lp229
sg13
(lp230
g181
asg16
F0.0
sg17
F1499530950.137
sg18
(lp231
(lp232
F1499530950.137
ag227
aI0
aasbsI24
(imyfunction
mondai
p233
(dp234
g3
S'2017-07-09 05:52:16'
p235
sg5
F5.542353252940222e-18
sg6
S'24.jpg'
p236
sg8
(lp237
sg13
(lp238
S'chemistry'
p239
asg16
F0.0
sg17
F1499547136.371
sg18
(lp240
(lp241
F1499547136.371
ag235
aI0
aasbsI25
(imyfunction
mondai
p242
(dp243
g3
S'2017-07-09 05:56:17'
p244
sg5
F5.557858401343186e-18
sg6
S'25.jpg'
p245
sg8
(lp246
sg13
(lp247
g239
asg16
F0.0
sg17
F1499547377.744
sg18
(lp248
(lp249
F1499547377.744
ag244
aI0
aasbsI26
(imyfunction
mondai
p250
(dp251
g3
S'2017-07-09 05:57:03'
p252
sg5
F5.560797509865067e-18
sg6
S'26.jpg'
p253
sg8
(lp254
sg13
(lp255
g239
asg16
F0.0
sg17
F1499547423.422
sg18
(lp256
(lp257
F1499547423.422
ag252
aI0
aasbsI27
(imyfunction
mondai
p258
(dp259
g3
S'2017-07-09 05:57:43'
p260
sg5
F5.563357095392817e-18
sg6
S'27.jpg'
p261
sg8
(lp262
sg13
(lp263
g239
asg16
F0.0
sg17
F1499547463.182
sg18
(lp264
(lp265
F1499547463.182
ag260
aI0
aasbsI28
(imyfunction
mondai
p266
(dp267
g3
S'2017-07-10 01:03:16'
p268
sg5
F1.2326223263100168e-17
sg6
S'28.jpg'
p269
sg8
(lp270
sg13
(lp271
g239
asg16
F0.0
sg17
F1499616196.736
sg18
(lp272
(lp273
F1499616196.736
ag268
aI0
aasbsI29
(imyfunction
mondai
p274
(dp275
g3
S'2017-07-10 01:12:12'
p276
sg5
F3.8306702446208696e-08
sg6
S'29.jpg'
p277
sg8
(lp278
sg13
(lp279
S'math'
p280
asg16
F0.75
sg17
F1499616732.384
sg18
(lp281
(lp282
F1499616732.384
ag276
aF0.75
aasbsI30
(imyfunction
mondai
p283
(dp284
g3
S'2017-07-10 18:58:24'
p285
sg5
F2.600660999776126e-17
sg6
S'30.png'
p286
sg8
(lp287
sg13
(lp288
g239
asg16
F0.0
sg17
F1499680704.857
sg18
(lp289
(lp290
F1499680704.857
ag285
aI0
aasbsI31
(imyfunction
mondai
p291
(dp292
g3
S'2017-07-12 03:21:37'
p293
sg5
F1.7436977589297435e-10
sg6
S'31.jpg'
p294
sg8
(lp295
sg13
(lp296
g280
asg16
F0.45
sg17
F1499797297.774
sg18
(lp297
(lp298
F1499797297.774
ag293
aF0.45
aasbsI32
(imyfunction
mondai
p299
(dp300
g3
S'2017-07-12 03:24:30'
p301
sg5
F7.195989409043487e-16
sg6
S'32.jpg'
p302
sg8
(lp303
sg13
(lp304
g280
asg16
F0.05
sg17
F1499797470.167
sg18
(lp305
(lp306
F1499797470.167
ag301
aF0.05
aasbsI33
(imyfunction
mondai
p307
(dp308
g3
S'2017-07-15 05:36:44'
p309
sg5
F2.211962147779388e-15
sg6
S'33.jpg'
p310
sg8
(lp311
sg13
(lp312
S'physics'
p313
asg16
F0.0
sg17
F1500064604.639
sg18
(lp314
(lp315
F1500064604.639
ag309
aI0
aasbsI34
(imyfunction
mondai
p316
(dp317
g3
S'2017-08-17 23:29:33'
p318
sg5
F0.0
sg6
S'34.jpg'
p319
sg8
(lp320
sg13
(lp321
S'physical'
p322
asg16
F0.0
sg17
F1502980173.751
sg18
(lp323
(lp324
F1502980173.751
ag318
aF0.0
aasbs.