(dp0
I1
(imyfunction
mondai
p1
(dp2
S'wordtime'
p3
S'2017-07-04 14:18:19'
p4
sS'remember'
p5
F1.1131746636356894e-13
sS'imgnum'
p6
S'1.png'
p7
sS'memo'
p8
(lp9
(lp10
F1498515733.947
aS'2017-06-27 07:22:13'
p11
aS'answer 3'
p12
aasS'tag'
p13
(lp14
S'chemistry'
p15
asS'understand'
p16
F0.999316953411003
sS'lasttime'
p17
F1499145499.01
sS'qusnum'
p18
I1
sS'history'
p19
(lp20
(lp21
F1498515733.947
ag11
aI0
aa(lp22
F1499145499.01
ag4
aI1
aasbsI2
(imyfunction
mondai
p23
(dp24
g3
S'2017-10-01 21:56:41'
p25
sg5
F0.9692059308347187
sg6
S'2.jpg'
p26
sg8
(lp27
S'answer is 3'
p28
aS'0'
p29
asg13
(lp30
g15
asg16
F0.9990451863019874
sg17
F1506862601.36
sg19
(lp31
(lp32
F1498545603.881
aS'2017-06-27 15:40:03'
p33
aI0
aa(lp34
F1499146428.99
aS'2017-07-04 14:33:48'
p35
aI0
aa(lp36
F1506862601.36
ag25
aF1.0
aasbsI3
(imyfunction
mondai
p37
(dp38
g3
S'2017-07-12 03:37:55'
p39
sg5
F1.4125809139004997e-12
sg6
S'3.jpg'
p40
sg8
(lp41
S'answer is 5'
p42
asg13
(lp43
g15
asg16
F0.9999994937212187
sg17
F1499798275.889
sg19
(lp44
(lp45
F1498545806.078
aS'2017-06-27 15:43:26'
p46
aI0
aa(lp47
F1499798275.889
ag39
aI1
aasbsI4
(imyfunction
mondai
p48
(dp49
g3
S'2017-07-12 03:40:20'
p50
sg5
F1.4133693061484695e-12
sg6
S'4.jpg'
p51
sg8
(lp52
S'answer is 2'
p53
asg13
(lp54
g15
asg16
F0.9999994935594296
sg17
F1499798420.515
sg19
(lp55
(lp56
F1498545978.31
aS'2017-06-27 15:46:18'
p57
aI0
aa(lp58
F1499798420.515
ag50
aI1
aasbsI5
(imyfunction
mondai
p59
(dp60
g3
S'2017-07-12 03:41:46'
p61
sg5
F1.413834090054054e-12
sg6
S'5.jpg'
p62
sg8
(lp63
S'answer is 3'
p64
asg13
(lp65
g15
asg16
F0.9999994359484087
sg17
F1499798506.186
sg19
(lp66
(lp67
F1498555372.608
aS'2017-06-27 18:22:52'
p68
aI0
aa(lp69
F1499798506.186
ag61
aI1
aasbsI6
(imyfunction
mondai
p70
(dp71
g3
S'2017-07-12 03:44:19'
p72
sg5
F1.4146720112519757e-12
sg6
S'6.jpg'
p73
sg8
(lp74
S'answer is 5'
p75
asg13
(lp76
g15
asg16
F0.9999994346046224
sg17
F1499798659.768
sg19
(lp77
(lp78
F1498555731.783
aS'2017-06-27 18:28:51'
p79
aI0
aa(lp80
F1499798659.768
ag72
aI1
aasbsI7
(imyfunction
mondai
p81
(dp82
g3
S'2017-07-12 03:45:07'
p83
sg5
F1.4149129443148326e-12
sg6
S'7.jpg'
p84
sg8
(lp85
S'answer is 1'
p86
asg13
(lp87
g15
asg16
F0.999998982652945
sg17
F1499798707.42
sg19
(lp88
(lp89
F1498606533.242
aS'2017-06-28 08:35:33'
p90
aI0
aa(lp91
F1499798707.42
ag83
aI1
aasbsI8
(imyfunction
mondai
p92
(dp93
g3
S'2017-07-12 03:45:38'
p94
sg5
F1.4150750600840807e-12
sg6
S'8.jpg'
p95
sg8
(lp96
S'answer is 4'
p97
asg13
(lp98
g15
asg16
F0.9999988380453558
sg17
F1499798738.24
sg19
(lp99
(lp100
F1498618047.081
aS'2017-06-28 11:47:27'
p101
aI0
aa(lp102
F1499798738.24
ag94
aI1
aasbsI9
(imyfunction
mondai
p103
(dp104
g3
S'2017-10-01 21:43:25'
p105
sg5
F0.9662677013918407
sg6
S'9.jpg'
p106
sg8
(lp107
S'answer is 2'
p108
asg13
(lp109
g15
asg16
F1.0
sg17
F1506861805.88
sg19
(lp110
(lp111
F1498631047.991
aS'2017-06-28 15:24:07'
p112
aI0
aa(lp113
F1506861805.88
ag105
aF1.0
aasbsI10
(imyfunction
mondai
p114
(dp115
g3
S'2017-10-01 21:52:59'
p116
sg5
F0.9684098109865157
sg6
S'10.jpg'
p117
sg8
(lp118
S'answer is 4'
p119
aS'0'
p120
asg13
(lp121
g15
asg16
F1.0
sg17
F1506862379.862
sg19
(lp122
(lp123
F1498631158.414
aS'2017-06-28 15:25:58'
p124
aI0
aa(lp125
F1506862379.862
ag116
aF1.0
aasbsI11
(imyfunction
mondai
p126
(dp127
g3
S'2017-10-01 22:03:45'
p128
sg5
F0.9578920729314094
sg6
S'11.jpg'
p129
sg8
(lp130
(lp131
F1499144054.099
aS'2017-07-04 13:54:14'
p132
aS'answer 2,3,2'
p133
aasg13
(lp134
g15
asg16
F0.66
sg17
F1506863025.03
sg19
(lp135
(lp136
F1499144054.099
ag132
aI0
aa(lp137
F1506863025.03
ag128
aF0.66
aasbsI12
(imyfunction
mondai
p138
(dp139
g3
S'2017-10-01 22:10:11'
p140
sg5
F0.9722710045079263
sg6
S'12.jpg'
p141
sg8
(lp142
(lp143
F1499144401.683
aS'2017-07-04 14:00:01'
p144
aS'answer 3'
p145
aasg13
(lp146
g15
asg16
F1.0
sg17
F1506863411.276
sg19
(lp147
(lp148
F1499144401.683
ag144
aI0
aa(lp149
F1506863411.276
ag140
aF1.0
aasbsI13
(imyfunction
mondai
p150
(dp151
g3
S'2017-10-02 00:01:23'
p152
sg5
F0.9976466978932736
sg6
S'13.jpg'
p153
sg8
(lp154
(lp155
F1499144716.146
aS'2017-07-04 14:05:16'
p156
aS'answer 3'
p157
aasg13
(lp158
g15
asg16
F1.0084715513436913
sg17
F1506870083.757
sg18
I1
sg19
(lp159
F1499144716.146
ag156
aI0
a(lp160
F1506870083.757
ag152
aF1.0
aasbsI14
(imyfunction
mondai
p161
(dp162
g3
S'2017-10-01 22:21:15'
p163
sg5
F0.9747652301746388
sg6
S'14.jpg'
p164
sg8
(lp165
sg13
(lp166
S'math'
p167
asg16
F1.0
sg17
F1506864075.366
sg19
(lp168
(lp169
F1499153099.088
aS'2017-07-04 16:24:59'
p170
aI0
aa(lp171
F1506864075.366
ag163
aF1.0
aasbsI15
(imyfunction
mondai
p172
(dp173
g3
S'2017-10-01 22:37:19'
p174
sg5
F0.9783973699601932
sg6
S'15.png'
p175
sg8
(lp176
sg13
(lp177
g167
asg16
F1.0
sg17
F1506865039.394
sg18
I1
sg19
(lp178
(lp179
F1499166125.188
aS'2017-07-04 20:02:05'
p180
aI0
aa(lp181
F1506865039.394
ag174
aF1.0
aasbsI16
(imyfunction
mondai
p182
(dp183
g3
S'2017-10-01 23:12:20'
p184
sg5
F0.9764920773683928
sg6
S'16.png'
p185
sg8
(lp186
S'\xbb\xad\xcd\xbc\xba\xf3\xd5\xd2\xbd\xbb\xb5\xe3'
p187
asg13
(lp188
S'math'
p189
asg16
F0.5
sg17
F1506867140.211
sg18
I1
sg19
(lp190
(lp191
F1499170126.383
aS'2017-07-04 21:08:46'
p192
aI0
aa(lp193
F1506867140.211
ag184
aF0.5
aasbsI17
(imyfunction
mondai
p194
(dp195
g3
S'2017-10-01 23:20:09'
p196
sg5
F0.9881485086886823
sg6
S'17.jpg'
p197
sg8
(lp198
S'answer is 4'
p199
asg13
(lp200
S'chemistry'
p201
asg16
F1.0
sg17
F1506867609.907
sg18
I1
sg19
(lp202
(lp203
F1499177974.623
aS'2017-07-04 23:19:34'
p204
aI0
aa(lp205
F1506867609.907
ag196
aF1.0
aasbsI18
(imyfunction
mondai
p206
(dp207
g3
S'2017-10-01 23:48:15'
p208
sg5
F0.994595713084911
sg6
S'18.jpg'
p209
sg8
(lp210
S'answer is 1'
p211
asg13
(lp212
g201
asg16
F1.0
sg17
F1506869295.572
sg18
I1
sg19
(lp213
(lp214
F1499178166.958
aS'2017-07-04 23:22:46'
p215
aI0
aa(lp216
F1506869295.572
ag208
aF1.0
aasbsI19
(imyfunction
mondai
p217
(dp218
g3
S'2017-10-02 00:09:31'
p219
sg5
F0.9985171190763978
sg6
S'19.jpg'
p220
sg8
(lp221
sg13
(lp222
g189
asg16
F-4.319757436694465e-39
sg17
F1506870571.946
sg18
I1
sg19
(lp223
(lp224
F1499238201.632
aS'2017-07-05 16:03:21'
p225
aI0
aa(lp226
F1506870571.946
ag219
aF0.0
aasbsI20
(imyfunction
mondai
p227
(dp228
g3
S'2017-07-08 19:24:45'
p229
sg5
F1.9829371675906083e-30
sg6
S'20.jpg'
p230
sg8
(lp231
sg13
(lp232
g189
asg16
F0.2
sg17
F1499509485.541
sg19
(lp233
(lp234
F1499509485.541
ag229
aF0.2
aasbsI21
(imyfunction
mondai
p235
(dp236
g3
S'2017-07-08 21:19:28'
p237
sg5
F4.540591852882386e-22
sg6
S'21.jpg'
p238
sg8
(lp239
sg13
(lp240
g201
asg16
F0.5
sg17
F1499516368.113
sg19
(lp241
(lp242
F1499516368.113
ag237
aF0.5
aasbsI22
(imyfunction
mondai
p243
(dp244
g3
S'2017-10-02 00:11:37'
p245
sg5
F0.9999693176000792
sg6
S'22.jpg'
p246
sg8
(lp247
sg13
(lp248
g201
asg16
F-1.2767226406916503e-37
sg17
F1506870697.511
sg18
I1
sg19
(lp249
(lp250
F1499530900.691
aS'2017-07-09 01:21:40'
p251
aI0
aa(lp252
F1506870697.511
ag245
aF0.0
aasbsI23
(imyfunction
mondai
p253
(dp254
g3
S'2017-10-02 00:16:00'
p255
sg5
F1.2735640649936628e-37
sg6
S'23.jpg'
p256
sg8
(lp257
sg13
(lp258
g201
asg16
F-1.2735640649936628e-37
sg17
F1506870960.973
sg18
I1
sg19
(lp259
(lp260
F1499530950.137
aS'2017-07-09 01:22:30'
p261
aI0
aa(lp262
F1506870960.973
ag255
aF0.0
aasbsI24
(imyfunction
mondai
p263
(dp264
g3
S'2017-07-09 05:52:16'
p265
sg5
F1.5406103014158035e-37
sg6
S'24.jpg'
p266
sg8
(lp267
sg13
(lp268
S'chemistry'
p269
asg16
F0.0
sg17
F1499547136.371
sg19
(lp270
(lp271
F1499547136.371
ag265
aI0
aasbsI25
(imyfunction
mondai
p272
(dp273
g3
S'2017-07-09 05:56:17'
p274
sg5
F1.5449202741411823e-37
sg6
S'25.jpg'
p275
sg8
(lp276
sg13
(lp277
g269
asg16
F0.0
sg17
F1499547377.744
sg19
(lp278
(lp279
F1499547377.744
ag274
aI0
aasbsI26
(imyfunction
mondai
p280
(dp281
g3
S'2017-07-09 05:57:03'
p282
sg5
F1.5457372593926093e-37
sg6
S'26.jpg'
p283
sg8
(lp284
sg13
(lp285
g269
asg16
F0.0
sg17
F1499547423.422
sg19
(lp286
(lp287
F1499547423.422
ag282
aI0
aasbsI27
(imyfunction
mondai
p288
(dp289
g3
S'2017-07-09 05:57:43'
p290
sg5
F1.546448748475192e-37
sg6
S'27.jpg'
p291
sg8
(lp292
sg13
(lp293
g269
asg16
F0.0
sg17
F1499547463.182
sg19
(lp294
(lp295
F1499547463.182
ag290
aI0
aasbsI28
(imyfunction
mondai
p296
(dp297
g3
S'2017-07-10 01:03:16'
p298
sg5
F3.426325546212513e-37
sg6
S'28.jpg'
p299
sg8
(lp300
sg13
(lp301
g269
asg16
F0.0
sg17
F1499616196.736
sg19
(lp302
(lp303
F1499616196.736
ag298
aI0
aasbsI29
(imyfunction
mondai
p304
(dp305
g3
S'2017-07-10 01:12:12'
p306
sg5
F1.0097790418129976e-16
sg6
S'29.jpg'
p307
sg8
(lp308
sg13
(lp309
S'math'
p310
asg16
F0.75
sg17
F1499616732.384
sg19
(lp311
(lp312
F1499616732.384
ag306
aF0.75
aasbsI30
(imyfunction
mondai
p313
(dp314
g3
S'2017-07-10 18:58:24'
p315
sg5
F7.229068491114108e-37
sg6
S'30.png'
p316
sg8
(lp317
sg13
(lp318
g269
asg16
F0.0
sg17
F1499680704.857
sg19
(lp319
(lp320
F1499680704.857
ag315
aI0
aasbsI31
(imyfunction
mondai
p321
(dp322
g3
S'2017-07-12 03:21:37'
p323
sg5
F2.05709903576984e-22
sg6
S'31.jpg'
p324
sg8
(lp325
sg13
(lp326
g310
asg16
F0.45
sg17
F1499797297.774
sg19
(lp327
(lp328
F1499797297.774
ag323
aF0.45
aasbsI32
(imyfunction
mondai
p329
(dp330
g3
S'2017-07-12 03:24:30'
p331
sg5
F2.219940311701613e-34
sg6
S'32.jpg'
p332
sg8
(lp333
sg13
(lp334
g310
asg16
F0.05
sg17
F1499797470.167
sg19
(lp335
(lp336
F1499797470.167
ag331
aF0.05
aasbsI33
(imyfunction
mondai
p337
(dp338
g3
S'2017-07-15 05:36:44'
p339
sg5
F6.148600631695394e-35
sg6
S'33.jpg'
p340
sg8
(lp341
sg13
(lp342
S'physics'
p343
asg16
F0.0
sg17
F1500064604.639
sg19
(lp344
(lp345
F1500064604.639
ag339
aI0
aasbsI34
(imyfunction
mondai
p346
(dp347
g3
S'2017-08-17 23:29:33'
p348
sg5
F2.780027978401788e-20
sg6
S'34.jpg'
p349
sg8
(lp350
sg13
(lp351
S'physical'
p352
asg16
F0.0
sg17
F1502980173.751
sg19
(lp353
(lp354
F1502980173.751
ag348
aF0.0
aasbsI35
(imyfunction
mondai
p355
(dp356
g3
S'2017-08-18 01:12:53'
p357
sg5
F5.337769642323246e-12
sg6
S'35.jpeg'
p358
sg8
(lp359
sg13
(lp360
S'physical'
p361
asg16
F0.5
sg17
F1502986373.885
sg19
(lp362
(lp363
F1502986373.885
ag357
aF0.5
aasbsI36
(imyfunction
mondai
p364
(dp365
g3
S'2017-08-19 01:39:30'
p366
sg5
F4.2529295900323115e-09
sg6
S'36.jpeg'
p367
sg8
(lp368
sg13
(lp369
S'physical'
p370
asg16
F0.75
sg17
F1503074370.742
sg19
(lp371
(lp372
F1503074370.742
ag366
aF0.75
aasbsI37
(imyfunction
mondai
p373
(dp374
g3
S'2017-08-19 02:05:31'
p375
sg5
F1.3584538814382955e-10
sg6
S'37.jpeg'
p376
sg8
(lp377
sg13
(lp378
S'physical'
p379
asg16
F0.6
sg17
F1503075931.234
sg19
(lp380
(lp381
F1503075931.234
ag375
aF0.6
aasbsI38
(imyfunction
mondai
p382
(dp383
g3
S'2017-08-19 03:13:53'
p384
sg5
F1.2244680570063775e-08
sg6
S'38.jpeg'
p385
sg8
(lp386
sg13
(lp387
S'physical'
p388
asg16
F0.8
sg17
F1503080033.486
sg19
(lp389
(lp390
F1503080033.486
ag384
aF0.8
aasbsI39
(imyfunction
mondai
p391
(dp392
g3
S'2017-08-19 03:42:09'
p393
sg5
F4.414842517803661e-09
sg6
S'39.jpeg'
p394
sg8
(lp395
sg13
(lp396
S'physical'
p397
asg16
F0.75
sg17
F1503081729.58
sg19
(lp398
(lp399
F1503081729.58
ag393
aF0.75
aasbsI40
(imyfunction
mondai
p400
(dp401
g3
S'2017-08-19 03:59:08'
p402
sg5
F8.245309423583105e-08
sg6
S'40.jpeg'
p403
sg8
(lp404
sg13
(lp405
S'physical'
p406
asg16
F0.9
sg17
F1503082748.531
sg19
(lp407
(lp408
F1503082748.531
ag402
aF0.9
aasbsI41
(imyfunction
mondai
p409
(dp410
g3
S'2017-08-20 18:55:50'
p411
sg5
F3.2758027362616726e-10
sg6
S'41.jpg'
p412
sg8
(lp413
sg13
(lp414
S'physical'
p415
asg16
F0.6
sg17
F1503222950.967
sg19
(lp416
(lp417
F1503222950.967
ag411
aF0.6
aasbsI42
(imyfunction
mondai
p418
(dp419
g3
S'2017-08-20 20:00:00'
p420
sg5
F1.980478777032326e-15
sg6
S'42.jpg'
p421
sg8
(lp422
sg13
(lp423
S'physical'
p424
asg16
F0.2
sg17
F1503226800.354
sg19
(lp425
(lp426
F1503226800.354
ag420
aF0.2
aasbsI43
(imyfunction
mondai
p427
(dp428
g3
S'2017-08-20 21:36:09'
p429
sg5
F5.160982416004795e-19
sg6
S'43.png'
p430
sg8
(lp431
sg13
(lp432
S'chemistry'
p433
asg16
F0.0
sg17
F1503232569.843
sg19
(lp434
(lp435
F1503232569.843
ag429
aF0.0
aasbsI44
(imyfunction
mondai
p436
(dp437
g3
S'2017-08-20 21:55:40'
p438
sg5
F2.787656860626438e-11
sg6
S'44.png'
p439
sg8
(lp440
sg13
(lp441
S'chemistry'
p442
asg16
F0.5
sg17
F1503233740.794
sg19
(lp443
(lp444
F1503233740.794
ag438
aF0.5
aasbsI45
(imyfunction
mondai
p445
(dp446
g3
S'2017-08-21 00:51:01'
p447
sg5
F5.908794922328851e-19
sg6
S'45.png'
p448
sg8
(lp449
sg13
(lp450
S'chemistry'
p451
asg16
F0.0
sg17
F1503244261.055
sg19
(lp452
(lp453
F1503244261.055
ag447
aF0.0
aasbsI46
(imyfunction
mondai
p454
(dp455
g3
S'2017-08-21 01:10:28'
p456
sg5
F1.0136532039229045e-08
sg6
S'46.png'
p457
sg8
(lp458
S'answer is 7'
p459
asg13
(lp460
S'chemistry'
p461
asg16
F0.75
sg17
F1503245428.763
sg19
(lp462
(lp463
F1503245428.763
ag456
aF0.75
aasbsI47
(imyfunction
mondai
p464
(dp465
g3
S'2017-08-21 01:32:05'
p466
sg5
F6.079773265715562e-19
sg6
S'47.png'
p467
sg8
(lp468
sg13
(lp469
S'chemistry'
p470
asg16
F0.0
sg17
F1503246725.658
sg19
(lp471
(lp472
F1503246725.658
ag466
aF0.0
aasbsI48
(imyfunction
mondai
p473
(dp474
g3
S'2017-08-21 01:41:54'
p475
sg5
F6.121337374554392e-19
sg6
S'48.png'
p476
sg8
(lp477
sg13
(lp478
S'chemistry'
p479
asg16
F0.0
sg17
F1503247314.318
sg19
(lp480
(lp481
F1503247314.318
ag475
aF0.0
aasbsI49
(imyfunction
mondai
p482
(dp483
g3
S'2017-08-21 03:52:18'
p484
sg5
F6.701549040555721e-19
sg6
S'49.png'
p485
sg8
(lp486
sg13
(lp487
S'chemistry'
p488
asg16
F0.0
sg17
F1503255138.538
sg19
(lp489
(lp490
F1503255138.538
ag484
aF0.0
aasbsI50
(imyfunction
mondai
p491
(dp492
g3
S'2017-08-21 07:37:02'
p493
sg5
F7.833462077801519e-19
sg6
S'50.png'
p494
sg8
(lp495
sg13
(lp496
S'chemistry'
p497
asg16
F0.0
sg17
F1503268622.629
sg19
(lp498
(lp499
F1503268622.629
ag493
aF0.0
aasbsI51
(imyfunction
mondai
p500
(dp501
g3
S'2017-08-21 07:51:15'
p502
sg5
F3.5395199615852377e-11
sg6
S'51.jpg'
p503
sg8
(lp504
sg13
(lp505
S'chemistry'
p506
asg16
F0.5
sg17
F1503269475.48
sg19
(lp507
(lp508
F1503269475.48
ag502
aF0.5
aasbsI52
(imyfunction
mondai
p509
(dp510
g3
S'2017-08-21 07:57:49'
p511
sg5
F4.087159405026762e-09
sg6
S'52.jpg'
p512
sg8
(lp513
sg13
(lp514
S'chemistry'
p515
asg16
F0.7
sg17
F1503269869.663
sg19
(lp516
(lp517
F1503269869.663
ag511
aF0.7
aasbsI53
(imyfunction
mondai
p518
(dp519
g3
S'2017-08-22 02:20:47'
p520
sg5
F1.4551556333696289e-11
sg6
S'53.png'
p521
sg8
(lp522
sg13
(lp523
S'math'
p524
asg16
F0.45
sg17
F1503336047.871
sg19
(lp525
(lp526
F1503336047.871
ag520
aF0.45
aasbsI54
(imyfunction
mondai
p527
(dp528
g3
S'2017-08-22 07:00:54'
p529
sg5
F1.4357547625246244e-16
sg6
S'54.png'
p530
sg8
(lp531
sg13
(lp532
S'math'
p533
asg16
F0.1
sg17
F1503352854.527
sg19
(lp534
(lp535
F1503352854.527
ag529
aF0.1
aasbsI55
(imyfunction
mondai
p536
(dp537
g3
S'2017-08-22 10:58:23'
p538
sg5
F2.448904190631405e-18
sg6
S'55.jpg'
p539
sg8
(lp540
sg13
(lp541
S'physical'
p542
asg16
F0.0
sg17
F1503367103.179
sg19
(lp543
(lp544
F1503367103.179
ag538
aF0.0
aasbsI56
(imyfunction
mondai
p545
(dp546
g3
S'2017-08-22 11:34:13'
p547
sg5
F4.55535856018649e-12
sg6
S'56.png'
p548
sg8
(lp549
sg13
(lp550
S'chemistry'
p551
asg16
F0.4
sg17
F1503369253.09
sg19
(lp552
(lp553
F1503369253.09
ag547
aF0.4
aasbsI57
(imyfunction
mondai
p554
(dp555
g3
S'2017-08-22 11:59:34'
p556
sg5
F6.965008131718521e-11
sg6
S'57.png'
p557
sg8
(lp558
sg13
(lp559
S'chemistry'
p560
asg16
F0.5
sg17
F1503370774.163
sg19
(lp561
(lp562
F1503370774.163
ag556
aF0.5
aasbsI58
(imyfunction
mondai
p563
(dp564
g3
S'2017-08-22 22:31:10'
p565
sg5
F8.972221669856633e-11
sg6
S'58.png'
p566
sg8
(lp567
sg13
(lp568
S'chemistry'
p569
asg16
F0.5
sg17
F1503408670.508
sg19
(lp570
(lp571
F1503408670.508
ag565
aF0.5
aasbsI59
(imyfunction
mondai
p572
(dp573
g3
S'2017-08-23 06:11:09'
p574
sg5
F1.1748386021086916e-09
sg6
S'59.png'
p575
sg8
(lp576
sg13
(lp577
S'chemistry'
p578
asg16
F0.6
sg17
F1503436269.897
sg19
(lp579
(lp580
F1503436269.897
ag574
aF0.6
aasbsI60
(imyfunction
mondai
p581
(dp582
g3
S'2017-08-24 07:46:08'
p583
sg5
F1.5833580242019354e-17
sg6
S'60.png'
p584
sg8
(lp585
sg13
(lp586
S'chemistry'
p587
asg16
F0.0
sg17
F1503528368.119
sg19
(lp588
(lp589
F1503528368.119
ag583
aF0.0
aasbsI61
(imyfunction
mondai
p590
(dp591
g3
S'2017-08-26 23:58:55'
p592
sg5
F2.2990864727489964e-16
sg6
S'61.png'
p593
sg8
(lp594
sg13
(lp595
S'chemistry'
p596
asg16
F0.0
sg17
F1503759535.555
sg19
(lp597
(lp598
F1503759535.555
ag592
aF0.0
aasbsI62
(imyfunction
mondai
p599
(dp600
g3
S'2017-08-27 00:05:08'
p601
sg5
F2.309038139723047e-16
sg6
S'62.png'
p602
sg8
(lp603
S'\xa5\xa6 u'
p604
asg13
(lp605
S'chemistry'
p606
asg16
F0.0
sg17
F1503759908.733
sg19
(lp607
(lp608
F1503759908.733
ag601
aF0.0
aasbsI63
(imyfunction
mondai
p609
(dp610
g3
S'2017-08-27 00:13:58'
p611
sg5
F2.3232480888752924e-16
sg6
S'63.png'
p612
sg8
(lp613
sg13
(lp614
S'chemistry'
p615
asg16
F0.0
sg17
F1503760438.814
sg19
(lp616
(lp617
F1503760438.814
ag611
aF0.0
aasbsI64
(imyfunction
mondai
p618
(dp619
g3
S'2017-08-27 00:27:17'
p620
sg5
F2.3448182378140823e-16
sg6
S'64.png'
p621
sg8
(lp622
sg13
(lp623
S'chemistry'
p624
asg16
F0.0
sg17
F1503761237.292
sg19
(lp625
(lp626
F1503761237.292
ag620
aF0.0
aasbsI65
(imyfunction
mondai
p627
(dp628
g3
S'2017-08-27 01:00:38'
p629
sg5
F2.3997707789313267e-16
sg6
S'65.png'
p630
sg8
(lp631
sg13
(lp632
S'chemistry'
p633
asg16
F0.0
sg17
F1503763238.777
sg19
(lp634
(lp635
F1503763238.777
ag629
aF0.0
aasbsI66
(imyfunction
mondai
p636
(dp637
g3
S'2017-08-27 01:18:25'
p638
sg5
F3.282399817977441e-07
sg6
S'66.png'
p639
sg8
(lp640
sg13
(lp641
S'chemistry'
p642
asg16
F0.8
sg17
F1503764305.612
sg19
(lp643
(lp644
F1503764305.612
ag638
aF0.8
aasbsI67
(imyfunction
mondai
p645
(dp646
g3
S'2017-08-27 04:40:16'
p647
sg5
F9.003476763997412e-09
sg6
S'67.png'
p648
sg8
(lp649
sg13
(lp650
S'chemistry'
p651
asg16
F0.6
sg17
F1503776416.902
sg19
(lp652
(lp653
F1503776416.902
ag647
aF0.6
aasbsI68
(imyfunction
mondai
p654
(dp655
g3
S'2017-08-27 05:25:58'
p656
sg5
F2.8853011442129253e-16
sg6
S'68.png'
p657
sg8
(lp658
sg13
(lp659
S'chemistry'
p660
asg16
F0.0
sg17
F1503779158.5
sg19
(lp661
(lp662
F1503779158.5
ag656
aF0.0
aasbsI69
(imyfunction
mondai
p663
(dp664
g3
S'2017-08-27 06:56:25'
p665
sg5
F3.0723378999769537e-16
sg6
S'69.png'
p666
sg8
(lp667
sg13
(lp668
S'chemistry'
p669
asg16
F0.0
sg17
F1503784585.243
sg19
(lp670
(lp671
F1503784585.243
ag665
aF0.0
aasbsI70
(imyfunction
mondai
p672
(dp673
g3
S'2017-08-28 06:45:11'
p674
sg5
F8.286571702216859e-16
sg6
S'70.png'
p675
sg8
(lp676
sg13
(lp677
S'chemistry'
p678
asg16
F0.0
sg17
F1503870311.11
sg18
I2
sg19
(lp679
(lp680
F1503870311.11
ag674
aF0.0
aasbsI71
(imyfunction
mondai
p681
(dp682
g3
S'2017-08-28 09:17:16'
p683
sg5
F9.209644024575741e-16
sg6
S'71.jpg'
p684
sg8
(lp685
sg13
(lp686
S'chemistry'
p687
asg16
F0.0
sg17
F1503879436.234
sg18
I1
sg19
(lp688
(lp689
F1503879436.234
ag683
aF0.0
aasbsI72
(imyfunction
mondai
p690
(dp691
g3
S'2017-08-29 23:14:02'
p692
sg5
F4.476107789249069e-15
sg6
S'72.png'
p693
sg8
(lp694
sg13
(lp695
S'chemistry'
p696
asg16
F0.0
sg17
F1504016042.217
sg18
I2
sg19
(lp697
(lp698
F1504016042.217
ag692
aF0.0
aasbsI73
(imyfunction
mondai
p699
(dp700
g3
S'2017-08-29 23:22:17'
p701
sg5
F4.501839982251124e-15
sg6
S'73.png'
p702
sg8
(lp703
sg13
(lp704
S'chemistry'
p705
asg16
F0.0
sg17
F1504016537.49
sg18
I1
sg19
(lp706
(lp707
F1504016537.49
ag701
aF0.0
aasbsI74
(imyfunction
mondai
p708
(dp709
g3
S'2017-08-29 23:46:42'
p710
sg5
F4.578828331557701e-15
sg6
S'74.jpg'
p711
sg8
(lp712
sg13
(lp713
S'chemistry'
p714
asg16
F0.0
sg17
F1504018002.57
sg18
I1
sg19
(lp715
(lp716
F1504018002.57
ag710
aF0.0
aasbsI75
(imyfunction
mondai
p717
(dp718
g3
S'2017-08-30 00:25:46'
p719
sg5
F4.704742197552698e-15
sg6
S'75.jpg'
p720
sg8
(lp721
sg13
(lp722
S'chemistry'
p723
asg16
F0.0
sg17
F1504020346.415
sg18
I2
sg19
(lp724
(lp725
F1504020346.415
ag719
aF0.0
aasbsI76
(imyfunction
mondai
p726
(dp727
g3
S'2017-09-01 14:08:18'
p728
sg5
F6.154559637815859e-14
sg6
S'76.png'
p729
sg8
(lp730
sg13
(lp731
S'chemistry'
p732
asg16
F0.0
sg17
F1504242498.728
sg18
I1
sg19
(lp733
(lp734
F1504242498.728
ag728
aF0.0
aasbsI77
(imyfunction
mondai
p735
(dp736
g3
S'2017-09-01 14:13:56'
p737
sg5
F6.178702324145179e-14
sg6
S'77.jpg'
p738
sg8
(lp739
sg13
(lp740
S'chemistry'
p741
asg16
F0.0
sg17
F1504242836.989
sg18
I1
sg19
(lp742
(lp743
F1504242836.989
ag737
aF0.0
aasbsI78
(imyfunction
mondai
p744
(dp745
g3
S'2017-09-01 14:25:11'
p746
sg5
F6.22709488237852e-14
sg6
S'78.png'
p747
sg8
(lp748
sg13
(lp749
S'chemistry'
p750
asg16
F0.0
sg17
F1504243511.051
sg18
I2
sg19
(lp751
(lp752
F1504243511.051
ag746
aF0.0
aasbsI79
(imyfunction
mondai
p753
(dp754
g3
S'2017-09-01 14:49:00'
p755
sg5
F6.330993762095979e-14
sg6
S'79.jpg'
p756
sg8
(lp757
sg13
(lp758
S'chemistry'
p759
asg16
F0.0
sg17
F1504244940.738
sg18
I1
sg19
(lp760
(lp761
F1504244940.738
ag755
aF0.0
aasbsI80
(imyfunction
mondai
p762
(dp763
g3
S'2017-09-01 15:17:38'
p764
sg5
F6.458091473712323e-14
sg6
S'80.jpg'
p765
sg8
(lp766
sg13
(lp767
S'chemistry'
p768
asg16
F0.0
sg17
F1504246658.078
sg18
I1
sg19
(lp769
(lp770
F1504246658.078
ag764
aF0.0
aasbsI81
(imyfunction
mondai
p771
(dp772
g3
S'2017-09-01 23:25:09'
p773
sg5
F9.060223410695347e-14
sg6
S'81.png'
p774
sg8
(lp775
sg13
(lp776
S'chemistry'
p777
asg16
F0.0
sg17
F1504275909.657
sg18
I1
sg19
(lp778
(lp779
F1504275909.657
ag773
aF0.0
aasbsI82
(imyfunction
mondai
p780
(dp781
g3
S'2017-09-01 23:57:57'
p782
sg5
F9.268943289897194e-14
sg6
S'82.png'
p783
sg8
(lp784
sg13
(lp785
S'chemistry'
p786
asg16
F0.0
sg17
F1504277877.469
sg18
I1
sg19
(lp787
(lp788
F1504277877.469
ag782
aF0.0
aasbsI83
(imyfunction
mondai
p789
(dp790
g3
S'2017-09-02 00:09:04'
p791
sg5
F9.340831155574818e-14
sg6
S'83.png'
p792
sg8
(lp793
sg13
(lp794
S'chemistry'
p795
asg16
F0.0
sg17
F1504278544.983
sg18
I1
sg19
(lp796
(lp797
F1504278544.983
ag791
aF0.0
aasbsI84
(imyfunction
mondai
p798
(dp799
g3
S'2017-09-02 01:49:47'
p800
sg5
F3.125244542657231e-08
sg6
S'84.png'
p801
sg8
(lp802
sg13
(lp803
S'chemistry'
p804
asg16
F0.5
sg17
F1504284587.342
sg18
I4
sg19
(lp805
(lp806
F1504284587.342
ag800
aF0.5
aasbsI85
(imyfunction
mondai
p807
(dp808
g3
S'2017-09-02 02:30:36'
p809
sg5
F3.1768224777133183e-08
sg6
S'85.jpg'
p810
sg8
(lp811
sg13
(lp812
S'chemistry'
p813
asg16
F0.5
sg17
F1504287036.941
sg18
I2
sg19
(lp814
(lp815
F1504287036.941
ag809
aF0.5
aasbsI86
(imyfunction
mondai
p816
(dp817
g3
S'2017-09-02 02:45:11'
p818
sg5
F4.598974821122543e-10
sg6
S'86.png'
p819
sg8
(lp820
sg13
(lp821
S'chemistry'
p822
asg16
F0.3
sg17
F1504287911.136
sg18
I6
sg19
(lp823
(lp824
F1504287911.136
ag818
aF0.3
aasbsI87
(imyfunction
mondai
p825
(dp826
g3
S'2017-09-02 03:03:54'
p827
sg5
F1.0546632863653672e-13
sg6
S'87.png'
p828
sg8
(lp829
sg13
(lp830
S'chemistry'
p831
asg16
F0.0
sg17
F1504289034.929
sg18
I1
sg19
(lp832
(lp833
F1504289034.929
ag827
aF0.0
aasbsI88
(imyfunction
mondai
p834
(dp835
g3
S'2017-09-02 04:43:58'
p836
sg5
F1.1305493080223945e-13
sg6
S'88.png'
p837
sg8
(lp838
sg13
(lp839
S'chemistry'
p840
asg16
F0.0
sg17
F1504295038.18
sg18
I2
sg19
(lp841
(lp842
F1504295038.18
ag836
aF0.0
aasbsI89
(imyfunction
mondai
p843
(dp844
g3
S'2017-09-02 12:35:46'
p845
sg5
F1.568857985029737e-13
sg6
S'89.jpg'
p846
sg8
(lp847
sg13
(lp848
S'chemistry'
p849
asg16
F0.0
sg17
F1504323346.65
sg18
I3
sg19
(lp850
(lp851
F1504323346.65
ag845
aF0.0
aasbsI90
(imyfunction
mondai
p852
(dp853
g3
S'2017-09-02 12:41:26'
p854
sg5
F1.5750392829968292e-13
sg6
S'90.png'
p855
sg8
(lp856
sg13
(lp857
S'chemistry'
p858
asg16
F0.0
sg17
F1504323686.397
sg18
I1
sg19
(lp859
(lp860
F1504323686.397
ag854
aF0.0
aasbsI91
(imyfunction
mondai
p861
(dp862
g3
S'2017-09-02 12:50:04'
p863
sg5
F1.5845197417799313e-13
sg6
S'91.jpg'
p864
sg8
(lp865
sg13
(lp866
S'chemistry'
p867
asg16
F0.0
sg17
F1504324204.896
sg18
I1
sg19
(lp868
(lp869
F1504324204.896
ag863
aF0.0
aasbsI92
(imyfunction
mondai
p870
(dp871
g3
S'2017-09-02 13:10:53'
p872
sg5
F1.6075779051115674e-13
sg6
S'92.png'
p873
sg8
(lp874
sg13
(lp875
S'chemistry'
p876
asg16
F0.0
sg17
F1504325453.141
sg18
I1
sg19
(lp877
(lp878
F1504325453.141
ag872
aF0.0
aasbsI93
(imyfunction
mondai
p879
(dp880
g3
S'2017-09-02 13:45:06'
p881
sg5
F1.6462501655915215e-13
sg6
S'93.png'
p882
sg8
(lp883
sg13
(lp884
S'chemistry'
p885
asg16
F0.0
sg17
F1504327506.993
sg18
I1
sg19
(lp886
(lp887
F1504327506.993
ag881
aF0.0
aasbsI94
(imyfunction
mondai
p888
(dp889
g3
S'2017-09-02 14:26:45'
p890
sg5
F1.6945580166002372e-13
sg6
S'94.jpg'
p891
sg8
(lp892
sg13
(lp893
S'chemistry'
p894
asg16
F0.0
sg17
F1504330005.843
sg18
I3
sg19
(lp895
(lp896
F1504330005.843
ag890
aF0.0
aasbsI95
(imyfunction
mondai
p897
(dp898
g3
S'2017-09-02 14:36:18'
p899
sg5
F1.7058169949388311e-13
sg6
S'95.png'
p900
sg8
(lp901
sg13
(lp902
S'chemistry'
p903
asg16
F0.0
sg17
F1504330578.003
sg18
I1
sg19
(lp904
(lp905
F1504330578.003
ag899
aF0.0
aasbsI96
(imyfunction
mondai
p906
(dp907
g3
S'2017-09-02 14:51:21'
p908
sg5
F2.0036276698902876e-10
sg6
S'96.png'
p909
sg8
(lp910
sg13
(lp911
S'chemistry'
p912
asg16
F0.25
sg17
F1504331481.399
sg18
I4
sg19
(lp913
(lp914
F1504331481.399
ag908
aF0.25
aasbsI97
(imyfunction
mondai
p915
(dp916
g3
S'2017-09-02 15:08:34'
p917
sg5
F1.7444803308088391e-13
sg6
S'97.png'
p918
sg8
(lp919
sg13
(lp920
S'chemistry'
p921
asg16
F0.0
sg17
F1504332514.446
sg18
I1
sg19
(lp922
(lp923
F1504332514.446
ag917
aF0.0
aasbsI98
(imyfunction
mondai
p924
(dp925
g3
S'2017-09-05 02:26:32'
p926
sg5
F1.3216381745344043e-09
sg6
S'98.jpeg'
p927
sg8
(lp928
sg13
(lp929
S'physical'
p930
asg16
F0.25
sg17
F1504545992.782
sg18
I4
sg19
(lp931
(lp932
F1504545992.782
ag926
aF0.25
aasbsI99
(imyfunction
mondai
p933
(dp934
g3
S'2017-09-05 03:10:13'
p935
sg5
F2.1276497767808504e-12
sg6
S'99.jpeg'
p936
sg8
(lp937
sg13
(lp938
S'physical'
p939
asg16
F0.0
sg17
F1504548613.492
sg18
I2
sg19
(lp940
(lp941
F1504548613.492
ag935
aF0.0
aasbsI100
(imyfunction
mondai
p942
(dp943
g3
S'2017-09-05 03:23:51'
p944
sg5
F1.834354347692801e-07
sg6
S'100.jpeg'
p945
sg8
(lp946
sg13
(lp947
S'physical'
p948
asg16
F0.5
sg17
F1504549431.259
sg18
I2
sg19
(lp949
(lp950
F1504549431.259
ag944
aF0.5
aasbsI101
(imyfunction
mondai
p951
(dp952
g3
S'2017-09-05 05:45:16'
p953
sg5
F2.3695211737341593e-12
sg6
S'101.jpeg'
p954
sg8
(lp955
sg13
(lp956
S'physical'
p957
asg16
F0.0
sg17
F1504557916.173
sg18
I3
sg19
(lp958
(lp959
F1504557916.173
ag953
aF0.0
aasbsI102
(imyfunction
mondai
p960
(dp961
g3
S'2017-09-05 06:53:18'
p962
sg5
F2.484160034563793e-12
sg6
S'102.jpeg'
p963
sg8
(lp964
sg13
(lp965
S'physical'
p966
asg16
F0.0
sg17
F1504561998.287
sg18
I1
sg19
(lp967
(lp968
F1504561998.287
ag962
aF0.0
aasbsI103
(imyfunction
mondai
p969
(dp970
g3
S'2017-09-05 08:02:10'
p971
sg5
F2.6058514458359036e-12
sg6
S'103.png'
p972
sg8
(lp973
sg13
(lp974
S'physical'
p975
asg16
F0.0
sg17
F1504566130.357
sg18
I3
sg19
(lp976
(lp977
F1504566130.357
ag971
aF0.0
aasbsI104
(imyfunction
mondai
p978
(dp979
g3
S'2017-09-05 11:45:10'
p980
sg5
F3.0423216686738762e-12
sg6
S'104.jpg'
p981
sg8
(lp982
sg13
(lp983
S'physical'
p984
asg16
F0.0
sg17
F1504579510.387
sg18
I1
sg19
(lp985
(lp986
F1504579510.387
ag980
aF0.0
aasbsI105
(imyfunction
mondai
p987
(dp988
g3
S'2017-09-23 10:18:16'
p989
sg5
F0.00018806109604189847
sg6
S'105.jpg'
p990
sg8
(lp991
sg13
(lp992
S'physical'
p993
asg16
F0.0
sg17
F1506129496.71
sg18
I4
sg19
(lp994
(lp995
F1506129496.71
ag989
aF0.0
aasbsI106
(imyfunction
mondai
p996
(dp997
g3
S'2017-09-23 11:11:53'
p998
sg5
F0.00019519469618116902
sg6
S'106.jpg'
p999
sg8
(lp1000
sg13
(lp1001
S'physical'
p1002
asg16
F0.0
sg17
F1506132713.435
sg18
I2
sg19
(lp1003
(lp1004
F1506132713.435
ag998
aF0.0
aasbsI107
(imyfunction
mondai
p1005
(dp1006
g3
S'2017-09-23 11:39:38'
p1007
sg5
F0.0001989932132756461
sg6
S'107.jpg'
p1008
sg8
(lp1009
sg13
(lp1010
S'physical'
p1011
asg16
F0.0
sg17
F1506134378.641
sg18
I2
sg19
(lp1012
(lp1013
F1506134378.641
ag1007
aF0.0
aasbsI108
(imyfunction
mondai
p1014
(dp1015
g3
S'2017-09-23 11:52:35'
p1016
sg5
F0.00020078936555247467
sg6
S'108.jpg'
p1017
sg8
(lp1018
sg13
(lp1019
S'physical'
p1020
asg16
F0.0
sg17
F1506135155.006
sg18
I1
sg19
(lp1021
(lp1022
F1506135155.006
ag1016
aF0.0
aasbsI109
(imyfunction
mondai
p1023
(dp1024
g3
S'2017-09-23 12:33:50'
p1025
sg5
F0.00020662542606288473
sg6
S'109.png'
p1026
sg8
(lp1027
sg13
(lp1028
S'physical'
p1029
asg16
F0.0
sg17
F1506137630.469
sg18
I2
sg19
(lp1030
(lp1031
F1506137630.469
ag1025
aF0.0
aasbsI110
(imyfunction
mondai
p1032
(dp1033
g3
S'2017-09-23 12:51:11'
p1034
sg5
F0.00020913092443003523
sg6
S'110.jpg'
p1035
sg8
(lp1036
sg13
(lp1037
S'physical'
p1038
asg16
F0.0
sg17
F1506138671.837
sg18
I2
sg19
(lp1039
(lp1040
F1506138671.837
ag1034
aF0.0
aasbsI111
(imyfunction
mondai
p1041
(dp1042
g3
S'2017-09-23 15:11:03'
p1043
sg5
F0.00023046327150695977
sg6
S'111.jpg'
p1044
sg8
(lp1045
sg13
(lp1046
S'physical'
p1047
asg16
F0.0
sg17
F1506147063.957
sg18
I2
sg19
(lp1048
(lp1049
F1506147063.957
ag1043
aF0.0
aasbsI112
(imyfunction
mondai
p1050
(dp1051
g3
S'2017-09-23 15:21:22'
p1052
sg5
F0.00797519860394144
sg6
S'112.png'
p1053
sg8
(lp1054
sg13
(lp1055
S'physical'
p1056
asg16
F0.5
sg17
F1506147682.265
sg18
I4
sg19
(lp1057
(lp1058
F1506147682.265
ag1052
aF0.5
aasbsI113
(imyfunction
mondai
p1059
(dp1060
g3
S'2017-09-23 15:34:50'
p1061
sg5
F0.00023429894390519104
sg6
S'113.png'
p1062
sg8
(lp1063
sg13
(lp1064
S'physical'
p1065
asg16
F0.0
sg17
F1506148490.104
sg18
I1
sg19
(lp1066
(lp1067
F1506148490.104
ag1061
aF0.0
aasbsI114
(imyfunction
mondai
p1068
(dp1069
g3
S'2017-09-23 17:33:58'
p1070
sg5
F0.00025450818589542505
sg6
S'114.jpg'
p1071
sg8
(lp1072
sg13
(lp1073
S'physical'
p1074
asg16
F0.0
sg17
F1506155638.422
sg18
I1
sg19
(lp1075
(lp1076
F1506155638.422
ag1070
aF0.0
aasbsI115
(imyfunction
mondai
p1077
(dp1078
g3
S'2017-09-23 18:07:32'
p1079
sg5
F0.000260510450362904
sg6
S'115.jpg'
p1080
sg8
(lp1081
sg13
(lp1082
S'physical'
p1083
asg16
F0.0
sg17
F1506157652.404
sg18
I2
sg19
(lp1084
(lp1085
F1506157652.404
ag1079
aF0.0
aasbsI116
(imyfunction
mondai
p1086
(dp1087
g3
S'2017-09-23 18:34:12'
p1088
sg5
F0.0002653797040532589
sg6
S'116.jpg'
p1089
sg8
(lp1090
sg13
(lp1091
S'physical'
p1092
asg16
F0.0
sg17
F1506159252.417
sg18
I1
sg19
(lp1093
(lp1094
F1506159252.417
ag1088
aF0.0
aasbsI117
(imyfunction
mondai
p1095
(dp1096
g3
S'2017-09-23 19:23:54'
p1097
sg5
F0.00027469899011088974
sg6
S'117.png'
p1098
sg8
(lp1099
sg13
(lp1100
S'physical'
p1101
asg16
F0.0
sg17
F1506162234.45
sg18
I2
sg19
(lp1102
(lp1103
F1506162234.45
ag1097
aF0.0
aasbsI118
(imyfunction
mondai
p1104
(dp1105
g3
S'2017-09-25 08:10:08'
p1106
sg5
F0.0012712783291180983
sg6
S'118.jpg'
p1107
sg8
(lp1108
sg13
(lp1109
S'physical'
p1110
asg16
F0.0
sg17
F1506294608.09
sg18
I1
sg19
(lp1111
(lp1112
F1506294608.09
ag1106
aF0.0
aasbsI119
(imyfunction
mondai
p1113
(dp1114
g3
S'2017-09-25 08:31:45'
p1115
sg5
F0.0012905163935261748
sg6
S'119.jpg'
p1116
sg8
(lp1117
sg13
(lp1118
S'physical'
p1119
asg16
F0.0
sg17
F1506295905.774
sg18
I1
sg19
(lp1120
(lp1121
F1506295905.774
ag1115
aF0.0
aasbsI120
(imyfunction
mondai
p1122
(dp1123
g3
S'2017-09-25 17:16:58'
p1124
sg5
F0.0018585048203770176
sg6
S'120.jpg'
p1125
sg8
(lp1126
sg13
(lp1127
S'physical'
p1128
asg16
F0.0
sg17
F1506327418.434
sg18
I2
sg19
(lp1129
(lp1130
F1506327418.434
ag1124
aF0.0
aasbsI121
(imyfunction
mondai
p1131
(dp1132
g3
S'2017-09-25 18:41:13'
p1133
sg5
F0.0019704819567489635
sg6
S'121.jpg'
p1134
sg8
(lp1135
sg13
(lp1136
S'physical'
p1137
asg16
F0.0
sg17
F1506332473.34
sg18
I2
sg19
(lp1138
(lp1139
F1506332473.34
ag1133
aF0.0
aasbsI122
(imyfunction
mondai
p1140
(dp1141
g3
S'2017-09-25 19:07:57'
p1142
sg5
F0.0020073986677000906
sg6
S'122.jpg'
p1143
sg8
(lp1144
sg13
(lp1145
S'physical'
p1146
asg16
F0.0
sg17
F1506334077.056
sg18
I3
sg19
(lp1147
(lp1148
F1506334077.056
ag1142
aF0.0
aasbsI123
(imyfunction
mondai
p1149
(dp1150
g3
S'2017-09-25 19:31:39'
p1151
sg5
F0.0020407128189351667
sg6
S'123.jpg'
p1152
sg8
(lp1153
sg13
(lp1154
S'physical'
p1155
asg16
F0.0
sg17
F1506335499.155
sg18
I2
sg19
(lp1156
(lp1157
F1506335499.155
ag1151
aF0.0
aasbsI124
(imyfunction
mondai
p1158
(dp1159
g3
S'2017-09-26 05:15:57'
p1160
sg5
F0.0030619908998797247
sg6
S'124.jpg'
p1161
sg8
(lp1162
sg13
(lp1163
S'physical'
p1164
asg16
F0.0
sg17
F1506370557.351
sg18
I1
sg19
(lp1165
(lp1166
F1506370557.351
ag1160
aF0.0
aasbsI125
(imyfunction
mondai
p1167
(dp1168
g3
S'2017-09-26 05:49:46'
p1169
sg5
F0.0031347408094625382
sg6
S'125.jpg'
p1170
sg8
(lp1171
sg13
(lp1172
S'physical'
p1173
asg16
F0.0
sg17
F1506372586.124
sg18
I1
sg19
(lp1174
(lp1175
F1506372586.124
ag1169
aF0.0
aasbsI126
(imyfunction
mondai
p1176
(dp1177
g3
S'2017-09-26 06:12:43'
p1178
sg5
F0.003185118124855059
sg6
S'126.jpg'
p1179
sg8
(lp1180
sg13
(lp1181
S'physical'
p1182
asg16
F0.0
sg17
F1506373963.589
sg18
I2
sg19
(lp1183
(lp1184
F1506373963.589
ag1178
aF0.0
aasbsI127
(imyfunction
mondai
p1185
(dp1186
g3
S'2017-09-26 22:42:13'
p1187
sg5
F0.006332129531288955
sg6
S'127.jpg'
p1188
sg8
(lp1189
sg13
(lp1190
S'physical'
p1191
asg16
F0.0
sg17
F1506433333.109
sg18
I1
sg19
(lp1192
(lp1193
F1506433333.109
ag1187
aF0.0
aasbsI128
(imyfunction
mondai
p1194
(dp1195
g3
S'2017-09-26 22:43:06'
p1196
sg5
F0.0063360370154030825
sg6
S'128.jpg'
p1197
sg8
(lp1198
sg13
(lp1199
S'physical'
p1200
asg16
F0.0
sg17
F1506433386.409
sg18
I1
sg19
(lp1201
(lp1202
F1506433386.409
ag1196
aF0.0
aasbsI129
(imyfunction
mondai
p1203
(dp1204
g3
S'2017-09-27 05:41:54'
p1205
sg5
F0.046227131166141855
sg6
S'129.png'
p1206
sg8
(lp1207
sg13
(lp1208
S'physical'
p1209
asg16
F0.4
sg17
F1506458514.65
sg18
I5
sg19
(lp1210
(lp1211
F1506458514.65
ag1205
aF0.4
aasbsI130
(imyfunction
mondai
p1212
(dp1213
g3
S'2017-09-27 06:04:10'
p1214
sg5
F0.008606772452094742
sg6
S'130.jpg'
p1215
sg8
(lp1216
sg13
(lp1217
S'physical'
p1218
asg16
F0.0
sg17
F1506459850.374
sg18
I2
sg19
(lp1219
(lp1220
F1506459850.374
ag1214
aF0.0
aasbsI131
(imyfunction
mondai
p1221
(dp1222
g3
S'2017-09-27 06:51:31'
p1223
sg5
F0.00889454247102797
sg6
S'131.jpg'
p1224
sg8
(lp1225
sg13
(lp1226
S'physical'
p1227
asg16
F0.0
sg17
F1506462691.94
sg18
I2
sg19
(lp1228
(lp1229
F1506462691.94
ag1223
aF0.0
aasbsI132
(imyfunction
mondai
p1230
(dp1231
g3
S'2017-09-27 18:17:18'
p1232
sg5
F0.014320125358159708
sg6
S'132.jpg'
p1233
sg8
(lp1234
sg13
(lp1235
S'physical'
p1236
asg16
F0.0
sg17
F1506503838.042
sg18
I3
sg19
(lp1237
(lp1238
F1506503838.042
ag1232
aF0.0
aasbsI133
(imyfunction
mondai
p1239
(dp1240
g3
S'2017-09-27 18:49:29'
p1241
sg5
F0.014643859837544152
sg6
S'133.jpg'
p1242
sg8
(lp1243
sg13
(lp1244
S'physical'
p1245
asg16
F0.0
sg17
F1506505769.532
sg18
I3
sg19
(lp1246
(lp1247
F1506505769.532
ag1241
aF0.0
aasbsI134
(imyfunction
mondai
p1248
(dp1249
g3
S'2017-09-27 19:31:04'
p1250
sg5
F0.015072958931213692
sg6
S'134.jpg'
p1251
sg8
(lp1252
sg13
(lp1253
S'physical'
p1254
asg16
F0.0
sg17
F1506508264.869
sg18
I2
sg19
(lp1255
(lp1256
F1506508264.869
ag1250
aF0.0
aasbsI135
(imyfunction
mondai
p1257
(dp1258
g3
S'2017-09-27 19:51:49'
p1259
sg5
F0.015291696112747138
sg6
S'135.jpg'
p1260
sg8
(lp1261
sg13
(lp1262
S'physical'
p1263
asg16
F0.0
sg17
F1506509509.686
sg18
I3
sg19
(lp1264
(lp1265
F1506509509.686
ag1259
aF0.0
aasbsI136
(imyfunction
mondai
p1266
(dp1267
g3
S'2017-09-27 21:50:01'
p1268
sg5
F0.016599721841793685
sg6
S'136.jpg'
p1269
sg8
(lp1270
sg13
(lp1271
S'physical'
p1272
asg16
F0.0
sg17
F1506516601.052
sg18
I2
sg19
(lp1273
(lp1274
F1506516601.052
ag1268
aF0.0
aasbsI137
(imyfunction
mondai
p1275
(dp1276
g3
S'2017-09-27 22:11:51'
p1277
sg5
F0.016853404152366278
sg6
S'137.jpg'
p1278
sg8
(lp1279
sg13
(lp1280
S'physical'
p1281
asg16
F0.0
sg17
F1506517911.457
sg18
I1
sg19
(lp1282
(lp1283
F1506517911.457
ag1277
aF0.0
aasbsI138
(imyfunction
mondai
p1284
(dp1285
g3
S'2017-09-30 12:05:52'
p1286
sg5
F0.22223360389609423
sg6
S'138.jpeg'
p1287
sg8
(lp1288
sg13
(lp1289
S'math'
p1290
asg16
F0.0
sg17
F1506740752.301
sg18
I1
sg19
(lp1291
(lp1292
F1506740752.301
ag1286
aF0.0
aasbsI139
(imyfunction
mondai
p1293
(dp1294
g3
S'2017-09-30 12:19:12'
p1295
sg5
F0.22430138982317027
sg6
S'139.jpeg'
p1296
sg8
(lp1297
sg13
(lp1298
S'math'
p1299
asg16
F0.0
sg17
F1506741552.498
sg18
I1
sg19
(lp1300
(lp1301
F1506741552.498
ag1295
aF0.0
aasbsI140
(imyfunction
mondai
p1302
(dp1303
g3
S'2017-09-30 14:27:38'
p1304
sg5
F0.2452268482392752
sg6
S'140.jpeg'
p1305
sg8
(lp1306
sg13
(lp1307
S'math'
p1308
asg16
F0.0
sg17
F1506749258.778
sg18
I2
sg19
(lp1309
(lp1310
F1506749258.778
ag1304
aF0.0
aasbsI141
(imyfunction
mondai
p1311
(dp1312
g3
S'2017-09-30 14:48:36'
p1313
sg5
F0.2488234883040775
sg6
S'141.jpeg'
p1314
sg8
(lp1315
sg13
(lp1316
S'math'
p1317
asg16
F0.0
sg17
F1506750516.768
sg18
I1
sg19
(lp1318
(lp1319
F1506750516.768
ag1313
aF0.0
aasbsI142
(imyfunction
mondai
p1320
(dp1321
g3
S'2017-09-30 15:07:10'
p1322
sg5
F0.25205120420205007
sg6
S'142.jpeg'
p1323
sg8
(lp1324
sg13
(lp1325
S'math'
p1326
asg16
F0.0
sg17
F1506751630.334
sg18
I3
sg19
(lp1327
(lp1328
F1506751630.334
ag1322
aF0.0
aasbsI143
(imyfunction
mondai
p1329
(dp1330
g3
S'2017-09-30 15:37:04'
p1331
sg5
F0.2573414070630308
sg6
S'143.jpeg'
p1332
sg8
(lp1333
sg13
(lp1334
S'math'
p1335
asg16
F0.0
sg17
F1506753424.981
sg18
I1
sg19
(lp1336
(lp1337
F1506753424.981
ag1331
aF0.0
aasbsI144
(imyfunction
mondai
p1338
(dp1339
g3
S'2017-09-30 16:24:05'
p1340
sg5
F0.2658803177742928
sg6
S'144.jpeg'
p1341
sg8
(lp1342
sg13
(lp1343
S'math'
p1344
asg16
F0.0
sg17
F1506756245.305
sg18
I1
sg19
(lp1345
(lp1346
F1506756245.305
ag1340
aF0.0
aasbsI145
(imyfunction
mondai
p1347
(dp1348
g3
S'2017-09-30 16:48:01'
p1349
sg5
F0.2703380672409914
sg6
S'145.jpeg'
p1350
sg8
(lp1351
sg13
(lp1352
S'math'
p1353
asg16
F0.0
sg17
F1506757681.878
sg18
I2
sg19
(lp1354
(lp1355
F1506757681.878
ag1349
aF0.0
aasbs.