(dp0
I1
(imyfunction
mondai
p1
(dp2
S'wordtime'
p3
S'2017-10-05 19:17:13'
p4
sS'remember'
p5
F0.0025915360964217267
sS'imgnum'
p6
S'1.png'
p7
sS'memo'
p8
(lp9
(lp10
F1498515733.947
aS'2017-06-27 07:22:13'
p11
aS'answer 3'
p12
aasS'tag'
p13
(lp14
S'chemistry'
p15
asS'understand'
p16
F0.9993169534109716
sS'lasttime'
p17
F1507198633.675
sS'qusnum'
p18
I1
sS'history'
p19
(lp20
(lp21
F1498515733.947
ag11
aI0
aa(lp22
F1499145499.01
aS'2017-07-04 14:18:19'
p23
aI1
aa(lp24
F1507198633.675
ag4
aF0.0
aasbsI2
(imyfunction
mondai
p25
(dp26
g3
S'2017-10-01 21:56:41'
p27
sg5
F0.0007065868305320813
sg6
S'2.jpg'
p28
sg8
(lp29
S'answer is 3'
p30
aS'0'
p31
asg13
(lp32
g15
asg16
F0.9990451863019874
sg17
F1506862601.36
sg19
(lp33
(lp34
F1498545603.881
aS'2017-06-27 15:40:03'
p35
aI0
aa(lp36
F1499146428.99
aS'2017-07-04 14:33:48'
p37
aI0
aa(lp38
F1506862601.36
ag27
aF1.0
aasbsI3
(imyfunction
mondai
p39
(dp40
g3
S'2017-10-06 11:30:14'
p41
sg5
F0.0032607207105925153
sg6
S'3.jpg'
p42
sg8
(lp43
S'answer is 5'
p44
asg13
(lp45
g15
asg16
F0.9999994937209005
sg17
F1507257014.144
sg18
I1
sg19
(lp46
(lp47
F1498545806.078
aS'2017-06-27 15:43:26'
p48
aI0
aa(lp49
F1499798275.889
aS'2017-07-12 03:37:55'
p50
aI1
aa(lp51
F1507257014.144
ag41
aF0.0
aasbsI4
(imyfunction
mondai
p52
(dp53
g3
S'2017-10-06 11:32:06'
p54
sg5
F0.003262138070896298
sg6
S'4.jpg'
p55
sg8
(lp56
S'answer is 2'
p57
asg13
(lp58
g15
asg16
F0.9999994935591113
sg17
F1507257126.788
sg18
I1
sg19
(lp59
(lp60
F1498545978.31
aS'2017-06-27 15:46:18'
p61
aI0
aa(lp62
F1499798420.515
aS'2017-07-12 03:40:20'
p63
aI1
aa(lp64
F1507257126.788
ag54
aF0.0
aasbsI5
(imyfunction
mondai
p65
(dp66
g3
S'2017-10-06 11:32:40'
p67
sg5
F0.14831536792913141
sg6
S'5.jpg'
p68
sg8
(lp69
S'answer is 3'
p70
asg13
(lp71
g15
asg16
F1.9999994359480904
sg17
F1507257160.377
sg18
I1
sg19
(lp72
(lp73
F1498555372.608
aS'2017-06-27 18:22:52'
p74
aI0
aa(lp75
F1499798506.186
aS'2017-07-12 03:41:46'
p76
aI1
aa(lp77
F1507257160.377
ag67
aF1.0
aasbsI6
(imyfunction
mondai
p78
(dp79
g3
S'2017-10-06 11:35:03'
p80
sg5
F0.14834267467965906
sg6
S'6.jpg'
p81
sg8
(lp82
S'answer is 5'
p83
asg13
(lp84
g15
asg16
F1.999999434604304
sg17
F1507257303.532
sg18
I1
sg19
(lp85
(lp86
F1498555731.783
aS'2017-06-27 18:28:51'
p87
aI0
aa(lp88
F1499798659.768
aS'2017-07-12 03:44:19'
p89
aI1
aa(lp90
F1507257303.532
ag80
aF1.0
aasbsI7
(imyfunction
mondai
p91
(dp92
g3
S'2017-10-06 11:36:30'
p93
sg5
F0.14835918508151033
sg6
S'7.jpg'
p94
sg8
(lp95
S'answer is 1'
p96
asg13
(lp97
g15
asg16
F1.9999989826526265
sg17
F1507257390.81
sg18
I1
sg19
(lp98
(lp99
F1498606533.242
aS'2017-06-28 08:35:33'
p100
aI0
aa(lp101
F1499798707.42
aS'2017-07-12 03:45:07'
p102
aI1
aa(lp103
F1507257390.81
ag93
aF1.0
aasbsI8
(imyfunction
mondai
p104
(dp105
g3
S'2017-10-06 11:37:55'
p106
sg5
F0.14837523823583407
sg6
S'8.jpg'
p107
sg8
(lp108
S'answer is 4'
p109
asg13
(lp110
g15
asg16
F1.9999988380450375
sg17
F1507257475.181
sg18
I1
sg19
(lp111
(lp112
F1498618047.081
aS'2017-06-28 11:47:27'
p113
aI0
aa(lp114
F1499798738.24
aS'2017-07-12 03:45:38'
p115
aI1
aa(lp116
F1507257475.181
ag106
aF1.0
aasbsI9
(imyfunction
mondai
p117
(dp118
g3
S'2017-10-01 21:43:25'
p119
sg5
F0.0007098001636523881
sg6
S'9.jpg'
p120
sg8
(lp121
S'answer is 2'
p122
asg13
(lp123
g15
asg16
F1.0
sg17
F1506861805.88
sg19
(lp124
(lp125
F1498631047.991
aS'2017-06-28 15:24:07'
p126
aI0
aa(lp127
F1506861805.88
ag119
aF1.0
aasbsI10
(imyfunction
mondai
p128
(dp129
g3
S'2017-10-01 21:52:59'
p130
sg5
F0.0007113737128237741
sg6
S'10.jpg'
p131
sg8
(lp132
S'answer is 4'
p133
aS'0'
p134
asg13
(lp135
g15
asg16
F1.0
sg17
F1506862379.862
sg19
(lp136
(lp137
F1498631158.414
aS'2017-06-28 15:25:58'
p138
aI0
aa(lp139
F1506862379.862
ag130
aF1.0
aasbsI11
(imyfunction
mondai
p140
(dp141
g3
S'2017-10-01 22:03:45'
p142
sg5
F2.680008058622577e-05
sg6
S'11.jpg'
p143
sg8
(lp144
(lp145
F1499144054.099
aS'2017-07-04 13:54:14'
p146
aS'answer 2,3,2'
p147
aasg13
(lp148
g15
asg16
F0.66
sg17
F1506863025.03
sg19
(lp149
(lp150
F1499144054.099
ag146
aI0
aa(lp151
F1506863025.03
ag142
aF0.66
aasbsI12
(imyfunction
mondai
p152
(dp153
g3
S'2017-10-01 22:10:11'
p154
sg5
F0.0007142100653060544
sg6
S'12.jpg'
p155
sg8
(lp156
(lp157
F1499144401.683
aS'2017-07-04 14:00:01'
p158
aS'answer 3'
p159
aasg13
(lp160
g15
asg16
F1.0
sg17
F1506863411.276
sg19
(lp161
(lp162
F1499144401.683
ag158
aI0
aa(lp163
F1506863411.276
ag154
aF1.0
aasbsI13
(imyfunction
mondai
p164
(dp165
g3
S'2017-10-02 00:01:23'
p166
sg5
F0.0007835157192488403
sg6
S'13.jpg'
p167
sg8
(lp168
(lp169
F1499144716.146
aS'2017-07-04 14:05:16'
p170
aS'answer 3'
p171
aasg13
(lp172
g15
asg16
F1.0084715513436913
sg17
F1506870083.757
sg18
I1
sg19
(lp173
F1499144716.146
ag170
aI0
a(lp174
F1506870083.757
ag166
aF1.0
aasbsI14
(imyfunction
mondai
p175
(dp176
g3
S'2017-10-01 22:21:15'
p177
sg5
F0.0007160422716230702
sg6
S'14.jpg'
p178
sg8
(lp179
sg13
(lp180
S'math'
p181
asg16
F1.0
sg17
F1506864075.366
sg19
(lp182
(lp183
F1499153099.088
aS'2017-07-04 16:24:59'
p184
aI0
aa(lp185
F1506864075.366
ag177
aF1.0
aasbsI15
(imyfunction
mondai
p186
(dp187
g3
S'2017-10-01 22:37:19'
p188
sg5
F0.0007187103659932761
sg6
S'15.png'
p189
sg8
(lp190
sg13
(lp191
g181
asg16
F1.0
sg17
F1506865039.394
sg18
I1
sg19
(lp192
(lp193
F1499166125.188
aS'2017-07-04 20:02:05'
p194
aI0
aa(lp195
F1506865039.394
ag188
aF1.0
aasbsI16
(imyfunction
mondai
p196
(dp197
g3
S'2017-10-09 16:39:54'
p198
sg5
F0.00028470044709699184
sg6
S'16.png'
p199
sg8
(lp200
S'\xbb\xad\xcd\xbc\xba\xf3\xd5\xd2\xbd\xbb\xb5\xe3'
p201
asg13
(lp202
S'math'
p203
asg16
F0.48845452687743035
sg17
F1507534794.363
sg18
I1
sg19
(lp204
(lp205
F1499170126.383
aS'2017-07-04 21:08:46'
p206
aI0
aa(lp207
F1506867140.211
aS'2017-10-01 23:12:20'
p208
aF0.5
aa(lp209
F1507534794.363
ag198
aF0.0
aasbsI17
(imyfunction
mondai
p210
(dp211
g3
S'2017-10-01 23:20:09'
p212
sg5
F0.0007258733497661049
sg6
S'17.jpg'
p213
sg8
(lp214
S'answer is 4'
p215
asg13
(lp216
S'chemistry'
p217
asg16
F1.0
sg17
F1506867609.907
sg18
I1
sg19
(lp218
(lp219
F1499177974.623
aS'2017-07-04 23:19:34'
p220
aI0
aa(lp221
F1506867609.907
ag212
aF1.0
aasbsI18
(imyfunction
mondai
p222
(dp223
g3
S'2017-10-01 23:48:15'
p224
sg5
F0.0007306093320709584
sg6
S'18.jpg'
p225
sg8
(lp226
S'answer is 1'
p227
asg13
(lp228
g217
asg16
F1.0
sg17
F1506869295.572
sg18
I1
sg19
(lp229
(lp230
F1499178166.958
aS'2017-07-04 23:22:46'
p231
aI0
aa(lp232
F1506869295.572
ag224
aF1.0
aasbsI19
(imyfunction
mondai
p233
(dp234
g3
S'2017-10-09 16:22:53'
p235
sg5
F8.472234287086867e-07
sg6
S'19.jpg'
p236
sg8
(lp237
sg13
(lp238
g203
asg16
F-0.0004638525900832135
sg17
F1507533773.486
sg18
I1
sg19
(lp239
(lp240
F1499238201.632
aS'2017-07-05 16:03:21'
p241
aI0
aa(lp242
F1506870571.946
aS'2017-10-02 00:09:31'
p243
aF0.0
aa(lp244
F1507533773.486
ag235
aF0.0
aasbsI20
(imyfunction
mondai
p245
(dp246
g3
S'2017-10-02 23:12:05'
p247
sg5
F0.003941307072879211
sg6
S'20.jpg'
p248
sg8
(lp249
sg13
(lp250
g203
asg16
F1.2
sg17
F1506953525.889
sg18
I9
sg19
(lp251
(lp252
F1499509485.541
aS'2017-07-08 19:24:45'
p253
aF0.2
aa(lp254
F1506953525.889
ag247
aF1.0
aasbsI21
(imyfunction
mondai
p255
(dp256
g3
S'2017-10-03 01:07:00'
p257
sg5
F0.0010384052471152205
sg6
S'21.jpg'
p258
sg8
(lp259
sg13
(lp260
g217
asg16
F1.0
sg17
F1506960420.575
sg18
I2
sg19
(lp261
(lp262
F1499516368.113
aS'2017-07-08 21:19:28'
p263
aF0.5
aa(lp264
F1506960420.575
ag257
aF0.5
aasbsI22
(imyfunction
mondai
p265
(dp266
g3
S'2017-10-02 00:11:37'
p267
sg5
F3.963716376956167e-10
sg6
S'22.jpg'
p268
sg8
(lp269
sg13
(lp270
g217
asg16
F-1.2767226406916503e-37
sg17
F1506870697.511
sg18
I1
sg19
(lp271
(lp272
F1499530900.691
aS'2017-07-09 01:21:40'
p273
aI0
aa(lp274
F1506870697.511
ag267
aF0.0
aasbsI23
(imyfunction
mondai
p275
(dp276
g3
S'2017-10-02 00:16:00'
p277
sg5
F3.975821497950404e-10
sg6
S'23.jpg'
p278
sg8
(lp279
sg13
(lp280
g217
asg16
F-1.2735640649936628e-37
sg17
F1506870960.973
sg18
I1
sg19
(lp281
(lp282
F1499530950.137
aS'2017-07-09 01:22:30'
p283
aI0
aa(lp284
F1506870960.973
ag277
aF0.0
aasbsI24
(imyfunction
mondai
p285
(dp286
g3
S'2017-10-02 00:20:08'
p287
sg5
F0.0007360216056930165
sg6
S'24.jpg'
p288
sg8
(lp289
sg13
(lp290
S'chemistry'
p291
asg16
F1.0
sg17
F1506871208.62
sg18
I1
sg19
(lp292
(lp293
F1499547136.371
aS'2017-07-09 05:52:16'
p294
aI0
aa(lp295
F1506871208.62
ag287
aF1.0
aasbsI25
(imyfunction
mondai
p296
(dp297
g3
S'2017-10-02 00:22:31'
p298
sg5
F3.993817123529454e-10
sg6
S'25.jpg'
p299
sg8
(lp300
sg13
(lp301
g291
asg16
F-1.5333235087123314e-37
sg17
F1506871351.16
sg18
I1
sg19
(lp302
(lp303
F1499547377.744
aS'2017-07-09 05:56:17'
p304
aI0
aa(lp305
F1506871351.16
ag298
aF0.0
aasbsI26
(imyfunction
mondai
p306
(dp307
g3
S'2017-10-02 00:25:09'
p308
sg5
F4.0011208767420886e-10
sg6
S'26.jpg'
p309
sg8
(lp310
sg13
(lp311
g291
asg16
F-1.5313339114056128e-37
sg17
F1506871509.021
sg18
I1
sg19
(lp312
(lp313
F1499547423.422
aS'2017-07-09 05:57:03'
p314
aI0
aa(lp315
F1506871509.021
ag308
aF0.0
aasbsI27
(imyfunction
mondai
p316
(dp317
g3
S'2017-10-02 00:29:55'
p318
sg5
F0.0007376885804332079
sg6
S'27.jpg'
p319
sg8
(lp320
sg13
(lp321
g291
asg16
F1.0
sg17
F1506871795.004
sg18
I1
sg19
(lp322
(lp323
F1499547463.182
aS'2017-07-09 05:57:43'
p324
aI0
aa(lp325
F1506871795.004
ag318
aF1.0
aasbsI28
(imyfunction
mondai
p326
(dp327
g3
S'2017-10-02 00:31:26'
p328
sg5
F0.0007379476678837952
sg6
S'28.jpg'
p329
sg8
(lp330
sg13
(lp331
g291
asg16
F1.0
sg17
F1506871886.023
sg18
I1
sg19
(lp332
(lp333
F1499616196.736
aS'2017-07-10 01:03:16'
p334
aI0
aa(lp335
F1506871886.023
ag328
aF1.0
aasbsI29
(imyfunction
mondai
p336
(dp337
g3
S'2017-10-05 01:19:58'
p338
sg5
F0.033760428447623295
sg6
S'29.jpg'
p339
sg8
(lp340
sg13
(lp341
S'math'
p342
asg16
F1.55
sg17
F1507133998.435
sg18
I5
sg19
(lp343
(lp344
F1499616732.384
aS'2017-07-10 01:12:12'
p345
aF0.75
aa(lp346
F1507133998.435
ag338
aF0.8
aasbsI30
(imyfunction
mondai
p347
(dp348
g3
S'2017-10-02 00:32:05'
p349
sg5
F0.0007380597721289453
sg6
S'30.png'
p350
sg8
(lp351
sg13
(lp352
g291
asg16
F1.0
sg17
F1506871925.396
sg18
I1
sg19
(lp353
(lp354
F1499680704.857
aS'2017-07-10 18:58:24'
p355
aI0
aa(lp356
F1506871925.396
ag349
aF1.0
aasbsI31
(imyfunction
mondai
p357
(dp358
g3
S'2017-10-03 00:04:06'
p359
sg5
F0.00011614387786673386
sg6
S'31.jpg'
p360
sg8
(lp361
sg13
(lp362
g342
asg16
F0.75
sg17
F1506956646.764
sg18
I10
sg19
(lp363
(lp364
F1499797297.774
aS'2017-07-12 03:21:37'
p365
aF0.45
aa(lp366
F1506956646.764
ag359
aF0.3
aasbsI32
(imyfunction
mondai
p367
(dp368
g3
S'2017-10-02 22:55:47'
p369
sg5
F0.00018482561305376488
sg6
S'32.jpg'
p370
sg8
(lp371
sg13
(lp372
g342
asg16
F0.8
sg17
F1506952547.162
sg18
I4
sg19
(lp373
(lp374
F1499797470.167
aS'2017-07-12 03:24:30'
p375
aF0.05
aa(lp376
F1506952547.162
ag369
aF0.75
aasbsI33
(imyfunction
mondai
p377
(dp378
g3
S'2017-10-02 22:33:57'
p379
sg5
F0.0010022604650211787
sg6
S'33.jpg'
p380
sg8
(lp381
sg13
(lp382
S'physics'
p383
asg16
F1.0
sg17
F1506951237.584
sg18
I1
sg19
(lp384
(lp385
F1500064604.639
aS'2017-07-15 05:36:44'
p386
aI0
aa(lp387
F1506951237.584
ag379
aF1.0
aasbsI34
(imyfunction
mondai
p388
(dp389
g3
S'2017-10-03 01:17:02'
p390
sg5
F9.617781444933775e-09
sg6
S'34.jpg'
p391
sg8
(lp392
sg13
(lp393
S'physical'
p394
asg16
F0.1
sg17
F1506961022.079
sg18
I9
sg19
(lp395
(lp396
F1502980173.751
aS'2017-08-17 23:29:33'
p397
aF0.0
aa(lp398
F1506961022.079
ag390
aF0.1
aasbsI35
(imyfunction
mondai
p399
(dp400
g3
S'2017-10-06 17:28:34'
p401
sg5
F0.03846897197853701
sg6
S'35.jpeg'
p402
sg8
(lp403
sg13
(lp404
S'physical'
p405
asg16
F1.49999999999965
sg17
F1507278514.74
sg18
I2
sg19
(lp406
(lp407
F1502986373.885
aS'2017-08-18 01:12:53'
p408
aF0.5
aa(lp409
F1507278514.74
ag401
aF1.0
aasbsI36
(imyfunction
mondai
p410
(dp411
g3
S'2017-08-19 01:39:30'
p412
sg5
F3.1927365287543536e-13
sg6
S'36.jpeg'
p413
sg8
(lp414
sg13
(lp415
S'physical'
p416
asg16
F0.75
sg17
F1503074370.742
sg18
I0
sg19
(lp417
(lp418
F1503074370.742
ag412
aF0.75
aasbsI37
(imyfunction
mondai
p419
(dp420
g3
S'2017-10-06 20:27:41'
p421
sg5
F0.0019268973894713808
sg6
S'37.jpeg'
p422
sg8
(lp423
sg13
(lp424
S'physical'
p425
asg16
F0.8999999999889152
sg17
F1507289261.527
sg18
I3
sg19
(lp426
(lp427
F1503075931.234
aS'2017-08-19 02:05:31'
p428
aF0.6
aa(lp429
F1507289261.527
ag421
aF0.3
aasbsI38
(imyfunction
mondai
p430
(dp431
g3
S'2017-08-19 03:13:53'
p432
sg5
F1.5271258290798797e-12
sg6
S'38.jpeg'
p433
sg8
(lp434
sg13
(lp435
S'physical'
p436
asg16
F0.8
sg17
F1503080033.486
sg19
(lp437
(lp438
F1503080033.486
ag432
aF0.8
aasbsI39
(imyfunction
mondai
p439
(dp440
g3
S'2017-08-19 03:42:09'
p441
sg5
F3.3142869348990096e-13
sg6
S'39.jpeg'
p442
sg8
(lp443
sg13
(lp444
S'physical'
p445
asg16
F0.75
sg17
F1503081729.58
sg19
(lp446
(lp447
F1503081729.58
ag441
aF0.75
aasbsI40
(imyfunction
mondai
p448
(dp449
g3
S'2017-08-19 03:59:08'
p450
sg5
F2.6201131743866594e-11
sg6
S'40.jpeg'
p451
sg8
(lp452
sg13
(lp453
S'physical'
p454
asg16
F0.9
sg17
F1503082748.531
sg19
(lp455
(lp456
F1503082748.531
ag450
aF0.9
aasbsI41
(imyfunction
mondai
p457
(dp458
g3
S'2017-10-06 20:44:43'
p459
sg5
F0.0001688702108213542
sg6
S'41.jpg'
p460
sg8
(lp461
sg13
(lp462
S'physical'
p463
asg16
F0.5999999999734331
sg17
F1507290283.108
sg18
I2
sg19
(lp464
(lp465
F1503222950.967
aS'2017-08-20 18:55:50'
p466
aF0.6
aa(lp467
F1507290283.108
ag459
aF0.0
aasbsI42
(imyfunction
mondai
p468
(dp469
g3
S'2017-10-05 01:55:43'
p470
sg5
F3.340305968829821e-07
sg6
S'42.jpg'
p471
sg8
(lp472
sg13
(lp473
S'physical'
p474
asg16
F0.19999999999999984
sg17
F1507136143.167
sg18
I4
sg19
(lp475
(lp476
F1503226800.354
aS'2017-08-20 20:00:00'
p477
aF0.2
aa(lp478
F1507136143.167
ag470
aF0.0
aasbsI43
(imyfunction
mondai
p479
(dp480
g3
S'2017-10-03 01:20:37'
p481
sg5
F1.1303402785938553e-09
sg6
S'43.png'
p482
sg8
(lp483
sg13
(lp484
S'chemistry'
p485
asg16
F-1.8098353944148892e-19
sg17
F1506961237.95
sg18
I1
sg19
(lp486
(lp487
F1503232569.843
aS'2017-08-20 21:36:09'
p488
aF0.0
aa(lp489
F1506961237.95
ag481
aF0.0
aasbsI44
(imyfunction
mondai
p490
(dp491
g3
S'2017-10-06 18:17:47'
p492
sg5
F5.8063204820125646e-05
sg6
S'44.png'
p493
sg8
(lp494
sg13
(lp495
S'chemistry'
p496
asg16
F0.49999999999820877
sg17
F1507281467.536
sg18
I1
sg19
(lp497
(lp498
F1503233740.794
aS'2017-08-20 21:55:40'
p499
aF0.5
aa(lp500
F1507281467.536
ag492
aF0.0
aasbsI45
(imyfunction
mondai
p501
(dp502
g3
S'2017-10-03 01:24:41'
p503
sg5
F1.1335373092000942e-09
sg6
S'45.png'
p504
sg8
(lp505
sg13
(lp506
S'chemistry'
p507
asg16
F-2.0662316017965216e-19
sg17
F1506961481.977
sg18
I1
sg19
(lp508
(lp509
F1503244261.055
aS'2017-08-21 00:51:01'
p510
aF0.0
aa(lp511
F1506961481.977
ag503
aF0.0
aasbsI46
(imyfunction
mondai
p512
(dp513
g3
S'2017-10-08 14:44:51'
p514
sg5
F0.0013618551425537897
sg6
S'46.png'
p515
sg8
(lp516
S'answer is 7'
p517
asg13
(lp518
S'chemistry'
p519
asg16
F0.7499999994412296
sg17
F1507441491.578
sg18
I1
sg19
(lp520
(lp521
F1503245428.763
aS'2017-08-21 01:10:28'
p522
aF0.75
aa(lp523
F1507441491.578
ag514
aF0.0
aasbsI47
(imyfunction
mondai
p524
(dp525
g3
S'2017-10-03 01:43:06'
p526
sg5
F1.1481233790790148e-09
sg6
S'47.png'
p527
sg8
(lp528
sg13
(lp529
S'chemistry'
p530
asg16
F-2.0990110472453477e-19
sg17
F1506962586.658
sg18
I1
sg19
(lp531
(lp532
F1503246725.658
aS'2017-08-21 01:32:05'
p533
aF0.0
aa(lp534
F1506962586.658
ag526
aF0.0
aasbsI48
(imyfunction
mondai
p535
(dp536
g3
S'2017-10-03 01:46:05'
p537
sg5
F1.1505064640910194e-09
sg6
S'48.png'
p538
sg8
(lp539
sg13
(lp540
S'chemistry'
p541
asg16
F-2.1089833665454635e-19
sg17
F1506962765.807
sg18
I1
sg19
(lp542
(lp543
F1503247314.318
aS'2017-08-21 01:41:54'
p544
aF0.0
aa(lp545
F1506962765.807
ag537
aF0.0
aasbsI49
(imyfunction
mondai
p546
(dp547
g3
S'2017-10-03 02:01:29'
p548
sg5
F0.0010515861327503942
sg6
S'49.png'
p549
sg8
(lp550
sg13
(lp551
S'chemistry'
p552
asg16
F1.0
sg17
F1506963689.996
sg18
I0
sg19
(lp553
(lp554
F1503255138.538
aS'2017-08-21 03:52:18'
p555
aF0.0
aa(lp556
F1506963689.996
ag548
aF1.0
aasbsI50
(imyfunction
mondai
p557
(dp558
g3
S'2017-10-03 02:28:01'
p559
sg5
F1.1844954207300424e-09
sg6
S'50.png'
p560
sg8
(lp561
sg13
(lp562
S'chemistry'
p563
asg16
F-2.621417900670252e-19
sg17
F1506965281.311
sg18
I1
sg19
(lp564
(lp565
F1503268622.629
aS'2017-08-21 07:37:02'
p566
aF0.0
aa(lp567
F1506965281.311
ag559
aF0.0
aasbsI51
(imyfunction
mondai
p568
(dp569
g3
S'2017-10-06 18:22:55'
p570
sg5
F0.0035875992484972227
sg6
S'51.jpg'
p571
sg8
(lp572
sg13
(lp573
S'chemistry'
p574
asg16
F0.9999999999977303
sg17
F1507281775.99
sg18
I2
sg19
(lp575
(lp576
F1503269475.48
aS'2017-08-21 07:51:15'
p577
aF0.5
aa(lp578
F1507281775.99
ag570
aF0.5
aasbsI52
(imyfunction
mondai
p579
(dp580
g3
S'2017-10-08 14:35:09'
p581
sg5
F0.09779469675424297
sg6
S'52.jpg'
p582
sg8
(lp583
sg13
(lp584
S'chemistry'
p585
asg16
F1.699999999808111
sg17
F1507440909.042
sg18
I2
sg19
(lp586
(lp587
F1503269869.663
aS'2017-08-21 07:57:49'
p588
aF0.7
aa(lp589
F1507440909.042
ag581
aF1.0
aasbsI53
(imyfunction
mondai
p590
(dp591
g3
S'2017-10-06 18:10:27'
p592
sg5
F0.010867567063517734
sg6
S'53.png'
p593
sg8
(lp594
sg13
(lp595
S'math'
p596
asg16
F1.1999999999991968
sg17
F1507281027.181
sg18
I4
sg19
(lp597
(lp598
F1503336047.871
aS'2017-08-22 02:20:47'
p599
aF0.45
aa(lp600
F1507281027.181
ag592
aF0.75
aasbsI54
(imyfunction
mondai
p601
(dp602
g3
S'2017-10-12 17:14:13'
p603
sg5
F0.003262195934340388
sg6
S'54.png'
p604
sg8
(lp605
sg13
(lp606
S'math'
p607
asg16
F0.5892772470714089
sg17
F1507796053.214
sg18
I6
sg19
(lp608
(lp609
F1503352854.527
aS'2017-08-22 07:00:54'
p610
aF0.1
aa(lp611
F1507038521.394
aS'2017-10-03 22:48:41'
p612
aF0.5
aa(lp613
F1507796053.214
ag603
aF0.0
aasbsI55
(imyfunction
mondai
p614
(dp615
g3
S'2017-10-03 12:44:19'
p616
sg5
F0.00014641238999823575
sg6
S'55.jpg'
p617
sg8
(lp618
sg13
(lp619
S'physical'
p620
asg16
F0.75
sg17
F1507002259.751
sg18
I4
sg19
(lp621
(lp622
F1503367103.179
aS'2017-08-22 10:58:23'
p623
aF0.0
aa(lp624
F1507002259.751
ag616
aF0.75
aasbsI56
(imyfunction
mondai
p625
(dp626
g3
S'2017-10-05 20:11:01'
p627
sg5
F1.0330955721840739e-05
sg6
S'56.png'
p628
sg8
(lp629
sg13
(lp630
S'chemistry'
p631
asg16
F0.39999999999961466
sg17
F1507201861.287
sg18
I5
sg19
(lp632
(lp633
F1503369253.09
aS'2017-08-22 11:34:13'
p634
aF0.4
aa(lp635
F1507201861.287
ag627
aF0.0
aasbsI57
(imyfunction
mondai
p636
(dp637
g3
S'2017-10-06 18:46:09'
p638
sg5
F0.004872002858895276
sg6
S'57.png'
p639
sg8
(lp640
sg13
(lp641
S'chemistry'
p642
asg16
F1.0499999999955751
sg17
F1507283169.396
sg18
I11
sg19
(lp643
(lp644
F1503370774.163
aS'2017-08-22 11:59:34'
p645
aF0.5
aa(lp646
F1507283169.396
ag638
aF0.55
aasbsI58
(imyfunction
mondai
p647
(dp648
g3
S'2017-10-06 20:00:56'
p649
sg5
F6.051475344599117e-05
sg6
S'58.png'
p650
sg8
(lp651
sg13
(lp652
S'chemistry'
p653
asg16
F0.4999999999944683
sg17
F1507287656.284
sg18
I4
sg19
(lp654
(lp655
F1503408670.508
aS'2017-08-22 22:31:10'
p656
aF0.5
aa(lp657
F1507287656.284
ag649
aF0.0
aasbsI59
(imyfunction
mondai
p658
(dp659
g3
S'2017-10-08 14:29:04'
p660
sg5
F0.011157014502154217
sg6
S'59.png'
p661
sg8
(lp662
sg13
(lp663
S'chemistry'
p664
asg16
F1.0999999999612475
sg17
F1507440544.214
sg18
I6
sg19
(lp665
(lp666
F1503436269.897
aS'2017-08-23 06:11:09'
p667
aF0.6
aa(lp668
F1507440544.214
ag660
aF0.5
aasbsI60
(imyfunction
mondai
p669
(dp670
g3
S'2017-10-03 22:14:47'
p671
sg5
F2.7005709079789765e-09
sg6
S'60.png'
p672
sg8
(lp673
sg13
(lp674
S'chemistry'
p675
asg16
F-2.3240177672528205e-18
sg17
F1507036487.553
sg18
I1
sg19
(lp676
(lp677
F1503528368.119
aS'2017-08-24 07:46:08'
p678
aF0.0
aa(lp679
F1507036487.553
ag671
aF0.0
aasbsI61
(imyfunction
mondai
p680
(dp681
g3
S'2017-10-03 22:53:48'
p682
sg5
F0.0014052059919483148
sg6
S'61.png'
p683
sg8
(lp684
sg13
(lp685
S'chemistry'
p686
asg16
F1.0
sg17
F1507038828.001
sg18
I1
sg19
(lp687
(lp688
F1503759535.555
aS'2017-08-26 23:58:55'
p689
aF0.0
aa(lp690
F1507038828.001
ag682
aF1.0
aasbsI62
(imyfunction
mondai
p691
(dp692
g3
S'2017-10-03 22:58:11'
p693
sg5
F2.7831941087936924e-09
sg6
S'62.png'
p694
sg8
(lp695
S'\xa5\xa6 u'
p696
asg13
(lp697
S'chemistry'
p698
asg16
F-3.2885428981875427e-17
sg17
F1507039091.306
sg18
I1
sg19
(lp699
(lp700
F1503759908.733
aS'2017-08-27 00:05:08'
p701
aF0.0
aa(lp702
F1507039091.306
ag693
aF0.0
aasbsI63
(imyfunction
mondai
p703
(dp704
g3
S'2017-10-03 23:06:21'
p705
sg5
F2.799034188246082e-09
sg6
S'63.png'
p706
sg8
(lp707
sg13
(lp708
S'chemistry'
p709
asg16
F-3.2900559759003024e-17
sg17
F1507039581.643
sg18
I1
sg19
(lp710
(lp711
F1503760438.814
aS'2017-08-27 00:13:58'
p712
aF0.0
aa(lp713
F1507039581.643
ag705
aF0.0
aasbsI64
(imyfunction
mondai
p714
(dp715
g3
S'2017-10-03 23:17:32'
p716
sg5
F2.82086321699855e-09
sg6
S'64.png'
p717
sg8
(lp718
sg13
(lp719
S'chemistry'
p720
asg16
F-3.294906211238578e-17
sg17
F1507040252.843
sg18
I1
sg19
(lp721
(lp722
F1503761237.292
aS'2017-08-27 00:27:17'
p723
aF0.0
aa(lp724
F1507040252.843
ag716
aF0.0
aasbsI65
(imyfunction
mondai
p725
(dp726
g3
S'2017-10-04 01:24:08'
p727
sg5
F3.080065990162058e-09
sg6
S'65.png'
p728
sg8
(lp729
sg13
(lp730
S'chemistry'
p731
asg16
F-3.088343801126597e-17
sg17
F1507047848.101
sg18
I1
sg19
(lp732
(lp733
F1503763238.777
aS'2017-08-27 01:00:38'
p734
aF0.0
aa(lp735
F1507047848.101
ag727
aF0.0
aasbsI66
(imyfunction
mondai
p736
(dp737
g3
S'2017-10-08 16:06:47'
p738
sg5
F0.0019841334017182215
sg6
S'66.png'
p739
sg8
(lp740
sg13
(lp741
S'chemistry'
p742
asg16
F0.7999999793676873
sg17
F1507446407.946
sg18
I0
sg19
(lp743
(lp744
F1503764305.612
aS'2017-08-27 01:18:25'
p745
aF0.8
aa(lp746
F1507446407.946
ag738
aF0.0
aasbsI67
(imyfunction
mondai
p747
(dp748
g3
S'2017-10-08 14:43:04'
p749
sg5
F0.011189463572665332
sg6
S'67.png'
p750
sg8
(lp751
sg13
(lp752
S'chemistry'
p753
asg16
F1.0999999997045067
sg17
F1507441384.391
sg18
I2
sg19
(lp754
(lp755
F1503776416.902
aS'2017-08-27 04:40:16'
p756
aF0.6
aa(lp757
F1507441384.391
ag749
aF0.5
aasbsI68
(imyfunction
mondai
p758
(dp759
g3
S'2017-10-04 01:29:36'
p760
sg5
F0.001456810899398369
sg6
S'68.png'
p761
sg8
(lp762
sg13
(lp763
S'chemistry'
p764
asg16
F1.0
sg17
F1507048176.263
sg18
I2
sg19
(lp765
(lp766
F1503779158.5
aS'2017-08-27 05:25:58'
p767
aF0.0
aa(lp768
F1507048176.263
ag760
aF1.0
aasbsI69
(imyfunction
mondai
p769
(dp770
g3
S'2017-10-05 01:03:07'
p771
sg5
F8.251203671355517e-09
sg6
S'69.png'
p772
sg8
(lp773
sg13
(lp774
S'chemistry'
p775
asg16
F-1.475936158364671e-17
sg17
F1507132987.358
sg18
I1
sg19
(lp776
(lp777
F1503784585.243
aS'2017-08-27 06:56:25'
p778
aF0.0
aa(lp779
F1507132987.358
ag771
aF0.0
aasbsI70
(imyfunction
mondai
p780
(dp781
g3
S'2017-10-05 01:36:08'
p782
sg5
F8.442542918214858e-09
sg6
S'70.png'
p783
sg8
(lp784
sg13
(lp785
S'chemistry'
p786
asg16
F-3.8906083719910555e-17
sg17
F1507134968.032
sg18
I2
sg19
(lp787
(lp788
F1503870311.11
aS'2017-08-28 06:45:11'
p789
aF0.0
aa(lp790
F1507134968.032
ag782
aF0.0
aasbsI71
(imyfunction
mondai
p791
(dp792
g3
S'2017-10-05 01:41:30'
p793
sg5
F0.002038754635365376
sg6
S'71.jpg'
p794
sg8
(lp795
sg13
(lp796
S'chemistry'
p797
asg16
F1.0
sg17
F1507135290.64
sg18
I1
sg19
(lp798
(lp799
F1503879436.234
aS'2017-08-28 09:17:16'
p800
aF0.0
aa(lp801
F1507135290.64
ag793
aF1.0
aasbsI72
(imyfunction
mondai
p802
(dp803
g3
S'2017-10-05 12:25:33'
p804
sg5
F2.8302644759351067e-05
sg6
S'72.png'
p805
sg8
(lp806
sg13
(lp807
S'chemistry'
p808
asg16
F0.4999999999999999
sg17
F1507173933.085
sg18
I2
sg19
(lp809
(lp810
F1504016042.217
aS'2017-08-29 23:14:02'
p811
aF0.0
aa(lp812
F1507173933.085
ag804
aF0.5
aasbsI73
(imyfunction
mondai
p813
(dp814
g3
S'2017-10-05 12:40:05'
p815
sg5
F0.0023745004551278506
sg6
S'73.png'
p816
sg8
(lp817
sg13
(lp818
S'chemistry'
p819
asg16
F0.9999999999999999
sg17
F1507174805.144
sg18
I2
sg19
(lp820
(lp821
F1504016537.49
aS'2017-08-29 23:22:17'
p822
aF0.0
aa(lp823
F1507174805.144
ag815
aF1.0
aasbsI74
(imyfunction
mondai
p824
(dp825
g3
S'2017-10-05 13:00:30'
p826
sg5
F1.3579219417648301e-08
sg6
S'74.jpg'
p827
sg8
(lp828
sg13
(lp829
S'chemistry'
p830
asg16
F-1.3365815349420956e-16
sg17
F1507176030.244
sg18
I1
sg19
(lp831
(lp832
F1504018002.57
aS'2017-08-29 23:46:42'
p833
aF0.0
aa(lp834
F1507176030.244
ag826
aF0.0
aasbsI75
(imyfunction
mondai
p835
(dp836
g3
S'2017-10-05 13:11:09'
p837
sg5
F1.368011651778631e-08
sg6
S'75.jpg'
p838
sg8
(lp839
sg13
(lp840
S'chemistry'
p841
asg16
F-1.3632074025443876e-16
sg17
F1507176669.845
sg18
I2
sg19
(lp842
(lp843
F1504020346.415
aS'2017-08-30 00:25:46'
p844
aF0.0
aa(lp845
F1507176669.845
ag837
aF0.0
aasbsI76
(imyfunction
mondai
p846
(dp847
g3
S'2017-10-05 13:13:53'
p848
sg5
F0.0023931509081366277
sg6
S'76.png'
p849
sg8
(lp850
sg13
(lp851
S'chemistry'
p852
asg16
F0.9999999999999982
sg17
F1507176833.07
sg18
I1
sg19
(lp853
(lp854
F1504242498.728
aS'2017-09-01 14:08:18'
p855
aF0.0
aa(lp856
F1507176833.07
ag848
aF1.0
aasbsI77
(imyfunction
mondai
p857
(dp858
g3
S'2017-10-05 13:15:17'
p859
sg5
F1.3719419603194558e-08
sg6
S'77.jpg'
p860
sg8
(lp861
sg13
(lp862
S'chemistry'
p863
asg16
F-1.785161182950008e-15
sg17
F1507176917.717
sg18
I1
sg19
(lp864
(lp865
F1504242836.989
aS'2017-09-01 14:13:56'
p866
aF0.0
aa(lp867
F1507176917.717
ag859
aF0.0
aasbsI78
(imyfunction
mondai
p868
(dp869
g3
S'2017-10-05 13:18:40'
p870
sg5
F0.0023958090855140356
sg6
S'78.png'
p871
sg8
(lp872
sg13
(lp873
S'chemistry'
p874
asg16
F0.9999999999999982
sg17
F1507177120.815
sg18
I2
sg19
(lp875
(lp876
F1504243511.051
aS'2017-09-01 14:25:11'
p877
aF0.0
aa(lp878
F1507177120.815
ag870
aF1.0
aasbsI79
(imyfunction
mondai
p879
(dp880
g3
S'2017-10-05 13:23:50'
p881
sg5
F0.002398676777779609
sg6
S'79.jpg'
p882
sg8
(lp883
sg13
(lp884
S'chemistry'
p885
asg16
F0.9999999999999982
sg17
F1507177430.882
sg18
I1
sg19
(lp886
(lp887
F1504244940.738
aS'2017-09-01 14:49:00'
p888
aF0.0
aa(lp889
F1507177430.882
ag881
aF1.0
aasbsI80
(imyfunction
mondai
p890
(dp891
g3
S'2017-10-05 13:31:41'
p892
sg5
F0.002403036526632519
sg6
S'80.jpg'
p893
sg8
(lp894
sg13
(lp895
S'chemistry'
p896
asg16
F0.9999999999999981
sg17
F1507177901.567
sg18
I1
sg19
(lp897
(lp898
F1504246658.078
aS'2017-09-01 15:17:38'
p899
aF0.0
aa(lp900
F1507177901.567
ag892
aF1.0
aasbsI81
(imyfunction
mondai
p901
(dp902
g3
S'2017-10-05 13:40:26'
p903
sg5
F1.3961094950049889e-08
sg6
S'81.png'
p904
sg8
(lp905
sg13
(lp906
S'chemistry'
p907
asg16
F-2.5723812036960078e-15
sg17
F1507178426.452
sg18
I1
sg19
(lp908
(lp909
F1504275909.657
aS'2017-09-01 23:25:09'
p910
aF0.0
aa(lp911
F1507178426.452
ag903
aF0.0
aasbsI82
(imyfunction
mondai
p912
(dp913
g3
S'2017-10-05 13:45:04'
p914
sg5
F1.4006174329518259e-08
sg6
S'82.png'
p915
sg8
(lp916
sg13
(lp917
S'chemistry'
p918
asg16
F-2.623170979143293e-15
sg17
F1507178704.982
sg18
I1
sg19
(lp919
(lp920
F1504277877.469
aS'2017-09-01 23:57:57'
p921
aF0.0
aa(lp922
F1507178704.982
ag914
aF0.0
aasbsI83
(imyfunction
mondai
p923
(dp924
g3
S'2017-10-05 13:51:58'
p925
sg5
F1.4073310169056572e-08
sg6
S'83.png'
p926
sg8
(lp927
sg13
(lp928
S'chemistry'
p929
asg16
F-2.6309049855391633e-15
sg17
F1507179118.134
sg18
I1
sg19
(lp930
(lp931
F1504278544.983
aS'2017-09-02 00:09:04'
p932
aF0.0
aa(lp933
F1507179118.134
ag925
aF0.0
aasbsI84
(imyfunction
mondai
p934
(dp935
g3
S'2017-10-08 14:58:31'
p936
sg5
F0.05540662270625162
sg6
S'84.png'
p937
sg8
(lp938
sg13
(lp939
S'chemistry'
p940
asg16
F1.4999999993144824
sg17
F1507442311.976
sg18
I4
sg19
(lp941
(lp942
F1504284587.342
aS'2017-09-02 01:49:47'
p943
aF0.5
aa(lp944
F1507442311.976
ag936
aF1.0
aasbsI85
(imyfunction
mondai
p945
(dp946
g3
S'2017-10-08 16:05:36'
p947
sg5
F0.05590550918386261
sg6
S'85.jpg'
p948
sg8
(lp949
sg13
(lp950
S'chemistry'
p951
asg16
F1.4999999993216577
sg17
F1507446336.252
sg18
I2
sg19
(lp952
(lp953
F1504287036.941
aS'2017-09-02 02:30:36'
p954
aF0.5
aa(lp955
F1507446336.252
ag947
aF1.0
aasbsI86
(imyfunction
mondai
p956
(dp957
g3
S'2017-10-06 20:39:14'
p958
sg5
F0.002879219184349004
sg6
S'86.png'
p959
sg8
(lp960
sg13
(lp961
S'chemistry'
p962
asg16
F0.959999999985973
sg17
F1507289954.953
sg18
I6
sg19
(lp963
(lp964
F1504287911.136
aS'2017-09-02 02:45:11'
p965
aF0.3
aa(lp966
F1507289954.953
ag958
aF0.66
aasbsI87
(imyfunction
mondai
p967
(dp968
g3
S'2017-10-05 14:00:49'
p969
sg5
F1.4160121325172317e-08
sg6
S'87.png'
p970
sg8
(lp971
sg13
(lp972
S'chemistry'
p973
asg16
F-2.9523154222679466e-15
sg17
F1507179649.455
sg18
I1
sg19
(lp974
(lp975
F1504289034.929
aS'2017-09-02 03:03:54'
p976
aF0.0
aa(lp977
F1507179649.455
ag969
aF0.0
aasbsI88
(imyfunction
mondai
p978
(dp979
g3
S'2017-10-05 14:55:48'
p980
sg5
F1.4711181328806105e-08
sg6
S'88.png'
p981
sg8
(lp982
sg13
(lp983
S'chemistry'
p984
asg16
F-3.0461961254892452e-15
sg17
F1507182948.05
sg18
I2
sg19
(lp985
(lp986
F1504295038.18
aS'2017-09-02 04:43:58'
p987
aF0.0
aa(lp988
F1507182948.05
ag980
aF0.0
aasbsI89
(imyfunction
mondai
p989
(dp990
g3
S'2017-10-05 15:18:58'
p991
sg5
F1.4949767101288666e-08
sg6
S'89.jpg'
p992
sg8
(lp993
sg13
(lp994
S'chemistry'
p995
asg16
F-4.159729661901105e-15
sg17
F1507184338.043
sg18
I3
sg19
(lp996
(lp997
F1504323346.65
aS'2017-09-02 12:35:46'
p998
aF0.0
aa(lp999
F1507184338.043
ag991
aF0.0
aasbsI90
(imyfunction
mondai
p1000
(dp1001
g3
S'2017-10-05 15:33:09'
p1002
sg5
F0.0024715614310432676
sg6
S'90.png'
p1003
sg8
(lp1004
sg13
(lp1005
S'chemistry'
p1006
asg16
F0.9999999999999959
sg17
F1507185189.481
sg18
I1
sg19
(lp1007
(lp1008
F1504323686.397
aS'2017-09-02 12:41:26'
p1009
aF0.0
aa(lp1010
F1507185189.481
ag1002
aF1.0
aasbsI91
(imyfunction
mondai
p1011
(dp1012
g3
S'2017-10-05 15:34:52'
p1013
sg5
F0.002472544482182398
sg6
S'91.jpg'
p1014
sg8
(lp1015
sg13
(lp1016
S'chemistry'
p1017
asg16
F0.9999999999999959
sg17
F1507185292.556
sg18
I1
sg19
(lp1018
(lp1019
F1504324204.896
aS'2017-09-02 12:50:04'
p1020
aF0.0
aa(lp1021
F1507185292.556
ag1013
aF1.0
aasbsI92
(imyfunction
mondai
p1022
(dp1023
g3
S'2017-10-05 15:47:43'
p1024
sg5
F1.525131417744132e-08
sg6
S'92.png'
p1025
sg8
(lp1026
sg13
(lp1027
S'chemistry'
p1028
asg16
F-4.178117625193385e-15
sg17
F1507186063.447
sg18
I1
sg19
(lp1029
(lp1030
F1504325453.141
aS'2017-09-02 13:10:53'
p1031
aF0.0
aa(lp1032
F1507186063.447
ag1024
aF0.0
aasbsI93
(imyfunction
mondai
p1033
(dp1034
g3
S'2017-10-05 15:53:41'
p1035
sg5
F1.5314659768233302e-08
sg6
S'93.png'
p1036
sg8
(lp1037
sg13
(lp1038
S'chemistry'
p1039
asg16
F-4.260929810562285e-15
sg17
F1507186421.562
sg18
I1
sg19
(lp1040
(lp1041
F1504327506.993
aS'2017-09-02 13:45:06'
p1042
aF0.0
aa(lp1043
F1507186421.562
ag1035
aF0.0
aasbsI94
(imyfunction
mondai
p1044
(dp1045
g3
S'2017-10-05 16:02:25'
p1046
sg5
F0.0024883673160403445
sg6
S'94.jpg'
p1047
sg8
(lp1048
sg13
(lp1049
S'chemistry'
p1050
asg16
F0.9999999999999957
sg17
F1507186945.999
sg18
I3
sg19
(lp1051
(lp1052
F1504330005.843
aS'2017-09-02 14:26:45'
p1053
aF0.0
aa(lp1054
F1507186945.999
ag1046
aF1.0
aasbsI95
(imyfunction
mondai
p1055
(dp1056
g3
S'2017-10-05 18:57:10'
p1057
sg5
F0.0025910828595729287
sg6
S'95.png'
p1058
sg8
(lp1059
sg13
(lp1060
S'chemistry'
p1061
asg16
F0.9999999999999961
sg17
F1507197430.401
sg18
I1
sg19
(lp1062
(lp1063
F1504330578.003
aS'2017-09-02 14:36:18'
p1064
aF0.0
aa(lp1065
F1507197430.401
ag1057
aF1.0
aasbsI96
(imyfunction
mondai
p1066
(dp1067
g3
S'2017-10-06 19:55:59'
p1068
sg5
F0.0036657204693177274
sg6
S'96.png'
p1069
sg8
(lp1070
sg13
(lp1071
S'chemistry'
p1072
asg16
F0.9999999999948661
sg17
F1507287359.586
sg18
I4
sg19
(lp1073
(lp1074
F1504331481.399
aS'2017-09-02 14:51:21'
p1075
aF0.25
aa(lp1076
F1507287359.586
ag1068
aF0.75
aasbsI97
(imyfunction
mondai
p1077
(dp1078
g3
S'2017-10-05 19:04:08'
p1079
sg5
F1.7480212133328313e-08
sg6
S'97.png'
p1080
sg8
(lp1081
sg13
(lp1082
S'chemistry'
p1083
asg16
F-3.9558086867684985e-15
sg17
F1507197848.738
sg18
I1
sg19
(lp1084
(lp1085
F1504332514.446
aS'2017-09-02 15:08:34'
p1086
aF0.0
aa(lp1087
F1507197848.738
ag1079
aF0.0
aasbsI98
(imyfunction
mondai
p1088
(dp1089
g3
S'2017-10-08 14:20:23'
p1090
sg5
F0.02205567672811646
sg6
S'98.jpeg'
p1091
sg8
(lp1092
sg13
(lp1093
S'physical'
p1094
asg16
F1.2499999999911555
sg17
F1507440023.274
sg18
I4
sg19
(lp1095
(lp1096
F1504545992.782
aS'2017-09-05 02:26:32'
p1097
aF0.25
aa(lp1098
F1507440023.274
ag1090
aF1.0
aasbsI99
(imyfunction
mondai
p1099
(dp1100
g3
S'2017-10-06 10:48:27'
p1101
sg5
F4.849095347702118e-05
sg6
S'99.jpeg'
p1102
sg8
(lp1103
sg13
(lp1104
S'physical'
p1105
asg16
F0.49999999999997496
sg17
F1507254507.501
sg18
I2
sg19
(lp1106
(lp1107
F1504548613.492
aS'2017-09-05 03:10:13'
p1108
aF0.0
aa(lp1109
F1507254507.501
ag1101
aF0.5
aasbsI100
(imyfunction
mondai
p1110
(dp1111
g3
S'2017-09-05 03:23:51'
p1112
sg5
F6.843888386369611e-13
sg6
S'100.jpeg'
p1113
sg8
(lp1114
sg13
(lp1115
S'physical'
p1116
asg16
F0.5
sg17
F1504549431.259
sg18
I2
sg19
(lp1117
(lp1118
F1504549431.259
ag1112
aF0.5
aasbsI101
(imyfunction
mondai
p1119
(dp1120
g3
S'2017-10-06 11:05:21'
p1121
sg5
F4.257539750543215e-06
sg6
S'101.jpeg'
p1122
sg8
(lp1123
sg13
(lp1124
S'physical'
p1125
asg16
F0.2999999999999724
sg17
F1507255521.17
sg18
I3
sg19
(lp1126
(lp1127
F1504557916.173
aS'2017-09-05 05:45:16'
p1128
aF0.0
aa(lp1129
F1507255521.17
ag1121
aF0.3
aasbsI102
(imyfunction
mondai
p1130
(dp1131
g3
S'2017-10-06 11:09:51'
p1132
sg5
F0.003245382618968138
sg6
S'102.jpeg'
p1133
sg8
(lp1134
sg13
(lp1135
S'physical'
p1136
asg16
F0.9999999999999712
sg17
F1507255791.192
sg18
I1
sg19
(lp1137
(lp1138
F1504561998.287
aS'2017-09-05 06:53:18'
p1139
aF0.0
aa(lp1140
F1507255791.192
ag1132
aF1.0
aasbsI103
(imyfunction
mondai
p1141
(dp1142
g3
S'2017-10-06 11:25:34'
p1143
sg5
F6.419970083543423e-06
sg6
S'103.png'
p1144
sg8
(lp1145
sg13
(lp1146
S'physical'
p1147
asg16
F0.32999999999997015
sg17
F1507256734.83
sg18
I3
sg19
(lp1148
(lp1149
F1504566130.357
aS'2017-09-05 08:02:10'
p1150
aF0.0
aa(lp1151
F1507256734.83
ag1143
aF0.33
aasbsI104
(imyfunction
mondai
p1152
(dp1153
g3
S'2017-10-06 11:27:27'
p1154
sg5
F0.0032586373014003877
sg6
S'104.jpg'
p1155
sg8
(lp1156
sg13
(lp1157
S'physical'
p1158
asg16
F0.9999999999999651
sg17
F1507256847.652
sg18
I1
sg19
(lp1159
(lp1160
F1504579510.387
aS'2017-09-05 11:45:10'
p1161
aF0.0
aa(lp1162
F1507256847.652
ag1154
aF1.0
aasbsI105
(imyfunction
mondai
p1163
(dp1164
g3
S'2017-09-23 10:18:16'
p1165
sg5
F7.454437268811358e-14
sg6
S'105.jpg'
p1166
sg8
(lp1167
sg13
(lp1168
S'physical'
p1169
asg16
F0.0
sg17
F1506129496.71
sg18
I4
sg19
(lp1170
(lp1171
F1506129496.71
ag1165
aF0.0
aasbsI106
(imyfunction
mondai
p1172
(dp1173
g3
S'2017-09-23 11:11:53'
p1174
sg5
F7.737201624960417e-14
sg6
S'106.jpg'
p1175
sg8
(lp1176
sg13
(lp1177
S'physical'
p1178
asg16
F0.0
sg17
F1506132713.435
sg18
I2
sg19
(lp1179
(lp1180
F1506132713.435
ag1174
aF0.0
aasbsI107
(imyfunction
mondai
p1181
(dp1182
g3
S'2017-09-23 11:39:38'
p1183
sg5
F7.887768690617504e-14
sg6
S'107.jpg'
p1184
sg8
(lp1185
sg13
(lp1186
S'physical'
p1187
asg16
F0.0
sg17
F1506134378.641
sg18
I2
sg19
(lp1188
(lp1189
F1506134378.641
ag1183
aF0.0
aasbsI108
(imyfunction
mondai
p1190
(dp1191
g3
S'2017-09-23 11:52:35'
p1192
sg5
F7.958965257874939e-14
sg6
S'108.jpg'
p1193
sg8
(lp1194
sg13
(lp1195
S'physical'
p1196
asg16
F0.0
sg17
F1506135155.006
sg18
I1
sg19
(lp1197
(lp1198
F1506135155.006
ag1192
aF0.0
aasbsI109
(imyfunction
mondai
p1199
(dp1200
g3
S'2017-09-23 12:33:50'
p1201
sg5
F8.190297244593496e-14
sg6
S'109.png'
p1202
sg8
(lp1203
sg13
(lp1204
S'physical'
p1205
asg16
F0.0
sg17
F1506137630.469
sg18
I2
sg19
(lp1206
(lp1207
F1506137630.469
ag1201
aF0.0
aasbsI110
(imyfunction
mondai
p1208
(dp1209
g3
S'2017-09-23 12:51:11'
p1210
sg5
F8.28961114203495e-14
sg6
S'110.jpg'
p1211
sg8
(lp1212
sg13
(lp1213
S'physical'
p1214
asg16
F0.0
sg17
F1506138671.837
sg18
I2
sg19
(lp1215
(lp1216
F1506138671.837
ag1210
aF0.0
aasbsI111
(imyfunction
mondai
p1217
(dp1218
g3
S'2017-09-23 15:11:03'
p1219
sg5
F9.135190830914428e-14
sg6
S'111.jpg'
p1220
sg8
(lp1221
sg13
(lp1222
S'physical'
p1223
asg16
F0.0
sg17
F1506147063.957
sg18
I2
sg19
(lp1224
(lp1225
F1506147063.957
ag1219
aF0.0
aasbsI112
(imyfunction
mondai
p1226
(dp1227
g3
S'2017-09-23 15:21:22'
p1228
sg5
F2.9755084764923937e-08
sg6
S'112.png'
p1229
sg8
(lp1230
sg13
(lp1231
S'physical'
p1232
asg16
F0.5
sg17
F1506147682.265
sg18
I4
sg19
(lp1233
(lp1234
F1506147682.265
ag1228
aF0.5
aasbsI113
(imyfunction
mondai
p1235
(dp1236
g3
S'2017-09-23 15:34:50'
p1237
sg5
F9.287230672636695e-14
sg6
S'113.png'
p1238
sg8
(lp1239
sg13
(lp1240
S'physical'
p1241
asg16
F0.0
sg17
F1506148490.104
sg18
I1
sg19
(lp1242
(lp1243
F1506148490.104
ag1237
aF0.0
aasbsI114
(imyfunction
mondai
p1244
(dp1245
g3
S'2017-09-23 17:33:58'
p1246
sg5
F1.0088292294828175e-13
sg6
S'114.jpg'
p1247
sg8
(lp1248
sg13
(lp1249
S'physical'
p1250
asg16
F0.0
sg17
F1506155638.422
sg18
I1
sg19
(lp1251
(lp1252
F1506155638.422
ag1246
aF0.0
aasbsI115
(imyfunction
mondai
p1253
(dp1254
g3
S'2017-09-23 18:07:32'
p1255
sg5
F1.0326212337225808e-13
sg6
S'115.jpg'
p1256
sg8
(lp1257
sg13
(lp1258
S'physical'
p1259
asg16
F0.0
sg17
F1506157652.404
sg18
I2
sg19
(lp1260
(lp1261
F1506157652.404
ag1255
aF0.0
aasbsI116
(imyfunction
mondai
p1262
(dp1263
g3
S'2017-09-23 18:34:12'
p1264
sg5
F1.051922166740961e-13
sg6
S'116.jpg'
p1265
sg8
(lp1266
sg13
(lp1267
S'physical'
p1268
asg16
F0.0
sg17
F1506159252.417
sg18
I1
sg19
(lp1269
(lp1270
F1506159252.417
ag1264
aF0.0
aasbsI117
(imyfunction
mondai
p1271
(dp1272
g3
S'2017-09-23 19:23:54'
p1273
sg5
F1.0888623073489048e-13
sg6
S'117.png'
p1274
sg8
(lp1275
sg13
(lp1276
S'physical'
p1277
asg16
F0.0
sg17
F1506162234.45
sg18
I2
sg19
(lp1278
(lp1279
F1506162234.45
ag1273
aF0.0
aasbsI118
(imyfunction
mondai
p1280
(dp1281
g3
S'2017-09-25 08:10:08'
p1282
sg5
F5.039141404077978e-13
sg6
S'118.jpg'
p1283
sg8
(lp1284
sg13
(lp1285
S'physical'
p1286
asg16
F0.0
sg17
F1506294608.09
sg18
I1
sg19
(lp1287
(lp1288
F1506294608.09
ag1282
aF0.0
aasbsI119
(imyfunction
mondai
p1289
(dp1290
g3
S'2017-09-25 08:31:45'
p1291
sg5
F5.115397975650558e-13
sg6
S'119.jpg'
p1292
sg8
(lp1293
sg13
(lp1294
S'physical'
p1295
asg16
F0.0
sg17
F1506295905.774
sg18
I1
sg19
(lp1296
(lp1297
F1506295905.774
ag1291
aF0.0
aasbsI120
(imyfunction
mondai
p1298
(dp1299
g3
S'2017-09-25 17:16:58'
p1300
sg5
F7.366812109931221e-13
sg6
S'120.jpg'
p1301
sg8
(lp1302
sg13
(lp1303
S'physical'
p1304
asg16
F0.0
sg17
F1506327418.434
sg18
I2
sg19
(lp1305
(lp1306
F1506327418.434
ag1300
aF0.0
aasbsI121
(imyfunction
mondai
p1307
(dp1308
g3
S'2017-09-25 18:41:13'
p1309
sg5
F7.810671343017818e-13
sg6
S'121.jpg'
p1310
sg8
(lp1311
sg13
(lp1312
S'physical'
p1313
asg16
F0.0
sg17
F1506332473.34
sg18
I2
sg19
(lp1314
(lp1315
F1506332473.34
ag1309
aF0.0
aasbsI122
(imyfunction
mondai
p1316
(dp1317
g3
S'2017-09-25 19:07:57'
p1318
sg5
F7.957003206304791e-13
sg6
S'122.jpg'
p1319
sg8
(lp1320
sg13
(lp1321
S'physical'
p1322
asg16
F0.0
sg17
F1506334077.056
sg18
I3
sg19
(lp1323
(lp1324
F1506334077.056
ag1318
aF0.0
aasbsI123
(imyfunction
mondai
p1325
(dp1326
g3
S'2017-09-25 19:31:39'
p1327
sg5
F8.089055106337465e-13
sg6
S'123.jpg'
p1328
sg8
(lp1329
sg13
(lp1330
S'physical'
p1331
asg16
F0.0
sg17
F1506335499.155
sg18
I2
sg19
(lp1332
(lp1333
F1506335499.155
ag1327
aF0.0
aasbsI124
(imyfunction
mondai
p1334
(dp1335
g3
S'2017-09-26 05:15:57'
p1336
sg5
F1.2137236015969667e-12
sg6
S'124.jpg'
p1337
sg8
(lp1338
sg13
(lp1339
S'physical'
p1340
asg16
F0.0
sg17
F1506370557.351
sg18
I1
sg19
(lp1341
(lp1342
F1506370557.351
ag1336
aF0.0
aasbsI125
(imyfunction
mondai
p1343
(dp1344
g3
S'2017-09-26 05:49:46'
p1345
sg5
F1.2425604875191875e-12
sg6
S'125.jpg'
p1346
sg8
(lp1347
sg13
(lp1348
S'physical'
p1349
asg16
F0.0
sg17
F1506372586.124
sg18
I1
sg19
(lp1350
(lp1351
F1506372586.124
ag1345
aF0.0
aasbsI126
(imyfunction
mondai
p1352
(dp1353
g3
S'2017-09-26 06:12:43'
p1354
sg5
F1.2625292394444096e-12
sg6
S'126.jpg'
p1355
sg8
(lp1356
sg13
(lp1357
S'physical'
p1358
asg16
F0.0
sg17
F1506373963.589
sg18
I2
sg19
(lp1359
(lp1360
F1506373963.589
ag1354
aF0.0
aasbsI127
(imyfunction
mondai
p1361
(dp1362
g3
S'2017-09-26 22:42:13'
p1363
sg5
F2.5099535928720177e-12
sg6
S'127.jpg'
p1364
sg8
(lp1365
sg13
(lp1366
S'physical'
p1367
asg16
F0.0
sg17
F1506433333.109
sg18
I1
sg19
(lp1368
(lp1369
F1506433333.109
ag1363
aF0.0
aasbsI128
(imyfunction
mondai
p1370
(dp1371
g3
S'2017-09-26 22:43:06'
p1372
sg5
F2.511502456290384e-12
sg6
S'128.jpg'
p1373
sg8
(lp1374
sg13
(lp1375
S'physical'
p1376
asg16
F0.0
sg17
F1506433386.409
sg18
I1
sg19
(lp1377
(lp1378
F1506433386.409
ag1372
aF0.0
aasbsI129
(imyfunction
mondai
p1379
(dp1380
g3
S'2017-09-27 05:41:54'
p1381
sg5
F4.039978925017559e-08
sg6
S'129.png'
p1382
sg8
(lp1383
sg13
(lp1384
S'physical'
p1385
asg16
F0.4
sg17
F1506458514.65
sg18
I5
sg19
(lp1386
(lp1387
F1506458514.65
ag1381
aF0.4
aasbsI130
(imyfunction
mondai
p1388
(dp1389
g3
S'2017-09-27 06:04:10'
p1390
sg5
F3.4115852072232865e-12
sg6
S'130.jpg'
p1391
sg8
(lp1392
sg13
(lp1393
S'physical'
p1394
asg16
F0.0
sg17
F1506459850.374
sg18
I2
sg19
(lp1395
(lp1396
F1506459850.374
ag1390
aF0.0
aasbsI131
(imyfunction
mondai
p1397
(dp1398
g3
S'2017-09-27 06:51:31'
p1399
sg5
F3.525652582088768e-12
sg6
S'131.jpg'
p1400
sg8
(lp1401
sg13
(lp1402
S'physical'
p1403
asg16
F0.0
sg17
F1506462691.94
sg18
I2
sg19
(lp1404
(lp1405
F1506462691.94
ag1399
aF0.0
aasbsI132
(imyfunction
mondai
p1406
(dp1407
g3
S'2017-09-27 18:17:18'
p1408
sg5
F5.6762657673830345e-12
sg6
S'132.jpg'
p1409
sg8
(lp1410
sg13
(lp1411
S'physical'
p1412
asg16
F0.0
sg17
F1506503838.042
sg18
I3
sg19
(lp1413
(lp1414
F1506503838.042
ag1408
aF0.0
aasbsI133
(imyfunction
mondai
p1415
(dp1416
g3
S'2017-09-27 18:49:29'
p1417
sg5
F5.804588871901418e-12
sg6
S'133.jpg'
p1418
sg8
(lp1419
sg13
(lp1420
S'physical'
p1421
asg16
F0.0
sg17
F1506505769.532
sg18
I3
sg19
(lp1422
(lp1423
F1506505769.532
ag1417
aF0.0
aasbsI134
(imyfunction
mondai
p1424
(dp1425
g3
S'2017-09-27 19:31:04'
p1426
sg5
F5.974676803067722e-12
sg6
S'134.jpg'
p1427
sg8
(lp1428
sg13
(lp1429
S'physical'
p1430
asg16
F0.0
sg17
F1506508264.869
sg18
I2
sg19
(lp1431
(lp1432
F1506508264.869
ag1426
aF0.0
aasbsI135
(imyfunction
mondai
p1433
(dp1434
g3
S'2017-09-27 19:51:49'
p1435
sg5
F6.0613806792237185e-12
sg6
S'135.jpg'
p1436
sg8
(lp1437
sg13
(lp1438
S'physical'
p1439
asg16
F0.0
sg17
F1506509509.686
sg18
I3
sg19
(lp1440
(lp1441
F1506509509.686
ag1435
aF0.0
aasbsI136
(imyfunction
mondai
p1442
(dp1443
g3
S'2017-09-27 21:50:01'
p1444
sg5
F6.579860893812943e-12
sg6
S'136.jpg'
p1445
sg8
(lp1446
sg13
(lp1447
S'physical'
p1448
asg16
F0.0
sg17
F1506516601.052
sg18
I2
sg19
(lp1449
(lp1450
F1506516601.052
ag1444
aF0.0
aasbsI137
(imyfunction
mondai
p1451
(dp1452
g3
S'2017-09-27 22:11:51'
p1453
sg5
F6.680416453158884e-12
sg6
S'137.jpg'
p1454
sg8
(lp1455
sg13
(lp1456
S'physical'
p1457
asg16
F0.0
sg17
F1506517911.457
sg18
I1
sg19
(lp1458
(lp1459
F1506517911.457
ag1453
aF0.0
aasbsI138
(imyfunction
mondai
p1460
(dp1461
g3
S'2017-10-09 00:49:26'
p1462
sg5
F4.448260632474413e-07
sg6
S'138.jpeg'
p1463
sg8
(lp1464
sg13
(lp1465
S'math'
p1466
asg16
F-0.0001974049451956143
sg17
F1507477766.193
sg18
I1
sg19
(lp1467
(lp1468
F1506740752.301
aS'2017-09-30 12:05:52'
p1469
aF0.0
aa(lp1470
F1507477766.193
ag1462
aF0.0
aasbsI139
(imyfunction
mondai
p1471
(dp1472
g3
S'2017-10-09 01:04:20'
p1473
sg5
F4.494575548479394e-07
sg6
S'139.jpeg'
p1474
sg8
(lp1475
sg13
(lp1476
S'math'
p1477
asg16
F-0.00019718972442386826
sg17
F1507478660.639
sg18
I1
sg19
(lp1478
(lp1479
F1506741552.498
aS'2017-09-30 12:19:12'
p1480
aF0.0
aa(lp1481
F1507478660.639
ag1473
aF0.0
aasbsI140
(imyfunction
mondai
p1482
(dp1483
g3
S'2017-10-09 01:16:16'
p1484
sg5
F4.5307566583672554e-07
sg6
S'140.jpeg'
p1485
sg8
(lp1486
sg13
(lp1487
S'math'
p1488
asg16
F-0.00021380765123203148
sg17
F1507479376.256
sg18
I2
sg19
(lp1489
(lp1490
F1506749258.778
aS'2017-09-30 14:27:38'
p1491
aF0.0
aa(lp1492
F1507479376.256
ag1484
aF0.0
aasbsI141
(imyfunction
mondai
p1493
(dp1494
g3
S'2017-10-09 01:21:37'
p1495
sg5
F4.547484395809797e-07
sg6
S'141.jpeg'
p1496
sg8
(lp1497
sg13
(lp1498
S'math'
p1499
asg16
F-0.0002161375707510039
sg17
F1507479697.815
sg18
I1
sg19
(lp1500
(lp1501
F1506750516.768
aS'2017-09-30 14:48:36'
p1502
aF0.0
aa(lp1503
F1507479697.815
ag1495
aF0.0
aasbsI142
(imyfunction
mondai
p1504
(dp1505
g3
S'2017-10-09 01:32:21'
p1506
sg5
F3.8784361330122235e-05
sg6
S'142.jpeg'
p1507
sg8
(lp1508
sg13
(lp1509
S'math'
p1510
asg16
F0.32978268322060134
sg17
F1507480341.279
sg18
I3
sg19
(lp1511
(lp1512
F1506751630.334
aS'2017-09-30 15:07:10'
p1513
aF0.0
aa(lp1514
F1507480341.279
ag1506
aF0.33
aasbsI143
(imyfunction
mondai
p1515
(dp1516
g3
S'2017-10-09 01:46:19'
p1517
sg5
F4.625887664801963e-07
sg6
S'143.jpeg'
p1518
sg8
(lp1519
sg13
(lp1520
S'math'
p1521
asg16
F-0.00021973610544521443
sg17
F1507481179.374
sg18
I1
sg19
(lp1522
(lp1523
F1506753424.981
aS'2017-09-30 15:37:04'
p1524
aF0.0
aa(lp1525
F1507481179.374
ag1517
aF0.0
aasbsI144
(imyfunction
mondai
p1526
(dp1527
g3
S'2017-10-09 15:58:12'
p1528
sg5
F0.00942472890743224
sg6
S'144.jpeg'
p1529
sg8
(lp1530
sg13
(lp1531
S'math'
p1532
asg16
F0.9998743516878296
sg17
F1507532292.155
sg18
I1
sg19
(lp1533
(lp1534
F1506756245.305
aS'2017-09-30 16:24:05'
p1535
aF0.0
aa(lp1536
F1507532292.155
ag1528
aF1.0
aasbsI145
(imyfunction
mondai
p1537
(dp1538
g3
S'2017-10-09 16:09:15'
p1539
sg5
F0.0003113530857306216
sg6
S'145.jpeg'
p1540
sg8
(lp1541
sg13
(lp1542
S'math'
p1543
asg16
F0.49987322288184377
sg17
F1507532955.989
sg18
I2
sg19
(lp1544
(lp1545
F1506757681.878
aS'2017-09-30 16:48:01'
p1546
aF0.0
aa(lp1547
F1507532955.989
ag1539
aF0.5
aasbsI146
(imyfunction
mondai
p1548
(dp1549
g3
S'2017-10-08 16:44:11'
p1550
sg5
F1.5106251051219921e-06
sg6
S'146.png'
p1551
sg8
(lp1552
sg13
(lp1553
S'math'
p1554
asg16
F0.1
sg17
F1507448651.688
sg18
I8
sg19
(lp1555
(lp1556
F1507448651.688
ag1550
aF0.1
aasbsI147
(imyfunction
mondai
p1557
(dp1558
g3
S'2017-10-08 17:45:40'
p1559
sg5
F0.000728945914245412
sg6
S'147.png'
p1560
sg8
(lp1561
sg13
(lp1562
S'math'
p1563
asg16
F0.66
sg17
F1507452340.628
sg18
I9
sg19
(lp1564
(lp1565
F1507452340.628
ag1559
aF0.66
aasbsI148
(imyfunction
mondai
p1566
(dp1567
g3
S'2017-10-08 22:23:05'
p1568
sg5
F7.574941838794358e-05
sg6
S'148.png'
p1569
sg8
(lp1570
sg13
(lp1571
S'math'
p1572
asg16
F0.4
sg17
F1507468985.909
sg18
I9
sg19
(lp1573
(lp1574
F1507468985.909
ag1568
aF0.4
aasbsI149
(imyfunction
mondai
p1575
(dp1576
g3
S'2017-10-08 22:56:43'
p1577
sg5
F0.002233101088062042
sg6
S'149.png'
p1578
sg8
(lp1579
sg13
(lp1580
S'math'
p1581
asg16
F0.8
sg17
F1507471003.735
sg18
I10
sg19
(lp1582
(lp1583
F1507471003.735
ag1577
aF0.8
aasbsI150
(imyfunction
mondai
p1584
(dp1585
g3
S'2017-10-09 00:34:09'
p1586
sg5
F4.670501864113211e-06
sg6
S'150.jpg'
p1587
sg8
(lp1588
sg13
(lp1589
S'math'
p1590
asg16
F0.16
sg17
F1507476849.026
sg18
I6
sg19
(lp1591
(lp1592
F1507476849.026
ag1586
aF0.16
aasbsI151
(imyfunction
mondai
p1593
(dp1594
g3
S'2017-10-09 17:25:35'
p1595
sg5
F2.5292738292985467e-05
sg6
S'151.jpg'
p1596
sg8
(lp1597
sg13
(lp1598
S'math'
p1599
asg16
F0.25
sg17
F1507537535.679
sg18
I2
sg19
(lp1600
(lp1601
F1507537535.679
ag1595
aF0.25
aasbsI152
(imyfunction
mondai
p1602
(dp1603
g3
S'2017-10-09 17:45:24'
p1604
sg5
F9.036039963819591e-07
sg6
S'152.jpg'
p1605
sg8
(lp1606
sg13
(lp1607
S'math'
p1608
asg16
F0.0
sg17
F1507538724.533
sg18
I2
sg19
(lp1609
(lp1610
F1507538724.533
ag1604
aF0.0
aasbsI153
(imyfunction
mondai
p1611
(dp1612
g3
S'2017-10-09 18:00:02'
p1613
sg5
F9.128345361647762e-07
sg6
S'153.jpeg'
p1614
sg8
(lp1615
sg13
(lp1616
S'chemistry'
p1617
asg16
F0.0
sg17
F1507539602.653
sg18
I3
sg19
(lp1618
(lp1619
F1507539602.653
ag1613
aF0.0
aasbsI154
(imyfunction
mondai
p1620
(dp1621
g3
S'2017-10-09 18:05:17'
p1622
sg5
F0.00032654645409699345
sg6
S'154.jpeg'
p1623
sg8
(lp1624
sg13
(lp1625
S'chemistry'
p1626
asg16
F0.5
sg17
F1507539917.682
sg18
I1
sg19
(lp1627
(lp1628
F1507539917.682
ag1622
aF0.5
aasbsI155
(imyfunction
mondai
p1629
(dp1630
g3
S'2017-10-09 18:14:04'
p1631
sg5
F9.217699768607991e-07
sg6
S'155.jpeg'
p1632
sg8
(lp1633
sg13
(lp1634
S'chemistry'
p1635
asg16
F0.0
sg17
F1507540444.282
sg18
I1
sg19
(lp1636
(lp1637
F1507540444.282
ag1631
aF0.0
aasbsI156
(imyfunction
mondai
p1638
(dp1639
g3
S'2017-10-09 18:17:43'
p1640
sg5
F9.241088793073746e-07
sg6
S'156.jpeg'
p1641
sg8
(lp1642
sg13
(lp1643
S'chemistry'
p1644
asg16
F0.0
sg17
F1507540663.236
sg18
I1
sg19
(lp1645
(lp1646
F1507540663.236
ag1640
aF0.0
aasbsI157
(imyfunction
mondai
p1647
(dp1648
g3
S'2017-10-09 18:41:03'
p1649
sg5
F9.392124391798749e-07
sg6
S'157.jpeg'
p1650
sg8
(lp1651
sg13
(lp1652
S'chemistry'
p1653
asg16
F0.0
sg17
F1507542063.935
sg18
I3
sg19
(lp1654
(lp1655
F1507542063.935
ag1649
aF0.0
aasbsI158
(imyfunction
mondai
p1656
(dp1657
g3
S'2017-10-09 18:47:08'
p1658
sg5
F0.0012078011287717124
sg6
S'158.jpeg'
p1659
sg8
(lp1660
sg13
(lp1661
S'chemistry'
p1662
asg16
F0.66
sg17
F1507542428.917
sg18
I2
sg19
(lp1663
(lp1664
F1507542428.917
ag1658
aF0.66
aasbsI159
(imyfunction
mondai
p1665
(dp1666
g3
S'2017-10-09 18:55:53'
p1667
sg5
F9.489308717376124e-07
sg6
S'159.jpeg'
p1668
sg8
(lp1669
sg13
(lp1670
S'chemistry'
p1671
asg16
F0.0
sg17
F1507542953.359
sg18
I1
sg19
(lp1672
(lp1673
F1507542953.359
ag1667
aF0.0
aasbsI160
(imyfunction
mondai
p1674
(dp1675
g3
S'2017-10-09 19:10:15'
p1676
sg5
F9.584483501518e-07
sg6
S'160.jpeg'
p1677
sg8
(lp1678
sg13
(lp1679
S'chemistry'
p1680
asg16
F0.0
sg17
F1507543815.607
sg18
I3
sg19
(lp1681
(lp1682
F1507543815.607
ag1676
aF0.0
aasbsI161
(imyfunction
mondai
p1683
(dp1684
g3
S'2017-10-09 19:18:28'
p1685
sg5
F0.0031762343766732464
sg6
S'161.jpeg'
p1686
sg8
(lp1687
sg13
(lp1688
S'chemistry'
p1689
asg16
F0.8
sg17
F1507544308.072
sg18
I1
sg19
(lp1690
(lp1691
F1507544308.072
ag1685
aF0.8
aasbsI162
(imyfunction
mondai
p1692
(dp1693
g3
S'2017-10-09 19:28:23'
p1694
sg5
F9.705914281798123e-07
sg6
S'162.jpeg'
p1695
sg8
(lp1696
sg13
(lp1697
S'chemistry'
p1698
asg16
F0.0
sg17
F1507544903.377
sg18
I2
sg19
(lp1699
(lp1700
F1507544903.377
ag1694
aF0.0
aasbsI163
(imyfunction
mondai
p1701
(dp1702
g3
S'2017-10-09 20:53:01'
p1703
sg5
F1.0293480363478915e-06
sg6
S'163.jpeg'
p1704
sg8
(lp1705
sg13
(lp1706
S'chemistry'
p1707
asg16
F0.0
sg17
F1507549981.563
sg18
I2
sg19
(lp1708
(lp1709
F1507549981.563
ag1703
aF0.0
aasbsI164
(imyfunction
mondai
p1710
(dp1711
g3
S'2017-10-09 21:02:21'
p1712
sg5
F1.0360407211242385e-06
sg6
S'164.jpeg'
p1713
sg8
(lp1714
sg13
(lp1715
S'chemistry'
p1716
asg16
F0.0
sg17
F1507550541.506
sg18
I2
sg19
(lp1717
(lp1718
F1507550541.506
ag1712
aF0.0
aasbsI165
(imyfunction
mondai
p1719
(dp1720
g3
S'2017-10-09 21:08:22'
p1721
sg5
F1.0403760880696455e-06
sg6
S'165.jpeg'
p1722
sg8
(lp1723
sg13
(lp1724
S'chemistry'
p1725
asg16
F0.0
sg17
F1507550902.297
sg18
I3
sg19
(lp1726
(lp1727
F1507550902.297
ag1721
aF0.0
aasbsI166
(imyfunction
mondai
p1728
(dp1729
g3
S'2017-10-11 07:58:16'
p1730
sg5
F4.441092974905911e-06
sg6
S'166.jpg'
p1731
sg8
(lp1732
(lp1733
g1730
aS'answer is 3'
p1734
aasg13
(lp1735
S'physical'
p1736
asg16
F0.0
sg17
F1507676296.193
sg18
I1
sg19
(lp1737
(lp1738
F1507676296.193
ag1730
aF0.0
aasbsI167
(imyfunction
mondai
p1739
(dp1740
g3
S'2017-10-11 08:23:17'
p1741
sg5
F4.51895261869834e-06
sg6
S'167.jpg'
p1742
sg8
(lp1743
(lp1744
g1741
aS'answer is 1'
p1745
aasg13
(lp1746
S'physical'
p1747
asg16
F0.0
sg17
F1507677797.802
sg18
I1
sg19
(lp1748
(lp1749
F1507677797.802
ag1741
aF0.0
aasbsI168
(imyfunction
mondai
p1750
(dp1751
g3
S'2017-10-11 15:27:59'
p1752
sg5
F6.069047473254873e-06
sg6
S'168.jpg'
p1753
sg8
(lp1754
(lp1755
g1752
aS'answer is 4'
p1756
aasg13
(lp1757
S'physical'
p1758
asg16
F0.0
sg17
F1507703279.013
sg18
I1
sg19
(lp1759
(lp1760
F1507703279.013
ag1752
aF0.0
aasbsI169
(imyfunction
mondai
p1761
(dp1762
g3
S'2017-10-11 16:49:30'
p1763
sg5
F6.422585821830743e-06
sg6
S'169.jpg'
p1764
sg8
(lp1765
(lp1766
g1763
aS'ans'
p1767
aasg13
(lp1768
S'physical'
p1769
asg16
F0.0
sg17
F1507708170.907
sg18
I1
sg19
(lp1770
(lp1771
F1507708170.907
ag1763
aF0.0
aasbsI170
(imyfunction
mondai
p1772
(dp1773
g3
S'2017-10-11 18:48:58'
p1774
sg5
F6.978135587192282e-06
sg6
S'170.jpg'
p1775
sg8
(lp1776
(lp1777
g1774
aS'answer is 1'
p1778
aasg13
(lp1779
S'physical'
p1780
asg16
F0.0
sg17
F1507715338.734
sg18
I1
sg19
(lp1781
(lp1782
F1507715338.734
ag1774
aF0.0
aasbsI171
(imyfunction
mondai
p1783
(dp1784
g3
S'2017-10-11 19:41:13'
p1785
sg5
F7.235976380308483e-06
sg6
S'171.jpg'
p1786
sg8
(lp1787
(lp1788
g1785
aS'answer is 3'
p1789
aasg13
(lp1790
S'physical'
p1791
asg16
F0.0
sg17
F1507718473.631
sg18
I1
sg19
(lp1792
(lp1793
F1507718473.631
ag1785
aF0.0
aasbsI172
(imyfunction
mondai
p1794
(dp1795
g3
S'2017-10-11 19:47:11'
p1796
sg5
F7.26598751392723e-06
sg6
S'172.jpg'
p1797
sg8
(lp1798
(lp1799
g1796
aS'answer is 4'
p1800
aasg13
(lp1801
S'chemistry'
p1802
asg16
F0.0
sg17
F1507718831.233
sg18
I1
sg19
(lp1803
(lp1804
F1507718831.233
ag1796
aF0.0
aasbsI173
(imyfunction
mondai
p1805
(dp1806
g3
S'2017-10-11 19:52:49'
p1807
sg5
F7.294476272051621e-06
sg6
S'173.jpg'
p1808
sg8
(lp1809
(lp1810
g1807
aS'answer is 4'
p1811
aasg13
(lp1812
S'chemistry'
p1813
asg16
F0.0
sg17
F1507719169.331
sg18
I1
sg19
(lp1814
(lp1815
F1507719169.331
ag1807
aF0.0
aasbsI174
(imyfunction
mondai
p1816
(dp1817
g3
S'2017-10-11 20:29:32'
p1818
sg5
F7.482852811634911e-06
sg6
S'174.jpg'
p1819
sg8
(lp1820
(lp1821
g1818
aS'answer is 1'
p1822
aasg13
(lp1823
S'chemistry'
p1824
asg16
F0.0
sg17
F1507721372.248
sg18
I1
sg19
(lp1825
(lp1826
F1507721372.248
ag1818
aF0.0
aasbsI175
(imyfunction
mondai
p1827
(dp1828
g3
S'2017-10-11 20:40:42'
p1829
sg5
F7.54108959838849e-06
sg6
S'175.jpg'
p1830
sg8
(lp1831
(lp1832
g1829
aS'answer is 6'
p1833
aasg13
(lp1834
S'chemistry'
p1835
asg16
F0.0
sg17
F1507722042.07
sg18
I1
sg19
(lp1836
(lp1837
F1507722042.07
ag1829
aF0.0
aasbsI176
(imyfunction
mondai
p1838
(dp1839
g3
S'2017-10-11 20:54:35'
p1840
sg5
F7.614185695778871e-06
sg6
S'176.jpg'
p1841
sg8
(lp1842
(lp1843
g1840
aS'answer is 2'
p1844
aasg13
(lp1845
S'chemistry'
p1846
asg16
F0.0
sg17
F1507722875.516
sg18
I1
sg19
(lp1847
(lp1848
F1507722875.516
ag1840
aF0.0
aasbsI177
(imyfunction
mondai
p1849
(dp1850
g3
S'2017-10-11 21:05:20'
p1851
sg5
F7.671282048149684e-06
sg6
S'177.jpg'
p1852
sg8
(lp1853
(lp1854
g1851
aS'answer is 8'
p1855
aasg13
(lp1856
S'chemistry'
p1857
asg16
F0.0
sg17
F1507723520.985
sg18
I1
sg19
(lp1858
(lp1859
F1507723520.985
ag1851
aF0.0
aasbsI178
(imyfunction
mondai
p1860
(dp1861
g3
S'2017-10-12 20:33:01'
p1862
sg5
F2.0389817363984683e-05
sg6
S'178.jpg'
p1863
sg8
(lp1864
(lp1865
g1862
aS'answer is 3'
p1866
aasg13
(lp1867
S'physical'
p1868
asg16
F0.0
sg17
F1507807981.467
sg18
I1
sg19
(lp1869
(lp1870
F1507807981.467
ag1862
aF0.0
aasbsI179
(imyfunction
mondai
p1871
(dp1872
g3
S'2017-10-12 21:04:22'
p1873
sg5
F2.0838588733400023e-05
sg6
S'179.jpg'
p1874
sg8
(lp1875
(lp1876
g1873
aS'answer is 4'
p1877
aasg13
(lp1878
S'physical'
p1879
asg16
F0.0
sg17
F1507809862.47
sg18
I1
sg19
(lp1880
(lp1881
F1507809862.47
ag1873
aF0.0
aasbsI180
(imyfunction
mondai
p1882
(dp1883
g3
S'2017-10-12 21:21:23'
p1884
sg5
F2.1086313986445887e-05
sg6
S'180.jpg'
p1885
sg8
(lp1886
(lp1887
g1884
aS'answer is 2'
p1888
aasg13
(lp1889
S'physical'
p1890
asg16
F0.0
sg17
F1507810883.52
sg18
I1
sg19
(lp1891
(lp1892
F1507810883.52
ag1884
aF0.0
aasbsI181
(imyfunction
mondai
p1893
(dp1894
g3
S'2017-10-13 00:54:07'
p1895
sg5
F2.4443231216737542e-05
sg6
S'181.jpg'
p1896
sg8
(lp1897
(lp1898
g1895
aS'answer is 2'
p1899
aasg13
(lp1900
S'physical'
p1901
asg16
F0.0
sg17
F1507823647.317
sg18
I1
sg19
(lp1902
(lp1903
F1507823647.317
ag1895
aF0.0
aasbsI182
(imyfunction
mondai
p1904
(dp1905
g3
S'2017-10-13 01:54:17'
p1906
sg5
F2.548621393624894e-05
sg6
S'182.jpg'
p1907
sg8
(lp1908
(lp1909
g1906
aS'answer is 3'
p1910
aasg13
(lp1911
S'physical'
p1912
asg16
F0.0
sg17
F1507827257.484
sg18
I1
sg19
(lp1913
(lp1914
F1507827257.484
ag1906
aF0.0
aasbsI183
(imyfunction
mondai
p1915
(dp1916
g3
S'2017-10-13 12:50:55'
p1917
sg5
F4.021079486348307e-05
sg6
S'183.jpg'
p1918
sg8
(lp1919
(lp1920
g1917
aS'answer is 7'
p1921
aasg13
(lp1922
S'physical'
p1923
asg16
F0.0
sg17
F1507866655.695
sg18
I1
sg19
(lp1924
(lp1925
F1507866655.695
ag1917
aF0.0
aasbsI184
(imyfunction
mondai
p1926
(dp1927
g3
S'2017-10-13 13:01:36'
p1928
sg5
F4.051026629080998e-05
sg6
S'184.jpg'
p1929
sg8
(lp1930
(lp1931
g1928
aS'answer is 6'
p1932
aasg13
(lp1933
S'physical'
p1934
asg16
F0.0
sg17
F1507867296.778
sg18
I1
sg19
(lp1935
(lp1936
F1507867296.778
ag1928
aF0.0
aasbsI185
(imyfunction
mondai
p1937
(dp1938
g3
S'2017-10-13 13:37:17'
p1939
sg5
F4.152642868308706e-05
sg6
S'185.jpg'
p1940
sg8
(lp1941
(lp1942
g1939
aS'answer is 4'
p1943
aasg13
(lp1944
S'chemistry'
p1945
asg16
F0.0
sg17
F1507869437.306
sg18
I1
sg19
(lp1946
(lp1947
F1507869437.306
ag1939
aF0.0
aasbsI186
(imyfunction
mondai
p1948
(dp1949
g3
S'2017-10-13 17:29:58'
p1950
sg5
F4.8809113108275146e-05
sg6
S'186.jpg'
p1951
sg8
(lp1952
(lp1953
g1950
aS'answer is 4'
p1954
aasg13
(lp1955
S'physical'
p1956
asg16
F0.0
sg17
F1507883398.421
sg18
I1
sg19
(lp1957
(lp1958
F1507883398.421
ag1950
aF0.0
aasbsI187
(imyfunction
mondai
p1959
(dp1960
g3
S'2017-10-13 17:44:23'
p1961
sg5
F4.930034270791428e-05
sg6
S'187.jpg'
p1962
sg8
(lp1963
(lp1964
g1961
aS'answer is 3'
p1965
aasg13
(lp1966
S'physical'
p1967
asg16
F0.0
sg17
F1507884263.63
sg18
I1
sg19
(lp1968
(lp1969
F1507884263.63
ag1961
aF0.0
aasbsI188
(imyfunction
mondai
p1970
(dp1971
g3
S'2017-10-13 17:51:16'
p1972
sg5
F4.953645524696604e-05
sg6
S'188.jpg'
p1973
sg8
(lp1974
(lp1975
g1972
aS'answer is 1'
p1976
aasg13
(lp1977
S'physical'
p1978
asg16
F0.0
sg17
F1507884676.435
sg18
I1
sg19
(lp1979
(lp1980
F1507884676.435
ag1972
aF0.0
aasbsI189
(imyfunction
mondai
p1981
(dp1982
g3
S'2017-10-13 17:56:35'
p1983
sg5
F4.9719756792782734e-05
sg6
S'189.jpg'
p1984
sg8
(lp1985
(lp1986
g1983
aS'answer is 1'
p1987
aasg13
(lp1988
S'physical'
p1989
asg16
F0.0
sg17
F1507884995.554
sg18
I1
sg19
(lp1990
(lp1991
F1507884995.554
ag1983
aF0.0
aasbsI190
(imyfunction
mondai
p1992
(dp1993
g3
S'2017-10-14 14:04:14'
p1994
sg5
F0.00011501369076299833
sg6
S'190.jpg'
p1995
sg8
(lp1996
(lp1997
g1994
aS'answer is 1'
p1998
aasg13
(lp1999
S'chemistry'
p2000
asg16
F0.0
sg17
F1507957454.81
sg18
I1
sg19
(lp2001
(lp2002
F1507957454.81
ag1994
aF0.0
aasbsI191
(imyfunction
mondai
p2003
(dp2004
g3
S'2017-10-14 14:23:02'
p2005
sg5
F0.00011652535798732997
sg6
S'191.jpg'
p2006
sg8
(lp2007
(lp2008
g2005
aS'answer is 6'
p2009
aasg13
(lp2010
S'chemistry'
p2011
asg16
F0.0
sg17
F1507958582.999
sg18
I1
sg19
(lp2012
(lp2013
F1507958582.999
ag2005
aF0.0
aasbsI192
(imyfunction
mondai
p2014
(dp2015
g3
S'2017-10-14 14:27:29'
p2016
sg5
F0.00011688533561418327
sg6
S'192.jpg'
p2017
sg8
(lp2018
(lp2019
g2016
aS'answer is 2'
p2020
aasg13
(lp2021
S'chemistry'
p2022
asg16
F0.0
sg17
F1507958849.5
sg18
I1
sg19
(lp2023
(lp2024
F1507958849.5
ag2016
aF0.0
aasbsI193
(imyfunction
mondai
p2025
(dp2026
g3
S'2017-10-15 00:07:09'
p2027
sg5
F0.00017481730967027577
sg6
S'193.jpg'
p2028
sg8
(lp2029
(lp2030
g2027
aS'answer is 3'
p2031
aasg13
(lp2032
S'physical'
p2033
asg16
F0.0
sg17
F1507993629.653
sg18
I1
sg19
(lp2034
(lp2035
F1507993629.653
ag2027
aF0.0
aasbsI194
(imyfunction
mondai
p2036
(dp2037
g3
S'2017-10-15 00:18:36'
p2038
sg5
F0.00017621292172878772
sg6
S'194.jpg'
p2039
sg8
(lp2040
(lp2041
g2038
aS'answer is 1'
p2042
aasg13
(lp2043
S'physical'
p2044
asg16
F0.0
sg17
F1507994316.668
sg18
I1
sg19
(lp2045
(lp2046
F1507994316.668
ag2038
aF0.0
aasbsI195
(imyfunction
mondai
p2047
(dp2048
g3
S'2017-10-15 00:26:03'
p2049
sg5
F0.00017712738197814477
sg6
S'195.jpg'
p2050
sg8
(lp2051
(lp2052
g2049
aS'answer is 4'
p2053
aasg13
(lp2054
S'physical'
p2055
asg16
F0.0
sg17
F1507994763.883
sg18
I1
sg19
(lp2056
(lp2057
F1507994763.883
ag2049
aF0.0
aasbsI196
(imyfunction
mondai
p2058
(dp2059
g3
S'2017-10-15 00:30:39'
p2060
sg5
F0.00017769291330576906
sg6
S'196.jpg'
p2061
sg8
(lp2062
(lp2063
g2060
aS'answer is 1'
p2064
aasg13
(lp2065
S'physical'
p2066
asg16
F0.0
sg17
F1507995039.301
sg18
I1
sg19
(lp2067
(lp2068
F1507995039.301
ag2060
aF0.0
aasbsI197
(imyfunction
mondai
p2069
(dp2070
g3
S'2017-10-15 01:51:08'
p2071
sg5
F0.00018790671644347911
sg6
S'197.jpg'
p2072
sg8
(lp2073
(lp2074
g2071
aS'answer is 2'
p2075
aasg13
(lp2076
S'physical'
p2077
asg16
F0.0
sg17
F1507999868.093
sg18
I1
sg19
(lp2078
(lp2079
F1507999868.093
ag2071
aF0.0
aasbsI198
(imyfunction
mondai
p2080
(dp2081
g3
S'2017-10-15 01:58:06'
p2082
sg5
F0.00018881957172401216
sg6
S'198.jpg'
p2083
sg8
(lp2084
(lp2085
g2082
aS'answer is 6'
p2086
aasg13
(lp2087
S'physical'
p2088
asg16
F0.0
sg17
F1508000286.81
sg18
I1
sg19
(lp2089
(lp2090
F1508000286.81
ag2082
aF0.0
aasbsI199
(imyfunction
mondai
p2091
(dp2092
g3
S'2017-10-15 02:02:51'
p2093
sg5
F0.00018944197119840318
sg6
S'199.jpg'
p2094
sg8
(lp2095
(lp2096
g2093
aS'answer is 4'
p2097
aasg13
(lp2098
S'chemistry'
p2099
asg16
F0.0
sg17
F1508000571.139
sg18
I1
sg19
(lp2100
(lp2101
F1508000571.139
ag2093
aF0.0
aasbsI200
(imyfunction
mondai
p2102
(dp2103
g3
S'2017-10-15 02:21:46'
p2104
sg5
F0.00019194884473832023
sg6
S'200.jpg'
p2105
sg8
(lp2106
(lp2107
g2104
aS'answer is 2'
p2108
aasg13
(lp2109
S'chemistry'
p2110
asg16
F0.0
sg17
F1508001706.966
sg18
I1
sg19
(lp2111
(lp2112
F1508001706.966
ag2104
aF0.0
aasbsI201
(imyfunction
mondai
p2113
(dp2114
g3
S'2017-10-15 02:32:25'
p2115
sg5
F0.00019337291657405928
sg6
S'201.jpg'
p2116
sg8
(lp2117
(lp2118
g2115
aS'answer is 5'
p2119
aasg13
(lp2120
S'chemistry'
p2121
asg16
F0.0
sg17
F1508002345.603
sg18
I1
sg19
(lp2122
(lp2123
F1508002345.603
ag2115
aF0.0
aasbsI202
(imyfunction
mondai
p2124
(dp2125
g3
S'2017-10-15 14:33:39'
p2126
sg5
F0.00031909153706435623
sg6
S'202.jpg'
p2127
sg8
(lp2128
(lp2129
g2126
aS'answer is 3'
p2130
aasg13
(lp2131
S'physical'
p2132
asg16
F0.0
sg17
F1508045619.689
sg18
I1
sg19
(lp2133
(lp2134
F1508045619.689
ag2126
aF0.0
aasbsI203
(imyfunction
mondai
p2135
(dp2136
g3
S'2017-10-15 15:06:25'
p2137
sg5
F0.00032643337524983554
sg6
S'203.jpg'
p2138
sg8
(lp2139
(lp2140
g2137
aS'answer is 4'
p2141
aasg13
(lp2142
S'physical'
p2143
asg16
F0.0
sg17
F1508047585.104
sg18
I1
sg19
(lp2144
(lp2145
F1508047585.104
ag2137
aF0.0
aasbsI204
(imyfunction
mondai
p2146
(dp2147
g3
S'2017-10-15 15:34:46'
p2148
sg5
F0.0003329247446228234
sg6
S'204.jpg'
p2149
sg8
(lp2150
(lp2151
g2148
aS'answer is 2'
p2152
aasg13
(lp2153
S'physical'
p2154
asg16
F0.0
sg17
F1508049286.372
sg18
I1
sg19
(lp2155
(lp2156
F1508049286.372
ag2148
aF0.0
aasbsI205
(imyfunction
mondai
p2157
(dp2158
g3
S'2017-10-15 15:38:16'
p2159
sg5
F0.00033373456167270864
sg6
S'205.jpg'
p2160
sg8
(lp2161
(lp2162
g2159
aS'answer is 6'
p2163
aasg13
(lp2164
S'physical'
p2165
asg16
F0.0
sg17
F1508049496.279
sg18
I1
sg19
(lp2166
(lp2167
F1508049496.279
ag2159
aF0.0
aasbsI206
(imyfunction
mondai
p2168
(dp2169
g3
S'2017-10-15 16:36:48'
p2170
sg5
F0.0003475821192530376
sg6
S'206.jpg'
p2171
sg8
(lp2172
(lp2173
g2170
aS'answer is 2'
p2174
aasg13
(lp2175
S'chemistry'
p2176
asg16
F0.0
sg17
F1508053008.871
sg18
I1
sg19
(lp2177
(lp2178
F1508053008.871
ag2170
aF0.0
aasbsI207
(imyfunction
mondai
p2179
(dp2180
g3
S'2017-10-15 16:41:27'
p2181
sg5
F0.0003487039810555656
sg6
S'207.jpg'
p2182
sg8
(lp2183
(lp2184
g2181
aS'answer is 5'
p2185
aasg13
(lp2186
S'chemistry'
p2187
asg16
F0.0
sg17
F1508053287.288
sg18
I1
sg19
(lp2188
(lp2189
F1508053287.288
ag2181
aF0.0
aasbsI208
(imyfunction
mondai
p2190
(dp2191
g3
S'2017-10-15 21:19:51'
p2192
sg5
F0.0004230792412874891
sg6
S'208.jpg'
p2193
sg8
(lp2194
(lp2195
g2192
aS'answer is 2'
p2196
aasg13
(lp2197
S'physical'
p2198
asg16
F0.0
sg17
F1508069991.529
sg18
I1
sg19
(lp2199
(lp2200
F1508069991.529
ag2192
aF0.0
aasbsI209
(imyfunction
mondai
p2201
(dp2202
g3
S'2017-10-16 01:40:11'
p2203
sg5
F0.0005069176925194997
sg6
S'209.jpg'
p2204
sg8
(lp2205
(lp2206
g2203
aS'answer is 2'
p2207
aasg13
(lp2208
S'physical'
p2209
asg16
F0.0
sg17
F1508085611.712
sg18
I1
sg19
(lp2210
(lp2211
F1508085611.712
ag2203
aF0.0
aasbsI210
(imyfunction
mondai
p2212
(dp2213
g3
S'2017-10-16 02:03:46'
p2214
sg5
F0.000515285480835461
sg6
S'210.jpg'
p2215
sg8
(lp2216
(lp2217
g2214
aS'answer is 4'
p2218
aasg13
(lp2219
S'physical'
p2220
asg16
F0.0
sg17
F1508087026.29
sg18
I1
sg19
(lp2221
(lp2222
F1508087026.29
ag2214
aF0.0
aasbsI211
(imyfunction
mondai
p2223
(dp2224
g3
S'2017-10-16 15:14:57'
p2225
sg5
F0.000892613567814499
sg6
S'211.jpg'
p2226
sg8
(lp2227
(lp2228
g2225
aS'answer is 4'
p2229
aasg13
(lp2230
S'physical'
p2231
asg16
F0.0
sg17
F1508134497.273
sg18
I1
sg19
(lp2232
(lp2233
F1508134497.273
ag2225
aF0.0
aasbsI212
(imyfunction
mondai
p2234
(dp2235
g3
S'2017-10-16 15:52:15'
p2236
sg5
F0.0009160434506038124
sg6
S'212.jpg'
p2237
sg8
(lp2238
(lp2239
g2236
aS'answer is 4'
p2240
aasg13
(lp2241
S'chemistry'
p2242
asg16
F0.0
sg17
F1508136735.901
sg18
I1
sg19
(lp2243
(lp2244
F1508136735.901
ag2236
aF0.0
aasbsI213
(imyfunction
mondai
p2245
(dp2246
g3
S'2017-10-16 18:02:56'
p2247
sg5
F0.01856583153891408
sg6
S'213.jpg'
p2248
sg8
(lp2249
sg13
(lp2250
S'math'
p2251
asg16
F0.5
sg17
F1508144576.122
sg18
I4
sg19
(lp2252
(lp2253
F1508144576.122
ag2247
aF0.5
aasbsI214
(imyfunction
mondai
p2254
(dp2255
g3
S'2017-10-17 00:15:42'
p2256
sg5
F0.013807593432788335
sg6
S'214.jpg'
p2257
sg8
(lp2258
sg13
(lp2259
S'math'
p2260
asg16
F0.4
sg17
F1508166942.318
sg18
I5
sg19
(lp2261
(lp2262
F1508166942.318
ag2256
aF0.4
aasbsI215
(imyfunction
mondai
p2263
(dp2264
g3
S'2017-10-17 02:24:21'
p2265
sg5
F0.056344236007908395
sg6
S'215.jpg'
p2266
sg8
(lp2267
sg13
(lp2268
S'math'
p2269
asg16
F0.75
sg17
F1508174661.772
sg18
I4
sg19
(lp2270
(lp2271
F1508174661.772
ag2265
aF0.75
aasbsI216
(imyfunction
mondai
p2272
(dp2273
g3
S'2017-10-17 02:43:39'
p2274
sg5
F0.04205769549195843
sg6
S'216.jpg'
p2275
sg8
(lp2276
sg13
(lp2277
S'math'
p2278
asg16
F0.66
sg17
F1508175819.491
sg18
I3
sg19
(lp2279
(lp2280
F1508175819.491
ag2274
aF0.66
aasbsI217
(imyfunction
mondai
p2281
(dp2282
g3
S'2017-10-17 14:56:19'
p2283
sg5
F0.07084983255480577
sg6
S'217.jpg'
p2284
sg8
(lp2285
sg13
(lp2286
S'math'
p2287
asg16
F0.75
sg17
F1508219779.466
sg18
I4
sg19
(lp2288
(lp2289
F1508219779.466
ag2283
aF0.75
aasbsI218
(imyfunction
mondai
p2290
(dp2291
g3
S'2017-10-17 16:22:14'
p2292
sg5
F0.031762911670517105
sg6
S'218.jpg'
p2293
sg8
(lp2294
sg13
(lp2295
S'math'
p2296
asg16
F0.5
sg17
F1508224934.21
sg18
I5
sg19
(lp2297
(lp2298
F1508224934.21
ag2292
aF0.5
aasbsI219
(imyfunction
mondai
p2299
(dp2300
g3
S'2017-10-17 16:31:02'
p2301
sg5
F0.0136680435083549
sg6
S'219.jpg'
p2302
sg8
(lp2303
sg13
(lp2304
S'math'
p2305
asg16
F0.3
sg17
F1508225462.692
sg18
I4
sg19
(lp2306
(lp2307
F1508225462.692
ag2301
aF0.3
aasbsI220
(imyfunction
mondai
p2308
(dp2309
g3
S'2017-10-17 17:52:33'
p2310
sg5
F0.08587334857791755
sg6
S'220.jpg'
p2311
sg8
(lp2312
sg13
(lp2313
S'math'
p2314
asg16
F0.8
sg17
F1508230353.749
sg18
I5
sg19
(lp2315
(lp2316
F1508230353.749
ag2310
aF0.8
aasbsI221
(imyfunction
mondai
p2317
(dp2318
g3
S'2017-10-17 20:59:50'
p2319
sg5
F0.050244769117539057
sg6
S'221.jpg'
p2320
sg8
(lp2321
sg13
(lp2322
S'math'
p2323
asg16
F0.6
sg17
F1508241590.206
sg18
I10
sg19
(lp2324
(lp2325
F1508241590.206
ag2319
aF0.6
aasbsI222
(imyfunction
mondai
p2326
(dp2327
g3
S'2017-10-19 03:06:47'
p2328
sg5
F0.07326443166180008
sg6
S'222.jpg'
p2329
sg8
(lp2330
sg13
(lp2331
S'math'
p2332
asg16
F0.5
sg17
F1508350007.402
sg18
I6
sg19
(lp2333
(lp2334
F1508350007.402
ag2328
aF0.5
aasbsI223
(imyfunction
mondai
p2335
(dp2336
g3
S'2017-10-19 03:22:49'
p2337
sg5
F0.0894334840847011
sg6
S'223.jpg'
p2338
sg8
(lp2339
sg13
(lp2340
S'math'
p2341
asg16
F0.57
sg17
F1508350969.765
sg18
I7
sg19
(lp2342
(lp2343
F1508350969.765
ag2337
aF0.57
aasbsI224
(imyfunction
mondai
p2344
(dp2345
g3
S'2017-10-19 03:54:31'
p2346
sg5
F0.04383548718314838
sg6
S'224.jpg'
p2347
sg8
(lp2348
sg13
(lp2349
S'math'
p2350
asg16
F0.33
sg17
F1508352871.541
sg18
I6
sg19
(lp2351
(lp2352
F1508352871.541
ag2346
aF0.33
aasbsI225
(imyfunction
mondai
p2353
(dp2354
g3
S'2017-10-19 23:58:53'
p2355
sg5
F0.0947157518656277
sg6
S'225.jpg'
p2356
sg8
(lp2357
sg13
(lp2358
S'math'
p2359
asg16
F0.4
sg17
F1508425133.985
sg18
I5
sg19
(lp2360
(lp2361
F1508425133.985
ag2355
aF0.4
aasbsI226
(imyfunction
mondai
p2362
(dp2363
g3
S'2017-10-20 00:16:15'
p2364
sg5
F0.24807548748357616
sg6
S'226.jpg'
p2365
sg8
(lp2366
sg13
(lp2367
S'math'
p2368
asg16
F0.875
sg17
F1508426175.882
sg18
I6
sg19
(lp2369
(lp2370
F1508426175.882
ag2364
aF0.875
aasbsI227
(imyfunction
mondai
p2371
(dp2372
g3
S'2017-10-20 03:06:07'
p2373
sg5
F0.13047216327048788
sg6
S'227.jpg'
p2374
sg8
(lp2375
sg13
(lp2376
S'math'
p2377
asg16
F0.5
sg17
F1508436367.652
sg18
I4
sg19
(lp2378
(lp2379
F1508436367.652
ag2373
aF0.5
aasbsI228
(imyfunction
mondai
p2380
(dp2381
g3
S'2017-10-20 03:28:45'
p2382
sg5
F0.08682525035069255
sg6
S'228.jpg'
p2383
sg8
(lp2384
sg13
(lp2385
S'math'
p2386
asg16
F0.33
sg17
F1508437725.656
sg18
I6
sg19
(lp2387
(lp2388
F1508437725.656
ag2382
aF0.33
aasbsI229
(imyfunction
mondai
p2389
(dp2390
g3
S'2017-10-20 05:28:17'
p2391
sg5
F0.0738811156961894
sg6
S'229.jpg'
p2392
sg8
(lp2393
sg13
(lp2394
S'math'
p2395
asg16
F0.25
sg17
F1508444897.203
sg18
I4
sg19
(lp2396
(lp2397
F1508444897.203
ag2391
aF0.25
aasbsI230
(imyfunction
mondai
p2398
(dp2399
g3
S'2017-10-20 05:29:58'
p2400
sg5
F0.24092088982546891
sg6
S'230.jpg'
p2401
sg8
(lp2402
sg13
(lp2403
S'math'
p2404
asg16
F0.8
sg17
F1508444998.374
sg18
I5
sg19
(lp2405
(lp2406
F1508444998.374
ag2400
aF0.8
aasbsI231
(imyfunction
mondai
p2407
(dp2408
g3
S'2017-10-20 05:39:15'
p2409
sg5
F0.13873363566091762
sg6
S'231.jpg'
p2410
sg8
(lp2411
sg13
(lp2412
S'math'
p2413
asg16
F0.5
sg17
F1508445555.5
sg18
I2
sg19
(lp2414
(lp2415
F1508445555.5
ag2409
aF0.5
aasbsI232
(imyfunction
mondai
p2416
(dp2417
g3
S'2017-10-20 05:44:38'
p2418
sg5
F0.03279726084912382
sg6
S'232.jpg'
p2419
sg8
(lp2420
sg13
(lp2421
S'math'
p2422
asg16
F0.0
sg17
F1508445878.253
sg18
I2
sg19
(lp2423
(lp2424
F1508445878.253
ag2418
aF0.0
aasbsI233
(imyfunction
mondai
p2425
(dp2426
g3
S'2017-10-20 12:10:00'
p2427
sg5
F0.04286126020384179
sg6
S'233.jpg'
p2428
sg8
(lp2429
sg13
(lp2430
S'math'
p2431
asg16
F0.0
sg17
F1508469000.914
sg18
I1
sg19
(lp2432
(lp2433
F1508469000.914
ag2427
aF0.0
aasbsI234
(imyfunction
mondai
p2434
(dp2435
g3
S'2017-10-20 17:55:09'
p2436
sg5
F0.054469950956588825
sg6
S'234.jpg'
p2437
sg8
(lp2438
sg13
(lp2439
S'math'
p2440
asg16
F0.0
sg17
F1508489709.335
sg18
I1
sg19
(lp2441
(lp2442
F1508489709.335
ag2436
aF0.0
aasbsI235
(imyfunction
mondai
p2443
(dp2444
g3
S'2017-10-21 01:17:00'
p2445
sg5
F0.16338886857556925
sg6
S'235.jpg'
p2446
sg8
(lp2447
sg13
(lp2448
S'math'
p2449
asg16
F0.33
sg17
F1508516220.781
sg18
I3
sg19
(lp2450
(lp2451
F1508516220.781
ag2445
aF0.33
aasbsI236
(imyfunction
mondai
p2452
(dp2453
g3
S'2017-10-21 03:21:57'
p2454
sg5
F0.17355847994485651
sg6
S'236.jpg'
p2455
sg8
(lp2456
sg13
(lp2457
S'math'
p2458
asg16
F0.33
sg17
F1508523717.444
sg18
I1
sg19
(lp2459
(lp2460
F1508523717.444
ag2454
aF0.33
aasbsI237
(imyfunction
mondai
p2461
(dp2462
g3
S'2017-10-21 20:08:26'
p2463
sg5
F0.16242443767863385
sg6
S'237.jpg'
p2464
sg8
(lp2465
(lp2466
g2463
aS'answer is 4'
p2467
aasg13
(lp2468
S'math'
p2469
asg16
F0.0
sg17
F1508584106.839
sg18
I1
sg19
(lp2470
(lp2471
F1508584106.839
ag2463
aF0.0
aasbsI238
(imyfunction
mondai
p2472
(dp2473
g3
S'2017-10-22 08:45:21'
p2474
sg5
F0.27474445240950246
sg6
S'238.jpg'
p2475
sg8
(lp2476
sg13
(lp2477
S'math'
p2478
asg16
F0.0
sg17
F1508629521.142
sg18
I1
sg19
(lp2479
(lp2480
F1508629521.142
ag2474
aF0.0
aasbsI239
(imyfunction
mondai
p2481
(dp2482
g3
S'2017-10-23 15:46:29'
p2483
sg5
F0.0
sg6
S'239.jpeg'
p2484
sg8
(lp2485
sg13
(lp2486
S'math'
p2487
asg16
F0.6
sg17
F1508741189.11
sg18
I5
sg19
(lp2488
(lp2489
F1508741189.11
ag2483
aF0.6
aasbs.