(dp0
I1
(imyfunction
mondai
p1
(dp2
S'wordtime'
p3
S'2017-10-05 19:17:13'
p4
sS'remember'
p5
F3.138282716847741e-14
sS'imgnum'
p6
S'1.png'
p7
sS'memo'
p8
(lp9
(lp10
F1498515733.947
aS'2017-06-27 07:22:13'
p11
aS'answer 3'
p12
aasS'tag'
p13
(lp14
S'chemistry'
p15
asS'understand'
p16
F0.9993169534109716
sS'lasttime'
p17
F1507198633.675
sS'qusnum'
p18
I1
sS'history'
p19
(lp20
(lp21
F1498515733.947
ag11
aI0
aa(lp22
F1499145499.01
aS'2017-07-04 14:18:19'
p23
aI1
aa(lp24
F1507198633.675
ag4
aF0.0
aasbsI2
(imyfunction
mondai
p25
(dp26
g3
S'2017-10-01 21:56:41'
p27
sg5
F0.2733109178514044
sg6
S'2.jpg'
p28
sg8
(lp29
S'answer is 3'
p30
aS'0'
p31
asg13
(lp32
g15
asg16
F0.9990451863019874
sg17
F1506862601.36
sg19
(lp33
(lp34
F1498545603.881
aS'2017-06-27 15:40:03'
p35
aI0
aa(lp36
F1499146428.99
aS'2017-07-04 14:33:48'
p37
aI0
aa(lp38
F1506862601.36
ag27
aF1.0
aasbsI3
(imyfunction
mondai
p39
(dp40
g3
S'2017-07-12 03:37:55'
p41
sg5
F3.988690369467461e-13
sg6
S'3.jpg'
p42
sg8
(lp43
S'answer is 5'
p44
asg13
(lp45
g15
asg16
F0.9999994937212187
sg17
F1499798275.889
sg19
(lp46
(lp47
F1498545806.078
aS'2017-06-27 15:43:26'
p48
aI0
aa(lp49
F1499798275.889
ag41
aI1
aasbsI4
(imyfunction
mondai
p50
(dp51
g3
S'2017-07-12 03:40:20'
p52
sg5
F3.9909165437480267e-13
sg6
S'4.jpg'
p53
sg8
(lp54
S'answer is 2'
p55
asg13
(lp56
g15
asg16
F0.9999994935594296
sg17
F1499798420.515
sg19
(lp57
(lp58
F1498545978.31
aS'2017-06-27 15:46:18'
p59
aI0
aa(lp60
F1499798420.515
ag52
aI1
aasbsI5
(imyfunction
mondai
p61
(dp62
g3
S'2017-07-12 03:41:46'
p63
sg5
F3.9922286298178517e-13
sg6
S'5.jpg'
p64
sg8
(lp65
S'answer is 3'
p66
asg13
(lp67
g15
asg16
F0.9999994359484087
sg17
F1499798506.186
sg19
(lp68
(lp69
F1498555372.608
aS'2017-06-27 18:22:52'
p70
aI0
aa(lp71
F1499798506.186
ag63
aI1
aasbsI6
(imyfunction
mondai
p72
(dp73
g3
S'2017-07-12 03:44:19'
p74
sg5
F3.9945946517408205e-13
sg6
S'6.jpg'
p75
sg8
(lp76
S'answer is 5'
p77
asg13
(lp78
g15
asg16
F0.9999994346046224
sg17
F1499798659.768
sg19
(lp79
(lp80
F1498555731.783
aS'2017-06-27 18:28:51'
p81
aI0
aa(lp82
F1499798659.768
ag74
aI1
aasbsI7
(imyfunction
mondai
p83
(dp84
g3
S'2017-07-12 03:45:07'
p85
sg5
F3.995272463415341e-13
sg6
S'7.jpg'
p86
sg8
(lp87
S'answer is 1'
p88
asg13
(lp89
g15
asg16
F0.999998982652945
sg17
F1499798707.42
sg19
(lp90
(lp91
F1498606533.242
aS'2017-06-28 08:35:33'
p92
aI0
aa(lp93
F1499798707.42
ag85
aI1
aasbsI8
(imyfunction
mondai
p94
(dp95
g3
S'2017-07-12 03:45:38'
p96
sg5
F3.9957294250190796e-13
sg6
S'8.jpg'
p97
sg8
(lp98
S'answer is 4'
p99
asg13
(lp100
g15
asg16
F0.9999988380453558
sg17
F1499798738.24
sg19
(lp101
(lp102
F1498618047.081
aS'2017-06-28 11:47:27'
p103
aI0
aa(lp104
F1499798738.24
ag96
aI1
aasbsI9
(imyfunction
mondai
p105
(dp106
g3
S'2017-10-01 21:43:25'
p107
sg5
F0.27284422065494124
sg6
S'9.jpg'
p108
sg8
(lp109
S'answer is 2'
p110
asg13
(lp111
g15
asg16
F1.0
sg17
F1506861805.88
sg19
(lp112
(lp113
F1498631047.991
aS'2017-06-28 15:24:07'
p114
aI0
aa(lp115
F1506861805.88
ag107
aF1.0
aasbsI10
(imyfunction
mondai
p116
(dp117
g3
S'2017-10-01 21:52:59'
p118
sg5
F0.27344908638943155
sg6
S'10.jpg'
p119
sg8
(lp120
S'answer is 4'
p121
aS'0'
p122
asg13
(lp123
g15
asg16
F1.0
sg17
F1506862379.862
sg19
(lp124
(lp125
F1498631158.414
aS'2017-06-28 15:25:58'
p126
aI0
aa(lp127
F1506862379.862
ag118
aF1.0
aasbsI11
(imyfunction
mondai
p128
(dp129
g3
S'2017-10-01 22:03:45'
p130
sg5
F0.15255823767503382
sg6
S'11.jpg'
p131
sg8
(lp132
(lp133
F1499144054.099
aS'2017-07-04 13:54:14'
p134
aS'answer 2,3,2'
p135
aasg13
(lp136
g15
asg16
F0.66
sg17
F1506863025.03
sg19
(lp137
(lp138
F1499144054.099
ag134
aI0
aa(lp139
F1506863025.03
ag130
aF0.66
aasbsI12
(imyfunction
mondai
p140
(dp141
g3
S'2017-10-01 22:10:11'
p142
sg5
F0.2745393684464947
sg6
S'12.jpg'
p143
sg8
(lp144
(lp145
F1499144401.683
aS'2017-07-04 14:00:01'
p146
aS'answer 3'
p147
aasg13
(lp148
g15
asg16
F1.0
sg17
F1506863411.276
sg19
(lp149
(lp150
F1499144401.683
ag146
aI0
aa(lp151
F1506863411.276
ag142
aF1.0
aasbsI13
(imyfunction
mondai
p152
(dp153
g3
S'2017-10-02 00:01:23'
p154
sg5
F0.28502409171321474
sg6
S'13.jpg'
p155
sg8
(lp156
(lp157
F1499144716.146
aS'2017-07-04 14:05:16'
p158
aS'answer 3'
p159
aasg13
(lp160
g15
asg16
F1.0084715513436913
sg17
F1506870083.757
sg18
I1
sg19
(lp161
F1499144716.146
ag158
aI0
a(lp162
F1506870083.757
ag154
aF1.0
aasbsI14
(imyfunction
mondai
p163
(dp164
g3
S'2017-10-01 22:21:15'
p165
sg5
F0.2752436609082953
sg6
S'14.jpg'
p166
sg8
(lp167
sg13
(lp168
S'math'
p169
asg16
F1.0
sg17
F1506864075.366
sg19
(lp170
(lp171
F1499153099.088
aS'2017-07-04 16:24:59'
p172
aI0
aa(lp173
F1506864075.366
ag165
aF1.0
aasbsI15
(imyfunction
mondai
p174
(dp175
g3
S'2017-10-01 22:37:19'
p176
sg5
F0.2762692652492786
sg6
S'15.png'
p177
sg8
(lp178
sg13
(lp179
g169
asg16
F1.0
sg17
F1506865039.394
sg18
I1
sg19
(lp180
(lp181
F1499166125.188
aS'2017-07-04 20:02:05'
p182
aI0
aa(lp183
F1506865039.394
ag176
aF1.0
aasbsI16
(imyfunction
mondai
p184
(dp185
g3
S'2017-10-01 23:12:20'
p186
sg5
F0.10925878789752792
sg6
S'16.png'
p187
sg8
(lp188
S'\xbb\xad\xcd\xbc\xba\xf3\xd5\xd2\xbd\xbb\xb5\xe3'
p189
asg13
(lp190
S'math'
p191
asg16
F0.5
sg17
F1506867140.211
sg18
I1
sg19
(lp192
(lp193
F1499170126.383
aS'2017-07-04 21:08:46'
p194
aI0
aa(lp195
F1506867140.211
ag186
aF0.5
aasbsI17
(imyfunction
mondai
p196
(dp197
g3
S'2017-10-01 23:20:09'
p198
sg5
F0.2790226863178298
sg6
S'17.jpg'
p199
sg8
(lp200
S'answer is 4'
p201
asg13
(lp202
S'chemistry'
p203
asg16
F1.0
sg17
F1506867609.907
sg18
I1
sg19
(lp204
(lp205
F1499177974.623
aS'2017-07-04 23:19:34'
p206
aI0
aa(lp207
F1506867609.907
ag198
aF1.0
aasbsI18
(imyfunction
mondai
p208
(dp209
g3
S'2017-10-01 23:48:15'
p210
sg5
F0.280843178150847
sg6
S'18.jpg'
p211
sg8
(lp212
S'answer is 1'
p213
asg13
(lp214
g203
asg16
F1.0
sg17
F1506869295.572
sg18
I1
sg19
(lp215
(lp216
F1499178166.958
aS'2017-07-04 23:22:46'
p217
aI0
aa(lp218
F1506869295.572
ag210
aF1.0
aasbsI19
(imyfunction
mondai
p219
(dp220
g3
S'2017-10-02 00:09:31'
p221
sg5
F0.02248057437707598
sg6
S'19.jpg'
p222
sg8
(lp223
sg13
(lp224
g191
asg16
F-4.319757436694465e-39
sg17
F1506870571.946
sg18
I1
sg19
(lp225
(lp226
F1499238201.632
aS'2017-07-05 16:03:21'
p227
aI0
aa(lp228
F1506870571.946
ag221
aF0.0
aasbsI20
(imyfunction
mondai
p229
(dp230
g3
S'2017-10-02 23:12:05'
p231
sg5
F0.46832736416655163
sg6
S'20.jpg'
p232
sg8
(lp233
sg13
(lp234
g191
asg16
F1.2
sg17
F1506953525.889
sg18
I9
sg19
(lp235
(lp236
F1499509485.541
aS'2017-07-08 19:24:45'
p237
aF0.2
aa(lp238
F1506953525.889
ag231
aF1.0
aasbsI21
(imyfunction
mondai
p239
(dp240
g3
S'2017-10-03 01:07:00'
p241
sg5
F0.39915864335008316
sg6
S'21.jpg'
p242
sg8
(lp243
sg13
(lp244
g203
asg16
F1.0
sg17
F1506960420.575
sg18
I2
sg19
(lp245
(lp246
F1499516368.113
aS'2017-07-08 21:19:28'
p247
aF0.5
aa(lp248
F1506960420.575
ag241
aF0.5
aasbsI22
(imyfunction
mondai
p249
(dp250
g3
S'2017-10-02 00:11:37'
p251
sg5
F0.022513269116403133
sg6
S'22.jpg'
p252
sg8
(lp253
sg13
(lp254
g203
asg16
F-1.2767226406916503e-37
sg17
F1506870697.511
sg18
I1
sg19
(lp255
(lp256
F1499530900.691
aS'2017-07-09 01:21:40'
p257
aI0
aa(lp258
F1506870697.511
ag251
aF0.0
aasbsI23
(imyfunction
mondai
p259
(dp260
g3
S'2017-10-02 00:16:00'
p261
sg5
F0.022582024249392523
sg6
S'23.jpg'
p262
sg8
(lp263
sg13
(lp264
g203
asg16
F-1.2735640649936628e-37
sg17
F1506870960.973
sg18
I1
sg19
(lp265
(lp266
F1499530950.137
aS'2017-07-09 01:22:30'
p267
aI0
aa(lp268
F1506870960.973
ag261
aF0.0
aasbsI24
(imyfunction
mondai
p269
(dp270
g3
S'2017-10-02 00:20:08'
p271
sg5
F0.2829236335437889
sg6
S'24.jpg'
p272
sg8
(lp273
sg13
(lp274
S'chemistry'
p275
asg16
F1.0
sg17
F1506871208.62
sg18
I1
sg19
(lp276
(lp277
F1499547136.371
aS'2017-07-09 05:52:16'
p278
aI0
aa(lp279
F1506871208.62
ag271
aF1.0
aasbsI25
(imyfunction
mondai
p280
(dp281
g3
S'2017-10-02 00:22:31'
p282
sg5
F0.022684236497457096
sg6
S'25.jpg'
p283
sg8
(lp284
sg13
(lp285
g275
asg16
F-1.5333235087123314e-37
sg17
F1506871351.16
sg18
I1
sg19
(lp286
(lp287
F1499547377.744
aS'2017-07-09 05:56:17'
p288
aI0
aa(lp289
F1506871351.16
ag282
aF0.0
aasbsI26
(imyfunction
mondai
p290
(dp291
g3
S'2017-10-02 00:25:09'
p292
sg5
F0.022725720636582618
sg6
S'26.jpg'
p293
sg8
(lp294
sg13
(lp295
g275
asg16
F-1.5313339114056128e-37
sg17
F1506871509.021
sg18
I1
sg19
(lp296
(lp297
F1499547423.422
aS'2017-07-09 05:57:03'
p298
aI0
aa(lp299
F1506871509.021
ag292
aF0.0
aasbsI27
(imyfunction
mondai
p300
(dp301
g3
S'2017-10-02 00:29:55'
p302
sg5
F0.28356441167702945
sg6
S'27.jpg'
p303
sg8
(lp304
sg13
(lp305
g275
asg16
F1.0
sg17
F1506871795.004
sg18
I1
sg19
(lp306
(lp307
F1499547463.182
aS'2017-07-09 05:57:43'
p308
aI0
aa(lp309
F1506871795.004
ag302
aF1.0
aasbsI28
(imyfunction
mondai
p310
(dp311
g3
S'2017-10-02 00:31:26'
p312
sg5
F0.2836640038117693
sg6
S'28.jpg'
p313
sg8
(lp314
sg13
(lp315
g275
asg16
F1.0
sg17
F1506871886.023
sg18
I1
sg19
(lp316
(lp317
F1499616196.736
aS'2017-07-10 01:03:16'
p318
aI0
aa(lp319
F1506871886.023
ag312
aF1.0
aasbsI29
(imyfunction
mondai
p320
(dp321
g3
S'2017-10-05 01:19:58'
p322
sg5
F0.8729054168942864
sg6
S'29.jpg'
p323
sg8
(lp324
sg13
(lp325
S'math'
p326
asg16
F1.55
sg17
F1507133998.435
sg18
I5
sg19
(lp327
(lp328
F1499616732.384
aS'2017-07-10 01:12:12'
p329
aF0.75
aa(lp330
F1507133998.435
ag322
aF0.8
aasbsI30
(imyfunction
mondai
p331
(dp332
g3
S'2017-10-02 00:32:05'
p333
sg5
F0.2837070962157535
sg6
S'30.png'
p334
sg8
(lp335
sg13
(lp336
g275
asg16
F1.0
sg17
F1506871925.396
sg18
I1
sg19
(lp337
(lp338
F1499680704.857
aS'2017-07-10 18:58:24'
p339
aI0
aa(lp340
F1506871925.396
ag333
aF1.0
aasbsI31
(imyfunction
mondai
p341
(dp342
g3
S'2017-10-03 00:04:06'
p343
sg5
F0.2929249410401043
sg6
S'31.jpg'
p344
sg8
(lp345
sg13
(lp346
g326
asg16
F0.75
sg17
F1506956646.764
sg18
I10
sg19
(lp347
(lp348
F1499797297.774
aS'2017-07-12 03:21:37'
p349
aF0.45
aa(lp350
F1506956646.764
ag343
aF0.3
aasbsI32
(imyfunction
mondai
p351
(dp352
g3
S'2017-10-02 22:55:47'
p353
sg5
F0.30669091349969513
sg6
S'32.jpg'
p354
sg8
(lp355
sg13
(lp356
g326
asg16
F0.8
sg17
F1506952547.162
sg18
I4
sg19
(lp357
(lp358
F1499797470.167
aS'2017-07-12 03:24:30'
p359
aF0.05
aa(lp360
F1506952547.162
ag353
aF0.75
aasbsI33
(imyfunction
mondai
p361
(dp362
g3
S'2017-10-02 22:33:57'
p363
sg5
F0.38526473995839355
sg6
S'33.jpg'
p364
sg8
(lp365
sg13
(lp366
S'physics'
p367
asg16
F1.0
sg17
F1506951237.584
sg18
I1
sg19
(lp368
(lp369
F1500064604.639
aS'2017-07-15 05:36:44'
p370
aI0
aa(lp371
F1506951237.584
ag363
aF1.0
aasbsI34
(imyfunction
mondai
p372
(dp373
g3
S'2017-10-03 01:17:02'
p374
sg5
F0.08523889992416507
sg6
S'34.jpg'
p375
sg8
(lp376
sg13
(lp377
S'physical'
p378
asg16
F0.1
sg17
F1506961022.079
sg18
I9
sg19
(lp379
(lp380
F1502980173.751
aS'2017-08-17 23:29:33'
p381
aF0.0
aa(lp382
F1506961022.079
ag374
aF0.1
aasbsI35
(imyfunction
mondai
p383
(dp384
g3
S'2017-08-18 01:12:53'
p385
sg5
F5.972380714709981e-13
sg6
S'35.jpeg'
p386
sg8
(lp387
sg13
(lp388
S'physical'
p389
asg16
F0.5
sg17
F1502986373.885
sg19
(lp390
(lp391
F1502986373.885
ag385
aF0.5
aasbsI36
(imyfunction
mondai
p392
(dp393
g3
S'2017-08-19 01:39:30'
p394
sg5
F8.052358648770663e-10
sg6
S'36.jpeg'
p395
sg8
(lp396
sg13
(lp397
S'physical'
p398
asg16
F0.75
sg17
F1503074370.742
sg19
(lp399
(lp400
F1503074370.742
ag394
aF0.75
aasbsI37
(imyfunction
mondai
p401
(dp402
g3
S'2017-08-19 02:05:31'
p403
sg5
F1.9089658235691915e-11
sg6
S'37.jpeg'
p404
sg8
(lp405
sg13
(lp406
S'physical'
p407
asg16
F0.6
sg17
F1503075931.234
sg19
(lp408
(lp409
F1503075931.234
ag403
aF0.6
aasbsI38
(imyfunction
mondai
p410
(dp411
g3
S'2017-08-19 03:13:53'
p412
sg5
F2.534040644102962e-09
sg6
S'38.jpeg'
p413
sg8
(lp414
sg13
(lp415
S'physical'
p416
asg16
F0.8
sg17
F1503080033.486
sg19
(lp417
(lp418
F1503080033.486
ag412
aF0.8
aasbsI39
(imyfunction
mondai
p419
(dp420
g3
S'2017-08-19 03:42:09'
p421
sg5
F8.358919323403711e-10
sg6
S'39.jpeg'
p422
sg8
(lp423
sg13
(lp424
S'physical'
p425
asg16
F0.75
sg17
F1503081729.58
sg19
(lp426
(lp427
F1503081729.58
ag421
aF0.75
aasbsI40
(imyfunction
mondai
p428
(dp429
g3
S'2017-08-19 03:59:08'
p430
sg5
F2.0102562330985136e-08
sg6
S'40.jpeg'
p431
sg8
(lp432
sg13
(lp433
S'physical'
p434
asg16
F0.9
sg17
F1503082748.531
sg19
(lp435
(lp436
F1503082748.531
ag430
aF0.9
aasbsI41
(imyfunction
mondai
p437
(dp438
g3
S'2017-08-20 18:55:50'
p439
sg5
F4.6033181941053775e-11
sg6
S'41.jpg'
p440
sg8
(lp441
sg13
(lp442
S'physical'
p443
asg16
F0.6
sg17
F1503222950.967
sg19
(lp444
(lp445
F1503222950.967
ag439
aF0.6
aasbsI42
(imyfunction
mondai
p446
(dp447
g3
S'2017-10-05 01:55:43'
p448
sg5
F0.560420526789314
sg6
S'42.jpg'
p449
sg8
(lp450
sg13
(lp451
S'physical'
p452
asg16
F0.19999999999999984
sg17
F1507136143.167
sg18
I4
sg19
(lp453
(lp454
F1503226800.354
aS'2017-08-20 20:00:00'
p455
aF0.2
aa(lp456
F1507136143.167
ag448
aF0.0
aasbsI43
(imyfunction
mondai
p457
(dp458
g3
S'2017-10-03 01:20:37'
p459
sg5
F0.06420150299612358
sg6
S'43.png'
p460
sg8
(lp461
sg13
(lp462
S'chemistry'
p463
asg16
F-1.8098353944148892e-19
sg17
F1506961237.95
sg18
I1
sg19
(lp464
(lp465
F1503232569.843
aS'2017-08-20 21:36:09'
p466
aF0.0
aa(lp467
F1506961237.95
ag459
aF0.0
aasbsI44
(imyfunction
mondai
p468
(dp469
g3
S'2017-08-20 21:55:40'
p470
sg5
F3.119083285577665e-12
sg6
S'44.png'
p471
sg8
(lp472
sg13
(lp473
S'chemistry'
p474
asg16
F0.5
sg17
F1503233740.794
sg19
(lp475
(lp476
F1503233740.794
ag470
aF0.5
aasbsI45
(imyfunction
mondai
p477
(dp478
g3
S'2017-10-03 01:24:41'
p479
sg5
F0.06438308917325286
sg6
S'45.png'
p480
sg8
(lp481
sg13
(lp482
S'chemistry'
p483
asg16
F-2.0662316017965216e-19
sg17
F1506961481.977
sg18
I1
sg19
(lp484
(lp485
F1503244261.055
aS'2017-08-21 00:51:01'
p486
aF0.0
aa(lp487
F1506961481.977
ag479
aF0.0
aasbsI46
(imyfunction
mondai
p488
(dp489
g3
S'2017-08-21 01:10:28'
p490
sg5
F1.9192180285779483e-09
sg6
S'46.png'
p491
sg8
(lp492
S'answer is 7'
p493
asg13
(lp494
S'chemistry'
p495
asg16
F0.75
sg17
F1503245428.763
sg19
(lp496
(lp497
F1503245428.763
ag490
aF0.75
aasbsI47
(imyfunction
mondai
p498
(dp499
g3
S'2017-10-03 01:43:06'
p500
sg5
F0.06521155439453843
sg6
S'47.png'
p501
sg8
(lp502
sg13
(lp503
S'chemistry'
p504
asg16
F-2.0990110472453477e-19
sg17
F1506962586.658
sg18
I1
sg19
(lp505
(lp506
F1503246725.658
aS'2017-08-21 01:32:05'
p507
aF0.0
aa(lp508
F1506962586.658
ag500
aF0.0
aasbsI48
(imyfunction
mondai
p509
(dp510
g3
S'2017-10-03 01:46:05'
p511
sg5
F0.0653469097759537
sg6
S'48.png'
p512
sg8
(lp513
sg13
(lp514
S'chemistry'
p515
asg16
F-2.1089833665454635e-19
sg17
F1506962765.807
sg18
I1
sg19
(lp516
(lp517
F1503247314.318
aS'2017-08-21 01:41:54'
p518
aF0.0
aa(lp519
F1506962765.807
ag511
aF0.0
aasbsI49
(imyfunction
mondai
p520
(dp521
g3
S'2017-10-03 02:01:29'
p522
sg5
F0.4042253207796363
sg6
S'49.png'
p523
sg8
(lp524
sg13
(lp525
S'chemistry'
p526
asg16
F1.0
sg17
F1506963689.996
sg18
I0
sg19
(lp527
(lp528
F1503255138.538
aS'2017-08-21 03:52:18'
p529
aF0.0
aa(lp530
F1506963689.996
ag522
aF1.0
aasbsI50
(imyfunction
mondai
p531
(dp532
g3
S'2017-10-03 02:28:01'
p533
sg5
F0.06727742764107834
sg6
S'50.png'
p534
sg8
(lp535
sg13
(lp536
S'chemistry'
p537
asg16
F-2.621417900670252e-19
sg17
F1506965281.311
sg18
I1
sg19
(lp538
(lp539
F1503268622.629
aS'2017-08-21 07:37:02'
p540
aF0.0
aa(lp541
F1506965281.311
ag533
aF0.0
aasbsI51
(imyfunction
mondai
p542
(dp543
g3
S'2017-08-21 07:51:15'
p544
sg5
F3.960335903274734e-12
sg6
S'51.jpg'
p545
sg8
(lp546
sg13
(lp547
S'chemistry'
p548
asg16
F0.5
sg17
F1503269475.48
sg19
(lp549
(lp550
F1503269475.48
ag544
aF0.5
aasbsI52
(imyfunction
mondai
p551
(dp552
g3
S'2017-08-21 07:57:49'
p553
sg5
F7.044398150797445e-10
sg6
S'52.jpg'
p554
sg8
(lp555
sg13
(lp556
S'chemistry'
p557
asg16
F0.7
sg17
F1503269869.663
sg19
(lp558
(lp559
F1503269869.663
ag553
aF0.7
aasbsI53
(imyfunction
mondai
p560
(dp561
g3
S'2017-08-22 02:20:47'
p562
sg5
F1.4387478946391268e-12
sg6
S'53.png'
p563
sg8
(lp564
sg13
(lp565
S'math'
p566
asg16
F0.45
sg17
F1503336047.871
sg19
(lp567
(lp568
F1503336047.871
ag562
aF0.45
aasbsI54
(imyfunction
mondai
p569
(dp570
g3
S'2017-10-03 22:48:41'
p571
sg5
F0.3838071301198492
sg6
S'54.png'
p572
sg8
(lp573
sg13
(lp574
S'math'
p575
asg16
F0.6
sg17
F1507038521.394
sg18
I6
sg19
(lp576
(lp577
F1503352854.527
aS'2017-08-22 07:00:54'
p578
aF0.1
aa(lp579
F1507038521.394
ag571
aF0.5
aasbsI55
(imyfunction
mondai
p580
(dp581
g3
S'2017-10-03 12:44:19'
p582
sg5
F0.36926475588308283
sg6
S'55.jpg'
p583
sg8
(lp584
sg13
(lp585
S'physical'
p586
asg16
F0.75
sg17
F1507002259.751
sg18
I4
sg19
(lp587
(lp588
F1503367103.179
aS'2017-08-22 10:58:23'
p589
aF0.0
aa(lp590
F1507002259.751
ag582
aF0.75
aasbsI56
(imyfunction
mondai
p591
(dp592
g3
S'2017-08-22 11:34:13'
p593
sg5
F3.952322978603336e-13
sg6
S'56.png'
p594
sg8
(lp595
sg13
(lp596
S'chemistry'
p597
asg16
F0.4
sg17
F1503369253.09
sg19
(lp598
(lp599
F1503369253.09
ag593
aF0.4
aasbsI57
(imyfunction
mondai
p600
(dp601
g3
S'2017-08-22 11:59:34'
p602
sg5
F7.793082697658089e-12
sg6
S'57.png'
p603
sg8
(lp604
sg13
(lp605
S'chemistry'
p606
asg16
F0.5
sg17
F1503370774.163
sg19
(lp607
(lp608
F1503370774.163
ag602
aF0.5
aasbsI58
(imyfunction
mondai
p609
(dp610
g3
S'2017-08-22 22:31:10'
p611
sg5
F1.0038935221983807e-11
sg6
S'58.png'
p612
sg8
(lp613
sg13
(lp614
S'chemistry'
p615
asg16
F0.5
sg17
F1503408670.508
sg19
(lp616
(lp617
F1503408670.508
ag611
aF0.5
aasbsI59
(imyfunction
mondai
p618
(dp619
g3
S'2017-08-23 06:11:09'
p620
sg5
F1.6509406541359768e-10
sg6
S'59.png'
p621
sg8
(lp622
sg13
(lp623
S'chemistry'
p624
asg16
F0.6
sg17
F1503436269.897
sg19
(lp625
(lp626
F1503436269.897
ag620
aF0.6
aasbsI60
(imyfunction
mondai
p627
(dp628
g3
S'2017-10-03 22:14:47'
p629
sg5
F0.15338806775561606
sg6
S'60.png'
p630
sg8
(lp631
sg13
(lp632
S'chemistry'
p633
asg16
F-2.3240177672528205e-18
sg17
F1507036487.553
sg18
I1
sg19
(lp634
(lp635
F1503528368.119
aS'2017-08-24 07:46:08'
p636
aF0.0
aa(lp637
F1507036487.553
ag629
aF0.0
aasbsI61
(imyfunction
mondai
p638
(dp639
g3
S'2017-10-03 22:53:48'
p640
sg5
F0.540155318871631
sg6
S'61.png'
p641
sg8
(lp642
sg13
(lp643
S'chemistry'
p644
asg16
F1.0
sg17
F1507038828.001
sg18
I1
sg19
(lp645
(lp646
F1503759535.555
aS'2017-08-26 23:58:55'
p647
aF0.0
aa(lp648
F1507038828.001
ag640
aF1.0
aasbsI62
(imyfunction
mondai
p649
(dp650
g3
S'2017-10-03 22:58:11'
p651
sg5
F0.15808093217450983
sg6
S'62.png'
p652
sg8
(lp653
S'\xa5\xa6 u'
p654
asg13
(lp655
S'chemistry'
p656
asg16
F-3.2885428981875427e-17
sg17
F1507039091.306
sg18
I1
sg19
(lp657
(lp658
F1503759908.733
aS'2017-08-27 00:05:08'
p659
aF0.0
aa(lp660
F1507039091.306
ag651
aF0.0
aasbsI63
(imyfunction
mondai
p661
(dp662
g3
S'2017-10-03 23:06:21'
p663
sg5
F0.1589806231150879
sg6
S'63.png'
p664
sg8
(lp665
sg13
(lp666
S'chemistry'
p667
asg16
F-3.2900559759003024e-17
sg17
F1507039581.643
sg18
I1
sg19
(lp668
(lp669
F1503760438.814
aS'2017-08-27 00:13:58'
p670
aF0.0
aa(lp671
F1507039581.643
ag663
aF0.0
aasbsI64
(imyfunction
mondai
p672
(dp673
g3
S'2017-10-03 23:17:32'
p674
sg5
F0.1602204767073152
sg6
S'64.png'
p675
sg8
(lp676
sg13
(lp677
S'chemistry'
p678
asg16
F-3.294906211238578e-17
sg17
F1507040252.843
sg18
I1
sg19
(lp679
(lp680
F1503761237.292
aS'2017-08-27 00:27:17'
p681
aF0.0
aa(lp682
F1507040252.843
ag674
aF0.0
aasbsI65
(imyfunction
mondai
p683
(dp684
g3
S'2017-10-04 01:24:08'
p685
sg5
F0.17494277576451767
sg6
S'65.png'
p686
sg8
(lp687
sg13
(lp688
S'chemistry'
p689
asg16
F-3.088343801126597e-17
sg17
F1507047848.101
sg18
I1
sg19
(lp690
(lp691
F1503763238.777
aS'2017-08-27 01:00:38'
p692
aF0.0
aa(lp693
F1507047848.101
ag685
aF0.0
aasbsI66
(imyfunction
mondai
p694
(dp695
g3
S'2017-08-27 01:18:25'
p696
sg5
F6.792937146344572e-08
sg6
S'66.png'
p697
sg8
(lp698
sg13
(lp699
S'chemistry'
p700
asg16
F0.8
sg17
F1503764305.612
sg19
(lp701
(lp702
F1503764305.612
ag696
aF0.8
aasbsI67
(imyfunction
mondai
p703
(dp704
g3
S'2017-08-27 04:40:16'
p705
sg5
F1.265212582526014e-09
sg6
S'67.png'
p706
sg8
(lp707
sg13
(lp708
S'chemistry'
p709
asg16
F0.6
sg17
F1503776416.902
sg19
(lp710
(lp711
F1503776416.902
ag705
aF0.6
aasbsI68
(imyfunction
mondai
p712
(dp713
g3
S'2017-10-04 01:29:36'
p714
sg5
F0.5599920299294716
sg6
S'68.png'
p715
sg8
(lp716
sg13
(lp717
S'chemistry'
p718
asg16
F1.0
sg17
F1507048176.263
sg18
I2
sg19
(lp719
(lp720
F1503779158.5
aS'2017-08-27 05:25:58'
p721
aF0.0
aa(lp722
F1507048176.263
ag714
aF1.0
aasbsI69
(imyfunction
mondai
p723
(dp724
g3
S'2017-10-05 01:03:07'
p725
sg5
F0.46865504774115796
sg6
S'69.png'
p726
sg8
(lp727
sg13
(lp728
S'chemistry'
p729
asg16
F-1.475936158364671e-17
sg17
F1507132987.358
sg18
I1
sg19
(lp730
(lp731
F1503784585.243
aS'2017-08-27 06:56:25'
p732
aF0.0
aa(lp733
F1507132987.358
ag725
aF0.0
aasbsI70
(imyfunction
mondai
p734
(dp735
g3
S'2017-10-05 01:36:08'
p736
sg5
F0.4795228080635606
sg6
S'70.png'
p737
sg8
(lp738
sg13
(lp739
S'chemistry'
p740
asg16
F-3.8906083719910555e-17
sg17
F1507134968.032
sg18
I2
sg19
(lp741
(lp742
F1503870311.11
aS'2017-08-28 06:45:11'
p743
aF0.0
aa(lp744
F1507134968.032
ag736
aF0.0
aasbsI71
(imyfunction
mondai
p745
(dp746
g3
S'2017-10-05 01:41:30'
p747
sg5
F0.78368877337331
sg6
S'71.jpg'
p748
sg8
(lp749
sg13
(lp750
S'chemistry'
p751
asg16
F1.0
sg17
F1507135290.64
sg18
I1
sg19
(lp752
(lp753
F1503879436.234
aS'2017-08-28 09:17:16'
p754
aF0.0
aa(lp755
F1507135290.64
ag747
aF1.0
aasbsI72
(imyfunction
mondai
p756
(dp757
g3
S'2017-10-05 12:25:33'
p758
sg5
F0.8487797164991944
sg6
S'72.png'
p759
sg8
(lp760
sg13
(lp761
S'chemistry'
p762
asg16
F0.4999999999999999
sg17
F1507173933.085
sg18
I2
sg19
(lp763
(lp764
F1504016042.217
aS'2017-08-29 23:14:02'
p765
aF0.0
aa(lp766
F1507173933.085
ag758
aF0.5
aasbsI73
(imyfunction
mondai
p767
(dp768
g3
S'2017-10-05 12:40:05'
p769
sg5
F0.912748065301158
sg6
S'73.png'
p770
sg8
(lp771
sg13
(lp772
S'chemistry'
p773
asg16
F0.9999999999999999
sg17
F1507174805.144
sg18
I2
sg19
(lp774
(lp775
F1504016537.49
aS'2017-08-29 23:22:17'
p776
aF0.0
aa(lp777
F1507174805.144
ag769
aF1.0
aasbsI74
(imyfunction
mondai
p778
(dp779
g3
S'2017-10-05 13:00:30'
p780
sg5
F0.7712777405505702
sg6
S'74.jpg'
p781
sg8
(lp782
sg13
(lp783
S'chemistry'
p784
asg16
F-1.3365815349420956e-16
sg17
F1507176030.244
sg18
I1
sg19
(lp785
(lp786
F1504018002.57
aS'2017-08-29 23:46:42'
p787
aF0.0
aa(lp788
F1507176030.244
ag780
aF0.0
aasbsI75
(imyfunction
mondai
p789
(dp790
g3
S'2017-10-05 13:11:09'
p791
sg5
F0.7770085329495341
sg6
S'75.jpg'
p792
sg8
(lp793
sg13
(lp794
S'chemistry'
p795
asg16
F-1.3632074025443876e-16
sg17
F1507176669.845
sg18
I2
sg19
(lp796
(lp797
F1504020346.415
aS'2017-08-30 00:25:46'
p798
aF0.0
aa(lp799
F1507176669.845
ag791
aF0.0
aasbsI76
(imyfunction
mondai
p800
(dp801
g3
S'2017-10-05 13:13:53'
p802
sg5
F0.9199172216026491
sg6
S'76.png'
p803
sg8
(lp804
sg13
(lp805
S'chemistry'
p806
asg16
F0.9999999999999982
sg17
F1507176833.07
sg18
I1
sg19
(lp807
(lp808
F1504242498.728
aS'2017-09-01 14:08:18'
p809
aF0.0
aa(lp810
F1507176833.07
ag802
aF1.0
aasbsI77
(imyfunction
mondai
p811
(dp812
g3
S'2017-10-05 13:15:17'
p813
sg5
F0.7792408847496147
sg6
S'77.jpg'
p814
sg8
(lp815
sg13
(lp816
S'chemistry'
p817
asg16
F-1.785161182950008e-15
sg17
F1507176917.717
sg18
I1
sg19
(lp818
(lp819
F1504242836.989
aS'2017-09-01 14:13:56'
p820
aF0.0
aa(lp821
F1507176917.717
ag813
aF0.0
aasbsI78
(imyfunction
mondai
p822
(dp823
g3
S'2017-10-05 13:18:40'
p824
sg5
F0.9209390138929882
sg6
S'78.png'
p825
sg8
(lp826
sg13
(lp827
S'chemistry'
p828
asg16
F0.9999999999999982
sg17
F1507177120.815
sg18
I2
sg19
(lp829
(lp830
F1504243511.051
aS'2017-09-01 14:25:11'
p831
aF0.0
aa(lp832
F1507177120.815
ag824
aF1.0
aasbsI79
(imyfunction
mondai
p833
(dp834
g3
S'2017-10-05 13:23:50'
p835
sg5
F0.9220413392741088
sg6
S'79.jpg'
p836
sg8
(lp837
sg13
(lp838
S'chemistry'
p839
asg16
F0.9999999999999982
sg17
F1507177430.882
sg18
I1
sg19
(lp840
(lp841
F1504244940.738
aS'2017-09-01 14:49:00'
p842
aF0.0
aa(lp843
F1507177430.882
ag835
aF1.0
aasbsI80
(imyfunction
mondai
p844
(dp845
g3
S'2017-10-05 13:31:41'
p846
sg5
F0.923717208531891
sg6
S'80.jpg'
p847
sg8
(lp848
sg13
(lp849
S'chemistry'
p850
asg16
F0.9999999999999981
sg17
F1507177901.567
sg18
I1
sg19
(lp851
(lp852
F1504246658.078
aS'2017-09-01 15:17:38'
p853
aF0.0
aa(lp854
F1507177901.567
ag846
aF1.0
aasbsI81
(imyfunction
mondai
p855
(dp856
g3
S'2017-10-05 13:40:26'
p857
sg5
F0.7929676451095165
sg6
S'81.png'
p858
sg8
(lp859
sg13
(lp860
S'chemistry'
p861
asg16
F-2.5723812036960078e-15
sg17
F1507178426.452
sg18
I1
sg19
(lp862
(lp863
F1504275909.657
aS'2017-09-01 23:25:09'
p864
aF0.0
aa(lp865
F1507178426.452
ag857
aF0.0
aasbsI82
(imyfunction
mondai
p866
(dp867
g3
S'2017-10-05 13:45:04'
p868
sg5
F0.7955280810572674
sg6
S'82.png'
p869
sg8
(lp870
sg13
(lp871
S'chemistry'
p872
asg16
F-2.623170979143293e-15
sg17
F1507178704.982
sg18
I1
sg19
(lp873
(lp874
F1504277877.469
aS'2017-09-01 23:57:57'
p875
aF0.0
aa(lp876
F1507178704.982
ag868
aF0.0
aasbsI83
(imyfunction
mondai
p877
(dp878
g3
S'2017-10-05 13:51:58'
p879
sg5
F0.7993412883144079
sg6
S'83.png'
p880
sg8
(lp881
sg13
(lp882
S'chemistry'
p883
asg16
F-2.6309049855391633e-15
sg17
F1507179118.134
sg18
I1
sg19
(lp884
(lp885
F1504278544.983
aS'2017-09-02 00:09:04'
p886
aF0.0
aa(lp887
F1507179118.134
ag879
aF0.0
aasbsI84
(imyfunction
mondai
p888
(dp889
g3
S'2017-09-02 01:49:47'
p890
sg5
F3.4968069739420318e-09
sg6
S'84.png'
p891
sg8
(lp892
sg13
(lp893
S'chemistry'
p894
asg16
F0.5
sg17
F1504284587.342
sg18
I4
sg19
(lp895
(lp896
F1504284587.342
ag890
aF0.5
aasbsI85
(imyfunction
mondai
p897
(dp898
g3
S'2017-09-02 02:30:36'
p899
sg5
F3.554517044480149e-09
sg6
S'85.jpg'
p900
sg8
(lp901
sg13
(lp902
S'chemistry'
p903
asg16
F0.5
sg17
F1504287036.941
sg18
I2
sg19
(lp904
(lp905
F1504287036.941
ag899
aF0.5
aasbsI86
(imyfunction
mondai
p906
(dp907
g3
S'2017-09-02 02:45:11'
p908
sg5
F3.00404464356046e-11
sg6
S'86.png'
p909
sg8
(lp910
sg13
(lp911
S'chemistry'
p912
asg16
F0.3
sg17
F1504287911.136
sg18
I6
sg19
(lp913
(lp914
F1504287911.136
ag908
aF0.3
aasbsI87
(imyfunction
mondai
p915
(dp916
g3
S'2017-10-05 14:00:49'
p917
sg5
F0.8042720217762649
sg6
S'87.png'
p918
sg8
(lp919
sg13
(lp920
S'chemistry'
p921
asg16
F-2.9523154222679466e-15
sg17
F1507179649.455
sg18
I1
sg19
(lp922
(lp923
F1504289034.929
aS'2017-09-02 03:03:54'
p924
aF0.0
aa(lp925
F1507179649.455
ag917
aF0.0
aasbsI88
(imyfunction
mondai
p926
(dp927
g3
S'2017-10-05 14:55:48'
p928
sg5
F0.8355713399858302
sg6
S'88.png'
p929
sg8
(lp930
sg13
(lp931
S'chemistry'
p932
asg16
F-3.0461961254892452e-15
sg17
F1507182948.05
sg18
I2
sg19
(lp933
(lp934
F1504295038.18
aS'2017-09-02 04:43:58'
p935
aF0.0
aa(lp936
F1507182948.05
ag928
aF0.0
aasbsI89
(imyfunction
mondai
p937
(dp938
g3
S'2017-10-05 15:18:58'
p939
sg5
F0.8491226265317107
sg6
S'89.jpg'
p940
sg8
(lp941
sg13
(lp942
S'chemistry'
p943
asg16
F-4.159729661901105e-15
sg17
F1507184338.043
sg18
I3
sg19
(lp944
(lp945
F1504323346.65
aS'2017-09-02 12:35:46'
p946
aF0.0
aa(lp947
F1507184338.043
ag939
aF0.0
aasbsI90
(imyfunction
mondai
p948
(dp949
g3
S'2017-10-05 15:33:09'
p950
sg5
F0.9500578957065237
sg6
S'90.png'
p951
sg8
(lp952
sg13
(lp953
S'chemistry'
p954
asg16
F0.9999999999999959
sg17
F1507185189.481
sg18
I1
sg19
(lp955
(lp956
F1504323686.397
aS'2017-09-02 12:41:26'
p957
aF0.0
aa(lp958
F1507185189.481
ag950
aF1.0
aasbsI91
(imyfunction
mondai
p959
(dp960
g3
S'2017-10-05 15:34:52'
p961
sg5
F0.9504357764603194
sg6
S'91.jpg'
p962
sg8
(lp963
sg13
(lp964
S'chemistry'
p965
asg16
F0.9999999999999959
sg17
F1507185292.556
sg18
I1
sg19
(lp966
(lp967
F1504324204.896
aS'2017-09-02 12:50:04'
p968
aF0.0
aa(lp969
F1507185292.556
ag961
aF1.0
aasbsI92
(imyfunction
mondai
p970
(dp971
g3
S'2017-10-05 15:47:43'
p972
sg5
F0.8662500134395388
sg6
S'92.png'
p973
sg8
(lp974
sg13
(lp975
S'chemistry'
p976
asg16
F-4.178117625193385e-15
sg17
F1507186063.447
sg18
I1
sg19
(lp977
(lp978
F1504325453.141
aS'2017-09-02 13:10:53'
p979
aF0.0
aa(lp980
F1507186063.447
ag972
aF0.0
aasbsI93
(imyfunction
mondai
p981
(dp982
g3
S'2017-10-05 15:53:41'
p983
sg5
F0.8698479406893813
sg6
S'93.png'
p984
sg8
(lp985
sg13
(lp986
S'chemistry'
p987
asg16
F-4.260929810562285e-15
sg17
F1507186421.562
sg18
I1
sg19
(lp988
(lp989
F1504327506.993
aS'2017-09-02 13:45:06'
p990
aF0.0
aa(lp991
F1507186421.562
ag983
aF0.0
aasbsI94
(imyfunction
mondai
p992
(dp993
g3
S'2017-10-05 16:02:25'
p994
sg5
F0.9565180077374327
sg6
S'94.jpg'
p995
sg8
(lp996
sg13
(lp997
S'chemistry'
p998
asg16
F0.9999999999999957
sg17
F1507186945.999
sg18
I3
sg19
(lp999
(lp1000
F1504330005.843
aS'2017-09-02 14:26:45'
p1001
aF0.0
aa(lp1002
F1507186945.999
ag994
aF1.0
aasbsI95
(imyfunction
mondai
p1003
(dp1004
g3
S'2017-10-05 18:57:10'
p1005
sg5
F0.9960014338498565
sg6
S'95.png'
p1006
sg8
(lp1007
sg13
(lp1008
S'chemistry'
p1009
asg16
F0.9999999999999961
sg17
F1507197430.401
sg18
I1
sg19
(lp1010
(lp1011
F1504330578.003
aS'2017-09-02 14:36:18'
p1012
aF0.0
aa(lp1013
F1507197430.401
ag1005
aF1.0
aasbsI96
(imyfunction
mondai
p1014
(dp1015
g3
S'2017-09-02 14:51:21'
p1016
sg5
F1.1218923107284543e-11
sg6
S'96.png'
p1017
sg8
(lp1018
sg13
(lp1019
S'chemistry'
p1020
asg16
F0.25
sg17
F1504331481.399
sg18
I4
sg19
(lp1021
(lp1022
F1504331481.399
ag1016
aF0.25
aasbsI97
(imyfunction
mondai
p1023
(dp1024
g3
S'2017-10-05 19:04:08'
p1025
sg5
F0.992847817522437
sg6
S'97.png'
p1026
sg8
(lp1027
sg13
(lp1028
S'chemistry'
p1029
asg16
F-3.9558086867684985e-15
sg17
F1507197848.738
sg18
I1
sg19
(lp1030
(lp1031
F1504332514.446
aS'2017-09-02 15:08:34'
p1032
aF0.0
aa(lp1033
F1507197848.738
ag1025
aF0.0
aasbsI98
(imyfunction
mondai
p1034
(dp1035
g3
S'2017-09-05 02:26:32'
p1036
sg5
F7.400255685511315e-11
sg6
S'98.jpeg'
p1037
sg8
(lp1038
sg13
(lp1039
S'physical'
p1040
asg16
F0.25
sg17
F1504545992.782
sg18
I4
sg19
(lp1041
(lp1042
F1504545992.782
ag1036
aF0.25
aasbsI99
(imyfunction
mondai
p1043
(dp1044
g3
S'2017-09-05 03:10:13'
p1045
sg5
F4.790182175297439e-14
sg6
S'99.jpeg'
p1046
sg8
(lp1047
sg13
(lp1048
S'physical'
p1049
asg16
F0.0
sg17
F1504548613.492
sg18
I2
sg19
(lp1050
(lp1051
F1504548613.492
ag1045
aF0.0
aasbsI100
(imyfunction
mondai
p1052
(dp1053
g3
S'2017-09-05 03:23:51'
p1054
sg5
F2.0524419731453234e-08
sg6
S'100.jpeg'
p1055
sg8
(lp1056
sg13
(lp1057
S'physical'
p1058
asg16
F0.5
sg17
F1504549431.259
sg18
I2
sg19
(lp1059
(lp1060
F1504549431.259
ag1054
aF0.5
aasbsI101
(imyfunction
mondai
p1061
(dp1062
g3
S'2017-09-05 05:45:16'
p1063
sg5
F5.33473046846295e-14
sg6
S'101.jpeg'
p1064
sg8
(lp1065
sg13
(lp1066
S'physical'
p1067
asg16
F0.0
sg17
F1504557916.173
sg18
I3
sg19
(lp1068
(lp1069
F1504557916.173
ag1063
aF0.0
aasbsI102
(imyfunction
mondai
p1070
(dp1071
g3
S'2017-09-05 06:53:18'
p1072
sg5
F5.592827940018333e-14
sg6
S'102.jpeg'
p1073
sg8
(lp1074
sg13
(lp1075
S'physical'
p1076
asg16
F0.0
sg17
F1504561998.287
sg18
I1
sg19
(lp1077
(lp1078
F1504561998.287
ag1072
aF0.0
aasbsI103
(imyfunction
mondai
p1079
(dp1080
g3
S'2017-09-05 08:02:10'
p1081
sg5
F5.866803495358282e-14
sg6
S'103.png'
p1082
sg8
(lp1083
sg13
(lp1084
S'physical'
p1085
asg16
F0.0
sg17
F1504566130.357
sg18
I3
sg19
(lp1086
(lp1087
F1504566130.357
ag1081
aF0.0
aasbsI104
(imyfunction
mondai
p1088
(dp1089
g3
S'2017-09-05 11:45:10'
p1090
sg5
F6.849470804754429e-14
sg6
S'104.jpg'
p1091
sg8
(lp1092
sg13
(lp1093
S'physical'
p1094
asg16
F0.0
sg17
F1504579510.387
sg18
I1
sg19
(lp1095
(lp1096
F1504579510.387
ag1090
aF0.0
aasbsI105
(imyfunction
mondai
p1097
(dp1098
g3
S'2017-09-23 10:18:16'
p1099
sg5
F4.233999974797488e-06
sg6
S'105.jpg'
p1100
sg8
(lp1101
sg13
(lp1102
S'physical'
p1103
asg16
F0.0
sg17
F1506129496.71
sg18
I4
sg19
(lp1104
(lp1105
F1506129496.71
ag1099
aF0.0
aasbsI106
(imyfunction
mondai
p1106
(dp1107
g3
S'2017-09-23 11:11:53'
p1108
sg5
F4.394605562266561e-06
sg6
S'106.jpg'
p1109
sg8
(lp1110
sg13
(lp1111
S'physical'
p1112
asg16
F0.0
sg17
F1506132713.435
sg18
I2
sg19
(lp1113
(lp1114
F1506132713.435
ag1108
aF0.0
aasbsI107
(imyfunction
mondai
p1115
(dp1116
g3
S'2017-09-23 11:39:38'
p1117
sg5
F4.4801252238062375e-06
sg6
S'107.jpg'
p1118
sg8
(lp1119
sg13
(lp1120
S'physical'
p1121
asg16
F0.0
sg17
F1506134378.641
sg18
I2
sg19
(lp1122
(lp1123
F1506134378.641
ag1117
aF0.0
aasbsI108
(imyfunction
mondai
p1124
(dp1125
g3
S'2017-09-23 11:52:35'
p1126
sg5
F4.520563724138751e-06
sg6
S'108.jpg'
p1127
sg8
(lp1128
sg13
(lp1129
S'physical'
p1130
asg16
F0.0
sg17
F1506135155.006
sg18
I1
sg19
(lp1131
(lp1132
F1506135155.006
ag1126
aF0.0
aasbsI109
(imyfunction
mondai
p1133
(dp1134
g3
S'2017-09-23 12:33:50'
p1135
sg5
F4.651956556436662e-06
sg6
S'109.png'
p1136
sg8
(lp1137
sg13
(lp1138
S'physical'
p1139
asg16
F0.0
sg17
F1506137630.469
sg18
I2
sg19
(lp1140
(lp1141
F1506137630.469
ag1135
aF0.0
aasbsI110
(imyfunction
mondai
p1142
(dp1143
g3
S'2017-09-23 12:51:11'
p1144
sg5
F4.708365246201007e-06
sg6
S'110.jpg'
p1145
sg8
(lp1146
sg13
(lp1147
S'physical'
p1148
asg16
F0.0
sg17
F1506138671.837
sg18
I2
sg19
(lp1149
(lp1150
F1506138671.837
ag1144
aF0.0
aasbsI111
(imyfunction
mondai
p1151
(dp1152
g3
S'2017-09-23 15:11:03'
p1153
sg5
F5.18864085283656e-06
sg6
S'111.jpg'
p1154
sg8
(lp1155
sg13
(lp1156
S'physical'
p1157
asg16
F0.0
sg17
F1506147063.957
sg18
I2
sg19
(lp1158
(lp1159
F1506147063.957
ag1153
aF0.0
aasbsI112
(imyfunction
mondai
p1160
(dp1161
g3
S'2017-09-23 15:21:22'
p1162
sg5
F0.0008923375344293429
sg6
S'112.png'
p1163
sg8
(lp1164
sg13
(lp1165
S'physical'
p1166
asg16
F0.5
sg17
F1506147682.265
sg18
I4
sg19
(lp1167
(lp1168
F1506147682.265
ag1162
aF0.5
aasbsI113
(imyfunction
mondai
p1169
(dp1170
g3
S'2017-09-23 15:34:50'
p1171
sg5
F5.274997027394984e-06
sg6
S'113.png'
p1172
sg8
(lp1173
sg13
(lp1174
S'physical'
p1175
asg16
F0.0
sg17
F1506148490.104
sg18
I1
sg19
(lp1176
(lp1177
F1506148490.104
ag1171
aF0.0
aasbsI114
(imyfunction
mondai
p1178
(dp1179
g3
S'2017-09-23 17:33:58'
p1180
sg5
F5.729987091146733e-06
sg6
S'114.jpg'
p1181
sg8
(lp1182
sg13
(lp1183
S'physical'
p1184
asg16
F0.0
sg17
F1506155638.422
sg18
I1
sg19
(lp1185
(lp1186
F1506155638.422
ag1180
aF0.0
aasbsI115
(imyfunction
mondai
p1187
(dp1188
g3
S'2017-09-23 18:07:32'
p1189
sg5
F5.865121832669093e-06
sg6
S'115.jpg'
p1190
sg8
(lp1191
sg13
(lp1192
S'physical'
p1193
asg16
F0.0
sg17
F1506157652.404
sg18
I2
sg19
(lp1194
(lp1195
F1506157652.404
ag1189
aF0.0
aasbsI116
(imyfunction
mondai
p1196
(dp1197
g3
S'2017-09-23 18:34:12'
p1198
sg5
F5.974748014990459e-06
sg6
S'116.jpg'
p1199
sg8
(lp1200
sg13
(lp1201
S'physical'
p1202
asg16
F0.0
sg17
F1506159252.417
sg18
I1
sg19
(lp1203
(lp1204
F1506159252.417
ag1198
aF0.0
aasbsI117
(imyfunction
mondai
p1205
(dp1206
g3
S'2017-09-23 19:23:54'
p1207
sg5
F6.1845620475767025e-06
sg6
S'117.png'
p1208
sg8
(lp1209
sg13
(lp1210
S'physical'
p1211
asg16
F0.0
sg17
F1506162234.45
sg18
I2
sg19
(lp1212
(lp1213
F1506162234.45
ag1207
aF0.0
aasbsI118
(imyfunction
mondai
p1214
(dp1215
g3
S'2017-09-25 08:10:08'
p1216
sg5
F2.8621509321882388e-05
sg6
S'118.jpg'
p1217
sg8
(lp1218
sg13
(lp1219
S'physical'
p1220
asg16
F0.0
sg17
F1506294608.09
sg18
I1
sg19
(lp1221
(lp1222
F1506294608.09
ag1216
aF0.0
aasbsI119
(imyfunction
mondai
p1223
(dp1224
g3
S'2017-09-25 08:31:45'
p1225
sg5
F2.905463433249493e-05
sg6
S'119.jpg'
p1226
sg8
(lp1227
sg13
(lp1228
S'physical'
p1229
asg16
F0.0
sg17
F1506295905.774
sg18
I1
sg19
(lp1230
(lp1231
F1506295905.774
ag1225
aF0.0
aasbsI120
(imyfunction
mondai
p1232
(dp1233
g3
S'2017-09-25 17:16:58'
p1234
sg5
F4.1842302997554405e-05
sg6
S'120.jpg'
p1235
sg8
(lp1236
sg13
(lp1237
S'physical'
p1238
asg16
F0.0
sg17
F1506327418.434
sg18
I2
sg19
(lp1239
(lp1240
F1506327418.434
ag1234
aF0.0
aasbsI121
(imyfunction
mondai
p1241
(dp1242
g3
S'2017-09-25 18:41:13'
p1243
sg5
F4.436335175540645e-05
sg6
S'121.jpg'
p1244
sg8
(lp1245
sg13
(lp1246
S'physical'
p1247
asg16
F0.0
sg17
F1506332473.34
sg18
I2
sg19
(lp1248
(lp1249
F1506332473.34
ag1243
aF0.0
aasbsI122
(imyfunction
mondai
p1250
(dp1251
g3
S'2017-09-25 19:07:57'
p1252
sg5
F4.5194493105352924e-05
sg6
S'122.jpg'
p1253
sg8
(lp1254
sg13
(lp1255
S'physical'
p1256
asg16
F0.0
sg17
F1506334077.056
sg18
I3
sg19
(lp1257
(lp1258
F1506334077.056
ag1252
aF0.0
aasbsI123
(imyfunction
mondai
p1259
(dp1260
g3
S'2017-09-25 19:31:39'
p1261
sg5
F4.594452657031947e-05
sg6
S'123.jpg'
p1262
sg8
(lp1263
sg13
(lp1264
S'physical'
p1265
asg16
F0.0
sg17
F1506335499.155
sg18
I2
sg19
(lp1266
(lp1267
F1506335499.155
ag1261
aF0.0
aasbsI124
(imyfunction
mondai
p1268
(dp1269
g3
S'2017-09-26 05:15:57'
p1270
sg5
F6.893754033015161e-05
sg6
S'124.jpg'
p1271
sg8
(lp1272
sg13
(lp1273
S'physical'
p1274
asg16
F0.0
sg17
F1506370557.351
sg18
I1
sg19
(lp1275
(lp1276
F1506370557.351
ag1270
aF0.0
aasbsI125
(imyfunction
mondai
p1277
(dp1278
g3
S'2017-09-26 05:49:46'
p1279
sg5
F7.057542887713486e-05
sg6
S'125.jpg'
p1280
sg8
(lp1281
sg13
(lp1282
S'physical'
p1283
asg16
F0.0
sg17
F1506372586.124
sg18
I1
sg19
(lp1284
(lp1285
F1506372586.124
ag1279
aF0.0
aasbsI126
(imyfunction
mondai
p1286
(dp1287
g3
S'2017-09-26 06:12:43'
p1288
sg5
F7.170962173568752e-05
sg6
S'126.jpg'
p1289
sg8
(lp1290
sg13
(lp1291
S'physical'
p1292
asg16
F0.0
sg17
F1506373963.589
sg18
I2
sg19
(lp1293
(lp1294
F1506373963.589
ag1288
aF0.0
aasbsI127
(imyfunction
mondai
p1295
(dp1296
g3
S'2017-09-26 22:42:13'
p1297
sg5
F0.00014256131034096889
sg6
S'127.jpg'
p1298
sg8
(lp1299
sg13
(lp1300
S'physical'
p1301
asg16
F0.0
sg17
F1506433333.109
sg18
I1
sg19
(lp1302
(lp1303
F1506433333.109
ag1297
aF0.0
aasbsI128
(imyfunction
mondai
p1304
(dp1305
g3
S'2017-09-26 22:43:06'
p1306
sg5
F0.00014264928328161925
sg6
S'128.jpg'
p1307
sg8
(lp1308
sg13
(lp1309
S'physical'
p1310
asg16
F0.0
sg17
F1506433386.409
sg18
I1
sg19
(lp1311
(lp1312
F1506433386.409
ag1306
aF0.0
aasbsI129
(imyfunction
mondai
p1313
(dp1314
g3
S'2017-09-27 05:41:54'
p1315
sg5
F0.004010761150105568
sg6
S'129.png'
p1316
sg8
(lp1317
sg13
(lp1318
S'physical'
p1319
asg16
F0.4
sg17
F1506458514.65
sg18
I5
sg19
(lp1320
(lp1321
F1506458514.65
ag1315
aF0.4
aasbsI130
(imyfunction
mondai
p1322
(dp1323
g3
S'2017-09-27 06:04:10'
p1324
sg5
F0.00019377252984390818
sg6
S'130.jpg'
p1325
sg8
(lp1326
sg13
(lp1327
S'physical'
p1328
asg16
F0.0
sg17
F1506459850.374
sg18
I2
sg19
(lp1329
(lp1330
F1506459850.374
ag1324
aF0.0
aasbsI131
(imyfunction
mondai
p1331
(dp1332
g3
S'2017-09-27 06:51:31'
p1333
sg5
F0.0002002513725102259
sg6
S'131.jpg'
p1334
sg8
(lp1335
sg13
(lp1336
S'physical'
p1337
asg16
F0.0
sg17
F1506462691.94
sg18
I2
sg19
(lp1338
(lp1339
F1506462691.94
ag1333
aF0.0
aasbsI132
(imyfunction
mondai
p1340
(dp1341
g3
S'2017-09-27 18:17:18'
p1342
sg5
F0.00032240272805831617
sg6
S'132.jpg'
p1343
sg8
(lp1344
sg13
(lp1345
S'physical'
p1346
asg16
F0.0
sg17
F1506503838.042
sg18
I3
sg19
(lp1347
(lp1348
F1506503838.042
ag1342
aF0.0
aasbsI133
(imyfunction
mondai
p1349
(dp1350
g3
S'2017-09-27 18:49:29'
p1351
sg5
F0.00032969127314501205
sg6
S'133.jpg'
p1352
sg8
(lp1353
sg13
(lp1354
S'physical'
p1355
asg16
F0.0
sg17
F1506505769.532
sg18
I3
sg19
(lp1356
(lp1357
F1506505769.532
ag1351
aF0.0
aasbsI134
(imyfunction
mondai
p1358
(dp1359
g3
S'2017-09-27 19:31:04'
p1360
sg5
F0.0003393519929324671
sg6
S'134.jpg'
p1361
sg8
(lp1362
sg13
(lp1363
S'physical'
p1364
asg16
F0.0
sg17
F1506508264.869
sg18
I2
sg19
(lp1365
(lp1366
F1506508264.869
ag1360
aF0.0
aasbsI135
(imyfunction
mondai
p1367
(dp1368
g3
S'2017-09-27 19:51:49'
p1369
sg5
F0.0003442766330658712
sg6
S'135.jpg'
p1370
sg8
(lp1371
sg13
(lp1372
S'physical'
p1373
asg16
F0.0
sg17
F1506509509.686
sg18
I3
sg19
(lp1374
(lp1375
F1506509509.686
ag1369
aF0.0
aasbsI136
(imyfunction
mondai
p1376
(dp1377
g3
S'2017-09-27 21:50:01'
p1378
sg5
F0.000373725471876125
sg6
S'136.jpg'
p1379
sg8
(lp1380
sg13
(lp1381
S'physical'
p1382
asg16
F0.0
sg17
F1506516601.052
sg18
I2
sg19
(lp1383
(lp1384
F1506516601.052
ag1378
aF0.0
aasbsI137
(imyfunction
mondai
p1385
(dp1386
g3
S'2017-09-27 22:11:51'
p1387
sg5
F0.00037943686524337215
sg6
S'137.jpg'
p1388
sg8
(lp1389
sg13
(lp1390
S'physical'
p1391
asg16
F0.0
sg17
F1506517911.457
sg18
I1
sg19
(lp1392
(lp1393
F1506517911.457
ag1387
aF0.0
aasbsI138
(imyfunction
mondai
p1394
(dp1395
g3
S'2017-09-30 12:05:52'
p1396
sg5
F0.005003358446265699
sg6
S'138.jpeg'
p1397
sg8
(lp1398
sg13
(lp1399
S'math'
p1400
asg16
F0.0
sg17
F1506740752.301
sg18
I1
sg19
(lp1401
(lp1402
F1506740752.301
ag1396
aF0.0
aasbsI139
(imyfunction
mondai
p1403
(dp1404
g3
S'2017-09-30 12:19:12'
p1405
sg5
F0.005049912495707038
sg6
S'139.jpeg'
p1406
sg8
(lp1407
sg13
(lp1408
S'math'
p1409
asg16
F0.0
sg17
F1506741552.498
sg18
I1
sg19
(lp1410
(lp1411
F1506741552.498
ag1405
aF0.0
aasbsI140
(imyfunction
mondai
p1412
(dp1413
g3
S'2017-09-30 14:27:38'
p1414
sg5
F0.0055210274273496535
sg6
S'140.jpeg'
p1415
sg8
(lp1416
sg13
(lp1417
S'math'
p1418
asg16
F0.0
sg17
F1506749258.778
sg18
I2
sg19
(lp1419
(lp1420
F1506749258.778
ag1414
aF0.0
aasbsI141
(imyfunction
mondai
p1421
(dp1422
g3
S'2017-09-30 14:48:36'
p1423
sg5
F0.005602002037538755
sg6
S'141.jpeg'
p1424
sg8
(lp1425
sg13
(lp1426
S'math'
p1427
asg16
F0.0
sg17
F1506750516.768
sg18
I1
sg19
(lp1428
(lp1429
F1506750516.768
ag1423
aF0.0
aasbsI142
(imyfunction
mondai
p1430
(dp1431
g3
S'2017-09-30 15:07:10'
p1432
sg5
F0.0056746707038301866
sg6
S'142.jpeg'
p1433
sg8
(lp1434
sg13
(lp1435
S'math'
p1436
asg16
F0.0
sg17
F1506751630.334
sg18
I3
sg19
(lp1437
(lp1438
F1506751630.334
ag1432
aF0.0
aasbsI143
(imyfunction
mondai
p1439
(dp1440
g3
S'2017-09-30 15:37:04'
p1441
sg5
F0.005793774118898424
sg6
S'143.jpeg'
p1442
sg8
(lp1443
sg13
(lp1444
S'math'
p1445
asg16
F0.0
sg17
F1506753424.981
sg18
I1
sg19
(lp1446
(lp1447
F1506753424.981
ag1441
aF0.0
aasbsI144
(imyfunction
mondai
p1448
(dp1449
g3
S'2017-09-30 16:24:05'
p1450
sg5
F0.005986018812230568
sg6
S'144.jpeg'
p1451
sg8
(lp1452
sg13
(lp1453
S'math'
p1454
asg16
F0.0
sg17
F1506756245.305
sg18
I1
sg19
(lp1455
(lp1456
F1506756245.305
ag1450
aF0.0
aasbsI145
(imyfunction
mondai
p1457
(dp1458
g3
S'2017-09-30 16:48:01'
p1459
sg5
F0.0060863804049623785
sg6
S'145.jpeg'
p1460
sg8
(lp1461
sg13
(lp1462
S'math'
p1463
asg16
F0.0
sg17
F1506757681.878
sg18
I2
sg19
(lp1464
(lp1465
F1506757681.878
ag1459
aF0.0
aasbs.