(dp0
I1
(imyfunction
mondai
p1
(dp2
S'wordtime'
p3
S'2017-07-04 14:18:19'
p4
sS'remember'
p5
F1.6997618099117107e-08
sS'imgnum'
p6
S'1.png'
p7
sS'memo'
p8
(lp9
(lp10
F1498515733.947
aS'2017-06-27 07:22:13'
p11
aS'answer 3'
p12
aasS'tag'
p13
(lp14
S'chemistry'
p15
asS'understand'
p16
F0.999316953411003
sS'lasttime'
p17
F1499145499.01
sS'history'
p18
(lp19
(lp20
F1498515733.947
ag11
aI0
aa(lp21
F1499145499.01
ag4
aI1
aasbsI2
(imyfunction
mondai
p22
(dp23
g3
S'2017-07-04 14:33:48'
p24
sg5
F4.8852121012645444e-24
sg6
S'2.jpg'
p25
sg8
(lp26
S'answer is 3'
p27
asg13
(lp28
g15
asg16
F-0.0009548136980126638
sg17
F1499146428.99
sg18
(lp29
(lp30
F1498545603.881
aS'2017-06-27 15:40:03'
p31
aI0
aa(lp32
F1499146428.99
ag24
aI0
aasbsI3
(imyfunction
mondai
p33
(dp34
g3
S'2017-07-12 03:37:55'
p35
sg5
F2.1377281144822106e-07
sg6
S'3.jpg'
p36
sg8
(lp37
S'answer is 5'
p38
asg13
(lp39
g15
asg16
F0.9999994937212187
sg17
F1499798275.889
sg18
(lp40
(lp41
F1498545806.078
aS'2017-06-27 15:43:26'
p42
aI0
aa(lp43
F1499798275.889
ag35
aI1
aasbsI4
(imyfunction
mondai
p44
(dp45
g3
S'2017-07-12 03:40:20'
p46
sg5
F2.1389212317489707e-07
sg6
S'4.jpg'
p47
sg8
(lp48
S'answer is 2'
p49
asg13
(lp50
g15
asg16
F0.9999994935594296
sg17
F1499798420.515
sg18
(lp51
(lp52
F1498545978.31
aS'2017-06-27 15:46:18'
p53
aI0
aa(lp54
F1499798420.515
ag46
aI1
aasbsI5
(imyfunction
mondai
p55
(dp56
g3
S'2017-07-12 03:41:46'
p57
sg5
F2.1396262272821323e-07
sg6
S'5.jpg'
p58
sg8
(lp59
S'answer is 3'
p60
asg13
(lp61
g15
asg16
F0.9999994359484087
sg17
F1499798506.186
sg18
(lp62
(lp63
F1498555372.608
aS'2017-06-27 18:22:52'
p64
aI0
aa(lp65
F1499798506.186
ag57
aI1
aasbsI6
(imyfunction
mondai
p66
(dp67
g3
S'2017-07-12 03:44:19'
p68
sg5
F2.1408943332655718e-07
sg6
S'6.jpg'
p69
sg8
(lp70
S'answer is 5'
p71
asg13
(lp72
g15
asg16
F0.9999994346046224
sg17
F1499798659.768
sg18
(lp73
(lp74
F1498555731.783
aS'2017-06-27 18:28:51'
p75
aI0
aa(lp76
F1499798659.768
ag68
aI1
aasbsI7
(imyfunction
mondai
p77
(dp78
g3
S'2017-07-12 03:45:07'
p79
sg5
F2.1412716302142597e-07
sg6
S'7.jpg'
p80
sg8
(lp81
S'answer is 1'
p82
asg13
(lp83
g15
asg16
F0.999998982652945
sg17
F1499798707.42
sg18
(lp84
(lp85
F1498606533.242
aS'2017-06-28 08:35:33'
p86
aI0
aa(lp87
F1499798707.42
ag79
aI1
aasbsI8
(imyfunction
mondai
p88
(dp89
g3
S'2017-07-12 03:45:38'
p90
sg5
F2.141521027487242e-07
sg6
S'8.jpg'
p91
sg8
(lp92
S'answer is 4'
p93
asg13
(lp94
g15
asg16
F0.9999988380453558
sg17
F1499798738.24
sg18
(lp95
(lp96
F1498618047.081
aS'2017-06-28 11:47:27'
p97
aI0
aa(lp98
F1499798738.24
ag90
aI1
aasbsI9
(imyfunction
mondai
p99
(dp100
g3
S'2017-06-28 15:24:07'
p101
sg5
F1.3265742247986616e-26
sg6
S'9.jpg'
p102
sg8
(lp103
S'answer is 2'
p104
asg13
(lp105
g15
asg16
F0.0
sg17
F1498631047.991
sg18
(lp106
(lp107
F1498631047.991
ag101
aI0
aasbsI10
(imyfunction
mondai
p108
(dp109
g3
S'2017-06-28 15:25:58'
p110
sg5
F1.3282707288766417e-26
sg6
S'10.jpg'
p111
sg8
(lp112
S'answer is 4'
p113
asg13
(lp114
g15
asg16
F0.0
sg17
F1498631158.414
sg18
(lp115
(lp116
F1498631158.414
ag110
aI0
aasbsI11
(imyfunction
mondai
p117
(dp118
g3
S'2017-07-04 13:54:14'
p119
sg5
F5.027889717707573e-24
sg6
S'11.jpg'
p120
sg8
(lp121
(lp122
F1499144054.099
ag119
aS'answer 2,3,2'
p123
aasg13
(lp124
g15
asg16
F0.0
sg17
F1499144054.099
sg18
(lp125
(lp126
F1499144054.099
ag119
aI0
aasbsI12
(imyfunction
mondai
p127
(dp128
g3
S'2017-07-04 14:00:01'
p129
sg5
F5.048157472709248e-24
sg6
S'12.jpg'
p130
sg8
(lp131
(lp132
F1499144401.683
ag129
aS'answer 3'
p133
aasg13
(lp134
g15
asg16
F0.0
sg17
F1499144401.683
sg18
(lp135
(lp136
F1499144401.683
ag129
aI0
aasbsI13
(imyfunction
mondai
p137
(dp138
g3
S'2017-07-04 14:17:31'
p139
sg5
F8.398011014871807e-24
sg6
S'13.jpg'
p140
sg8
(lp141
(lp142
F1499144716.146
aS'2017-07-04 14:05:16'
p143
aS'answer 3'
p144
aasg13
(lp145
g15
asg16
F0.008471551343691375
sg17
F1499145451.206
sg18
(lp146
F1499144716.146
ag143
aI0
asbsI14
(imyfunction
mondai
p147
(dp148
g3
S'2017-07-04 16:24:59'
p149
sg5
F5.582784853276086e-24
sg6
S'14.jpg'
p150
sg8
(lp151
sg13
(lp152
S'math'
p153
asg16
F0.0
sg17
F1499153099.088
sg18
(lp154
(lp155
F1499153099.088
ag149
aI0
aasbsI15
(imyfunction
mondai
p156
(dp157
g3
S'2017-07-04 20:02:05'
p158
sg5
F6.491234808300261e-24
sg6
S'15.png'
p159
sg8
(lp160
sg13
(lp161
g153
asg16
F0.0
sg17
F1499166125.188
sg18
(lp162
(lp163
F1499166125.188
ag158
aI0
aasbsI16
(imyfunction
mondai
p164
(dp165
g3
S'2017-07-04 21:08:46'
p166
sg5
F6.79891406531924e-24
sg6
S'16.png'
p167
sg8
(lp168
S'\xbb\xad\xcd\xbc\xba\xf3\xd5\xd2\xbd\xbb\xb5\xe3'
p169
asg13
(lp170
S'math'
p171
asg16
F0.0
sg17
F1499170126.383
sg18
(lp172
(lp173
F1499170126.383
ag166
aI0
aasbsI17
(imyfunction
mondai
p174
(dp175
g3
S'2017-07-04 23:19:34'
p176
sg5
F7.445419523631894e-24
sg6
S'17.jpg'
p177
sg8
(lp178
S'answer is 4'
p179
asg13
(lp180
S'chemistry'
p181
asg16
F0.0
sg17
F1499177974.623
sg18
(lp182
(lp183
F1499177974.623
ag176
aI0
aasbsI18
(imyfunction
mondai
p184
(dp185
g3
S'2017-07-04 23:22:46'
p186
sg5
F7.462012230245939e-24
sg6
S'18.jpg'
p187
sg8
(lp188
S'answer is 1'
p189
asg13
(lp190
g181
asg16
F0.0
sg17
F1499178166.958
sg18
(lp191
(lp192
F1499178166.958
ag186
aI0
aasbsI19
(imyfunction
mondai
p193
(dp194
g3
S'2017-07-05 16:03:21'
p195
sg5
F1.4949395701128643e-23
sg6
S'19.jpg'
p196
sg8
(lp197
sg13
(lp198
g171
asg16
F0.0
sg17
F1499238201.632
sg18
(lp199
(lp200
F1499238201.632
ag195
aI0
aasbsI20
(imyfunction
mondai
p201
(dp202
g3
S'2017-07-08 19:24:45'
p203
sg5
F5.912338731556844e-18
sg6
S'20.jpg'
p204
sg8
(lp205
sg13
(lp206
g171
asg16
F0.2
sg17
F1499509485.541
sg18
(lp207
(lp208
F1499509485.541
ag203
aF0.2
aasbsI21
(imyfunction
mondai
p209
(dp210
g3
S'2017-07-08 21:19:28'
p211
sg5
F4.2562314571462696e-13
sg6
S'21.jpg'
p212
sg8
(lp213
sg13
(lp214
g181
asg16
F0.5
sg17
F1499516368.113
sg18
(lp215
(lp216
F1499516368.113
ag211
aF0.5
aasbsI22
(imyfunction
mondai
p217
(dp218
g3
S'2017-07-09 01:21:40'
p219
sg5
F4.4247831958896195e-22
sg6
S'22.jpg'
p220
sg8
(lp221
sg13
(lp222
g181
asg16
F0.0
sg17
F1499530900.691
sg18
(lp223
(lp224
F1499530900.691
ag219
aI0
aasbsI23
(imyfunction
mondai
p225
(dp226
g3
S'2017-07-09 01:22:30'
p227
sg5
F4.427316187180288e-22
sg6
S'23.jpg'
p228
sg8
(lp229
sg13
(lp230
g181
asg16
F0.0
sg17
F1499530950.137
sg18
(lp231
(lp232
F1499530950.137
ag227
aI0
aasbsI24
(imyfunction
mondai
p233
(dp234
g3
S'2017-07-09 05:52:16'
p235
sg5
F5.339511903438983e-22
sg6
S'24.jpg'
p236
sg8
(lp237
sg13
(lp238
S'chemistry'
p239
asg16
F0.0
sg17
F1499547136.371
sg18
(lp240
(lp241
F1499547136.371
ag235
aI0
aasbsI25
(imyfunction
mondai
p242
(dp243
g3
S'2017-07-09 05:56:17'
p244
sg5
F5.3544495879718645e-22
sg6
S'25.jpg'
p245
sg8
(lp246
sg13
(lp247
g239
asg16
F0.0
sg17
F1499547377.744
sg18
(lp248
(lp249
F1499547377.744
ag244
aI0
aasbsI26
(imyfunction
mondai
p250
(dp251
g3
S'2017-07-09 05:57:03'
p252
sg5
F5.35728112977768e-22
sg6
S'26.jpg'
p253
sg8
(lp254
sg13
(lp255
g239
asg16
F0.0
sg17
F1499547423.422
sg18
(lp256
(lp257
F1499547423.422
ag252
aI0
aasbsI27
(imyfunction
mondai
p258
(dp259
g3
S'2017-07-09 05:57:43'
p260
sg5
F5.359747038529676e-22
sg6
S'27.jpg'
p261
sg8
(lp262
sg13
(lp263
g239
asg16
F0.0
sg17
F1499547463.182
sg18
(lp264
(lp265
F1499547463.182
ag260
aI0
aasbsI28
(imyfunction
mondai
p266
(dp267
g3
S'2017-07-10 01:03:16'
p268
sg5
F1.1875103017451008e-21
sg6
S'28.jpg'
p269
sg8
(lp270
sg13
(lp271
g239
asg16
F0.0
sg17
F1499616196.736
sg18
(lp272
(lp273
F1499616196.736
ag268
aI0
aasbsI29
(imyfunction
mondai
p274
(dp275
g3
S'2017-07-10 01:12:12'
p276
sg5
F6.628356294187203e-10
sg6
S'29.jpg'
p277
sg8
(lp278
sg13
(lp279
S'math'
p280
asg16
F0.75
sg17
F1499616732.384
sg18
(lp281
(lp282
F1499616732.384
ag276
aF0.75
aasbsI30
(imyfunction
mondai
p283
(dp284
g3
S'2017-07-10 18:58:24'
p285
sg5
F2.5054809268513298e-21
sg6
S'30.png'
p286
sg8
(lp287
sg13
(lp288
g239
asg16
F0.0
sg17
F1499680704.857
sg18
(lp289
(lp290
F1499680704.857
ag285
aI0
aasbsI31
(imyfunction
mondai
p291
(dp292
g3
S'2017-07-12 03:21:37'
p293
sg5
F6.19138397843529e-13
sg6
S'31.jpg'
p294
sg8
(lp295
sg13
(lp296
g280
asg16
F0.45
sg17
F1499797297.774
sg18
(lp297
(lp298
F1499797297.774
ag293
aF0.45
aasbsI32
(imyfunction
mondai
p299
(dp300
g3
S'2017-07-12 03:24:30'
p301
sg5
F1.1364754654588165e-19
sg6
S'32.jpg'
p302
sg8
(lp303
sg13
(lp304
g280
asg16
F0.05
sg17
F1499797470.167
sg18
(lp305
(lp306
F1499797470.167
ag301
aF0.05
aasbsI33
(imyfunction
mondai
p307
(dp308
g3
S'2017-07-15 05:36:44'
p309
sg5
F2.1310078371058115e-19
sg6
S'33.jpg'
p310
sg8
(lp311
sg13
(lp312
S'physics'
p313
asg16
F0.0
sg17
F1500064604.639
sg18
(lp314
(lp315
F1500064604.639
ag309
aI0
aasbsI34
(imyfunction
mondai
p316
(dp317
g3
S'2017-08-17 23:29:33'
p318
sg5
F9.635137756075188e-05
sg6
S'34.jpg'
p319
sg8
(lp320
sg13
(lp321
S'physical'
p322
asg16
F0.0
sg17
F1502980173.751
sg18
(lp323
(lp324
F1502980173.751
ag318
aF0.0
aasbsI35
(imyfunction
mondai
p325
(dp326
g3
S'2017-08-18 01:12:53'
p327
sg5
F0.005003484997241803
sg6
S'35.jpeg'
p328
sg8
(lp329
sg13
(lp330
S'physical'
p331
asg16
F0.5
sg17
F1502986373.885
sg18
(lp332
(lp333
F1502986373.885
ag327
aF0.5
aasbsI36
(imyfunction
mondai
p334
(dp335
g3
S'2017-08-19 01:39:30'
p336
sg5
F0.02791693191549017
sg6
S'36.jpeg'
p337
sg8
(lp338
sg13
(lp339
S'physical'
p340
asg16
F0.75
sg17
F1503074370.742
sg18
(lp341
(lp342
F1503074370.742
ag336
aF0.75
aasbsI37
(imyfunction
mondai
p343
(dp344
g3
S'2017-08-19 02:05:31'
p345
sg5
F0.014842465574804523
sg6
S'37.jpeg'
p346
sg8
(lp347
sg13
(lp348
S'physical'
p349
asg16
F0.6
sg17
F1503075931.234
sg18
(lp350
(lp351
F1503075931.234
ag345
aF0.6
aasbsI38
(imyfunction
mondai
p352
(dp353
g3
S'2017-08-19 03:13:53'
p354
sg5
F0.03473396151910694
sg6
S'38.jpeg'
p355
sg8
(lp356
sg13
(lp357
S'physical'
p358
asg16
F0.8
sg17
F1503080033.486
sg18
(lp359
(lp360
F1503080033.486
ag354
aF0.8
aasbsI39
(imyfunction
mondai
p361
(dp362
g3
S'2017-08-19 03:42:09'
p363
sg5
F0.028979755102458465
sg6
S'39.jpeg'
p364
sg8
(lp365
sg13
(lp366
S'physical'
p367
asg16
F0.75
sg17
F1503081729.58
sg18
(lp368
(lp369
F1503081729.58
ag363
aF0.75
aasbsI40
(imyfunction
mondai
p370
(dp371
g3
S'2017-08-19 03:59:08'
p372
sg5
F0.04984870184750504
sg6
S'40.jpeg'
p373
sg8
(lp374
sg13
(lp375
S'physical'
p376
asg16
F0.9
sg17
F1503082748.531
sg18
(lp377
(lp378
F1503082748.531
ag372
aF0.9
aasbsI41
(imyfunction
mondai
p379
(dp380
g3
S'2017-08-20 18:55:50'
p381
sg5
F0.03579141699778265
sg6
S'41.jpg'
p382
sg8
(lp383
sg13
(lp384
S'physical'
p385
asg16
F0.6
sg17
F1503222950.967
sg18
(lp386
(lp387
F1503222950.967
ag381
aF0.6
aasbsI42
(imyfunction
mondai
p388
(dp389
g3
S'2017-08-20 20:00:00'
p390
sg5
F0.0059050088326856875
sg6
S'42.jpg'
p391
sg8
(lp392
sg13
(lp393
S'physical'
p394
asg16
F0.2
sg17
F1503226800.354
sg18
(lp395
(lp396
F1503226800.354
ag390
aF0.2
aasbsI43
(imyfunction
mondai
p397
(dp398
g3
S'2017-08-20 21:36:09'
p399
sg5
F0.0017887149876496032
sg6
S'43.png'
p400
sg8
(lp401
sg13
(lp402
S'chemistry'
p403
asg16
F0.0
sg17
F1503232569.843
sg18
(lp404
(lp405
F1503232569.843
ag399
aF0.0
aasbsI44
(imyfunction
mondai
p406
(dp407
g3
S'2017-08-20 21:55:40'
p408
sg5
F0.026130762873333244
sg6
S'44.png'
p409
sg8
(lp410
sg13
(lp411
S'chemistry'
p412
asg16
F0.5
sg17
F1503233740.794
sg18
(lp413
(lp414
F1503233740.794
ag408
aF0.5
aasbsI45
(imyfunction
mondai
p415
(dp416
g3
S'2017-08-21 00:51:01'
p417
sg5
F0.0020478949906400303
sg6
S'45.png'
p418
sg8
(lp419
sg13
(lp420
S'chemistry'
p421
asg16
F0.0
sg17
F1503244261.055
sg18
(lp422
(lp423
F1503244261.055
ag417
aF0.0
aasbsI46
(imyfunction
mondai
p424
(dp425
g3
S'2017-08-21 01:10:28'
p426
sg5
F0.0665378696749577
sg6
S'46.png'
p427
sg8
(lp428
S'answer is 7'
p429
asg13
(lp430
S'chemistry'
p431
asg16
F0.75
sg17
F1503245428.763
sg18
(lp432
(lp433
F1503245428.763
ag426
aF0.75
aasbsI47
(imyfunction
mondai
p434
(dp435
g3
S'2017-08-21 01:32:05'
p436
sg5
F0.0021071533838542466
sg6
S'47.png'
p437
sg8
(lp438
sg13
(lp439
S'chemistry'
p440
asg16
F0.0
sg17
F1503246725.658
sg18
(lp441
(lp442
F1503246725.658
ag436
aF0.0
aasbsI48
(imyfunction
mondai
p443
(dp444
g3
S'2017-08-21 01:41:54'
p445
sg5
F0.0021215588474725274
sg6
S'48.png'
p446
sg8
(lp447
sg13
(lp448
S'chemistry'
p449
asg16
F0.0
sg17
F1503247314.318
sg18
(lp450
(lp451
F1503247314.318
ag445
aF0.0
aasbsI49
(imyfunction
mondai
p452
(dp453
g3
S'2017-08-21 03:52:18'
p454
sg5
F0.0023226510464630164
sg6
S'49.png'
p455
sg8
(lp456
sg13
(lp457
S'chemistry'
p458
asg16
F0.0
sg17
F1503255138.538
sg18
(lp459
(lp460
F1503255138.538
ag454
aF0.0
aasbsI50
(imyfunction
mondai
p461
(dp462
g3
S'2017-08-21 07:37:02'
p463
sg5
F0.0027149542266015126
sg6
S'50.png'
p464
sg8
(lp465
sg13
(lp466
S'chemistry'
p467
asg16
F0.0
sg17
F1503268622.629
sg18
(lp468
(lp469
F1503268622.629
ag463
aF0.0
aasbsI51
(imyfunction
mondai
p470
(dp471
g3
S'2017-08-21 07:51:15'
p472
sg5
F0.03317853000775321
sg6
S'51.jpg'
p473
sg8
(lp474
sg13
(lp475
S'chemistry'
p476
asg16
F0.5
sg17
F1503269475.48
sg18
(lp477
(lp478
F1503269475.48
ag472
aF0.5
aasbsI52
(imyfunction
mondai
p479
(dp480
g3
S'2017-08-21 07:57:49'
p481
sg5
F0.06509518247480578
sg6
S'52.jpg'
p482
sg8
(lp483
sg13
(lp484
S'chemistry'
p485
asg16
F0.7
sg17
F1503269869.663
sg18
(lp486
(lp487
F1503269869.663
ag481
aF0.7
aasbsI53
(imyfunction
mondai
p488
(dp489
g3
S'2017-08-22 02:20:47'
p490
sg5
F0.043796760299470036
sg6
S'53.png'
p491
sg8
(lp492
sg13
(lp493
S'math'
p494
asg16
F0.45
sg17
F1503336047.871
sg18
(lp495
(lp496
F1503336047.871
ag490
aF0.45
aasbsI54
(imyfunction
mondai
p497
(dp498
g3
S'2017-08-22 07:00:54'
p499
sg5
F0.01202550696714757
sg6
S'54.png'
p500
sg8
(lp501
sg13
(lp502
S'math'
p503
asg16
F0.1
sg17
F1503352854.527
sg18
(lp504
(lp505
F1503352854.527
ag499
aF0.1
aasbsI55
(imyfunction
mondai
p506
(dp507
g3
S'2017-08-22 10:58:23'
p508
sg5
F0.008487515120214706
sg6
S'55.jpg'
p509
sg8
(lp510
sg13
(lp511
S'physical'
p512
asg16
F0.0
sg17
F1503367103.179
sg18
(lp513
(lp514
F1503367103.179
ag508
aF0.0
aasbsI56
(imyfunction
mondai
p515
(dp516
g3
S'2017-08-22 11:34:13'
p517
sg5
F0.047019968062144535
sg6
S'56.png'
p518
sg8
(lp519
sg13
(lp520
S'chemistry'
p521
asg16
F0.4
sg17
F1503369253.09
sg18
(lp522
(lp523
F1503369253.09
ag517
aF0.4
aasbsI57
(imyfunction
mondai
p524
(dp525
g3
S'2017-08-22 11:59:34'
p526
sg5
F0.0652881559676161
sg6
S'57.png'
p527
sg8
(lp528
sg13
(lp529
S'chemistry'
p530
asg16
F0.5
sg17
F1503370774.163
sg18
(lp531
(lp532
F1503370774.163
ag526
aF0.5
aasbsI58
(imyfunction
mondai
p533
(dp534
g3
S'2017-08-22 22:31:10'
p535
sg5
F0.08410324822019871
sg6
S'58.png'
p536
sg8
(lp537
sg13
(lp538
S'chemistry'
p539
asg16
F0.5
sg17
F1503408670.508
sg18
(lp540
(lp541
F1503408670.508
ag535
aF0.5
aasbsI59
(imyfunction
mondai
p542
(dp543
g3
S'2017-08-23 06:11:09'
p544
sg5
F0.12836285240163883
sg6
S'59.png'
p545
sg8
(lp546
sg13
(lp547
S'chemistry'
p548
asg16
F0.6
sg17
F1503436269.897
sg18
(lp549
(lp550
F1503436269.897
ag544
aF0.6
aasbsI60
(imyfunction
mondai
p551
(dp552
g3
S'2017-08-24 07:46:08'
p553
sg5
F0.05487668820421371
sg6
S'60.png'
p554
sg8
(lp555
sg13
(lp556
S'chemistry'
p557
asg16
F0.0
sg17
F1503528368.119
sg18
(lp558
(lp559
F1503528368.119
ag553
aF0.0
aasbsI61
(imyfunction
mondai
p560
(dp561
g3
S'2017-08-26 23:58:55'
p562
sg5
F0.7968270573748747
sg6
S'61.png'
p563
sg8
(lp564
sg13
(lp565
S'chemistry'
p566
asg16
F0.0
sg17
F1503759535.555
sg18
(lp567
(lp568
F1503759535.555
ag562
aF0.0
aasbsI62
(imyfunction
mondai
p569
(dp570
g3
S'2017-08-27 00:05:08'
p571
sg5
F0.8002761479614642
sg6
S'62.png'
p572
sg8
(lp573
S'\xa5\xa6 u'
p574
asg13
(lp575
S'chemistry'
p576
asg16
F0.0
sg17
F1503759908.733
sg18
(lp577
(lp578
F1503759908.733
ag571
aF0.0
aasbsI63
(imyfunction
mondai
p579
(dp580
g3
S'2017-08-27 00:13:58'
p581
sg5
F0.8052010918914267
sg6
S'63.png'
p582
sg8
(lp583
sg13
(lp584
S'chemistry'
p585
asg16
F0.0
sg17
F1503760438.814
sg18
(lp586
(lp587
F1503760438.814
ag581
aF0.0
aasbsI64
(imyfunction
mondai
p588
(dp589
g3
S'2017-08-27 00:27:17'
p590
sg5
F0.8126769648130223
sg6
S'64.png'
p591
sg8
(lp592
sg13
(lp593
S'chemistry'
p594
asg16
F0.0
sg17
F1503761237.292
sg18
(lp595
(lp596
F1503761237.292
ag590
aF0.0
aasbsI65
(imyfunction
mondai
p597
(dp598
g3
S'2017-08-27 01:00:38'
p599
sg5
F0.8317226475886588
sg6
S'65.png'
p600
sg8
(lp601
sg13
(lp602
S'chemistry'
p603
asg16
F0.0
sg17
F1503763238.777
sg18
(lp604
(lp605
F1503763238.777
ag599
aF0.0
aasbsI66
(imyfunction
mondai
p606
(dp607
g3
S'2017-08-27 01:18:25'
p608
sg5
F0.931104313547299
sg6
S'66.png'
p609
sg8
(lp610
sg13
(lp611
S'chemistry'
p612
asg16
F0.8
sg17
F1503764305.612
sg18
(lp613
(lp614
F1503764305.612
ag608
aF0.8
aasbsI67
(imyfunction
mondai
p615
(dp616
g3
S'2017-08-27 04:40:16'
p617
sg5
F0.9837197695787481
sg6
S'67.png'
p618
sg8
(lp619
sg13
(lp620
S'chemistry'
p621
asg16
F0.6
sg17
F1503776416.902
sg18
(lp622
(lp623
F1503776416.902
ag617
aF0.6
aasbsI68
(imyfunction
mondai
p624
(dp625
g3
S'2017-08-27 05:25:58'
p626
sg5
F0.9999998032412237
sg6
S'68.png'
p627
sg8
(lp628
sg13
(lp629
S'chemistry'
p630
asg16
F0.0
sg17
F1503779158.5
sg18
(lp631
(lp632
F1503779158.5
ag626
aF0.0
aasbsI69
(imyfunction
mondai
p633
(dp634
g3
S'2017-08-27 06:56:25'
p635
sg5
F0.0
sg6
S'69.png'
p636
sg8
(lp637
sg13
(lp638
S'chemistry'
p639
asg16
F0.0
sg17
F1503784585.243
sg18
(lp640
(lp641
F1503784585.243
ag635
aF0.0
aasbs.