(dp0
I1
(imyfunction
mondai
p1
(dp2
S'wordtime'
p3
S'2017-10-05 19:17:13'
p4
sS'remember'
p5
F3.9752523116858026e-05
sS'imgnum'
p6
S'1.png'
p7
sS'memo'
p8
(lp9
(lp10
F1498515733.947
aS'2017-06-27 07:22:13'
p11
aS'answer 3'
p12
aasS'tag'
p13
(lp14
S'chemistry'
p15
asS'understand'
p16
F0.9993169534109716
sS'lasttime'
p17
F1507198633.675
sS'qusnum'
p18
I1
sS'history'
p19
(lp20
(lp21
F1498515733.947
ag11
aI0
aa(lp22
F1499145499.01
aS'2017-07-04 14:18:19'
p23
aI1
aa(lp24
F1507198633.675
ag4
aF0.0
aasbsI2
(imyfunction
mondai
p25
(dp26
g3
S'2017-10-01 21:56:41'
p27
sg5
F1.0825083048414187e-05
sg6
S'2.jpg'
p28
sg8
(lp29
S'answer is 3'
p30
aS'0'
p31
asg13
(lp32
g15
asg16
F0.9990451863019874
sg17
F1506862601.36
sg19
(lp33
(lp34
F1498545603.881
aS'2017-06-27 15:40:03'
p35
aI0
aa(lp36
F1499146428.99
aS'2017-07-04 14:33:48'
p37
aI0
aa(lp38
F1506862601.36
ag27
aF1.0
aasbsI3
(imyfunction
mondai
p39
(dp40
g3
S'2017-10-06 11:30:14'
p41
sg5
F5.017425072111324e-05
sg6
S'3.jpg'
p42
sg8
(lp43
S'answer is 5'
p44
asg13
(lp45
g15
asg16
F0.9999994937209005
sg17
F1507257014.144
sg18
I1
sg19
(lp46
(lp47
F1498545806.078
aS'2017-06-27 15:43:26'
p48
aI0
aa(lp49
F1499798275.889
aS'2017-07-12 03:37:55'
p50
aI1
aa(lp51
F1507257014.144
ag41
aF0.0
aasbsI4
(imyfunction
mondai
p52
(dp53
g3
S'2017-10-06 11:32:06'
p54
sg5
F5.019606027676639e-05
sg6
S'4.jpg'
p55
sg8
(lp56
S'answer is 2'
p57
asg13
(lp58
g15
asg16
F0.9999994935591113
sg17
F1507257126.788
sg18
I1
sg19
(lp59
(lp60
F1498545978.31
aS'2017-06-27 15:46:18'
p61
aI0
aa(lp62
F1499798420.515
aS'2017-07-12 03:40:20'
p63
aI1
aa(lp64
F1507257126.788
ag54
aF0.0
aasbsI5
(imyfunction
mondai
p65
(dp66
g3
S'2017-10-06 11:32:40'
p67
sg5
F0.036889990752143206
sg6
S'5.jpg'
p68
sg8
(lp69
S'answer is 3'
p70
asg13
(lp71
g15
asg16
F1.9999994359480904
sg17
F1507257160.377
sg18
I1
sg19
(lp72
(lp73
F1498555372.608
aS'2017-06-27 18:22:52'
p74
aI0
aa(lp75
F1499798506.186
aS'2017-07-12 03:41:46'
p76
aI1
aa(lp77
F1507257160.377
ag67
aF1.0
aasbsI6
(imyfunction
mondai
p78
(dp79
g3
S'2017-10-06 11:35:03'
p80
sg5
F0.03689678259406484
sg6
S'6.jpg'
p81
sg8
(lp82
S'answer is 5'
p83
asg13
(lp84
g15
asg16
F1.999999434604304
sg17
F1507257303.532
sg18
I1
sg19
(lp85
(lp86
F1498555731.783
aS'2017-06-27 18:28:51'
p87
aI0
aa(lp88
F1499798659.768
aS'2017-07-12 03:44:19'
p89
aI1
aa(lp90
F1507257303.532
ag80
aF1.0
aasbsI7
(imyfunction
mondai
p91
(dp92
g3
S'2017-10-06 11:36:30'
p93
sg5
F0.03690086367841947
sg6
S'7.jpg'
p94
sg8
(lp95
S'answer is 1'
p96
asg13
(lp97
g15
asg16
F1.9999989826526265
sg17
F1507257390.81
sg18
I1
sg19
(lp98
(lp99
F1498606533.242
aS'2017-06-28 08:35:33'
p100
aI0
aa(lp101
F1499798707.42
aS'2017-07-12 03:45:07'
p102
aI1
aa(lp103
F1507257390.81
ag93
aF1.0
aasbsI8
(imyfunction
mondai
p104
(dp105
g3
S'2017-10-06 11:37:55'
p106
sg5
F0.03690484836584471
sg6
S'8.jpg'
p107
sg8
(lp108
S'answer is 4'
p109
asg13
(lp110
g15
asg16
F1.9999988380450375
sg17
F1507257475.181
sg18
I1
sg19
(lp111
(lp112
F1498618047.081
aS'2017-06-28 11:47:27'
p113
aI0
aa(lp114
F1499798738.24
aS'2017-07-12 03:45:38'
p115
aI1
aa(lp116
F1507257475.181
ag106
aF1.0
aasbsI9
(imyfunction
mondai
p117
(dp118
g3
S'2017-10-01 21:43:25'
p119
sg5
F1.0922055955913861e-05
sg6
S'9.jpg'
p120
sg8
(lp121
S'answer is 2'
p122
asg13
(lp123
g15
asg16
F1.0
sg17
F1506861805.88
sg19
(lp124
(lp125
F1498631047.991
aS'2017-06-28 15:24:07'
p126
aI0
aa(lp127
F1506861805.88
ag119
aF1.0
aasbsI10
(imyfunction
mondai
p128
(dp129
g3
S'2017-10-01 21:52:59'
p130
sg5
F1.0946268956951831e-05
sg6
S'10.jpg'
p131
sg8
(lp132
S'answer is 4'
p133
aS'0'
p134
asg13
(lp135
g15
asg16
F1.0
sg17
F1506862379.862
sg19
(lp136
(lp137
F1498631158.414
aS'2017-06-28 15:25:58'
p138
aI0
aa(lp139
F1506862379.862
ag130
aF1.0
aasbsI11
(imyfunction
mondai
p140
(dp141
g3
S'2017-10-01 22:03:45'
p142
sg5
F6.228175550983847e-08
sg6
S'11.jpg'
p143
sg8
(lp144
(lp145
F1499144054.099
aS'2017-07-04 13:54:14'
p146
aS'answer 2,3,2'
p147
aasg13
(lp148
g15
asg16
F0.66
sg17
F1506863025.03
sg19
(lp149
(lp150
F1499144054.099
ag146
aI0
aa(lp151
F1506863025.03
ag142
aF0.66
aasbsI12
(imyfunction
mondai
p152
(dp153
g3
S'2017-10-01 22:10:11'
p154
sg5
F1.0989913354499963e-05
sg6
S'12.jpg'
p155
sg8
(lp156
(lp157
F1499144401.683
aS'2017-07-04 14:00:01'
p158
aS'answer 3'
p159
aasg13
(lp160
g15
asg16
F1.0
sg17
F1506863411.276
sg19
(lp161
(lp162
F1499144401.683
ag158
aI0
aa(lp163
F1506863411.276
ag154
aF1.0
aasbsI13
(imyfunction
mondai
p164
(dp165
g3
S'2017-10-02 00:01:23'
p166
sg5
F1.253169108100629e-05
sg6
S'13.jpg'
p167
sg8
(lp168
(lp169
F1499144716.146
aS'2017-07-04 14:05:16'
p170
aS'answer 3'
p171
aasg13
(lp172
g15
asg16
F1.0084715513436913
sg17
F1506870083.757
sg18
I1
sg19
(lp173
F1499144716.146
ag170
aI0
a(lp174
F1506870083.757
ag166
aF1.0
aasbsI14
(imyfunction
mondai
p175
(dp176
g3
S'2017-10-01 22:21:15'
p177
sg5
F1.1020696641579538e-05
sg6
S'14.jpg'
p178
sg8
(lp179
sg13
(lp180
S'math'
p181
asg16
F1.0
sg17
F1506864075.366
sg19
(lp182
(lp183
F1499153099.088
aS'2017-07-04 16:24:59'
p184
aI0
aa(lp185
F1506864075.366
ag177
aF1.0
aasbsI15
(imyfunction
mondai
p186
(dp187
g3
S'2017-10-01 22:37:19'
p188
sg5
F1.1061761617531987e-05
sg6
S'15.png'
p189
sg8
(lp190
sg13
(lp191
g181
asg16
F1.0
sg17
F1506865039.394
sg18
I1
sg19
(lp192
(lp193
F1499166125.188
aS'2017-07-04 20:02:05'
p194
aI0
aa(lp195
F1506865039.394
ag188
aF1.0
aasbsI16
(imyfunction
mondai
p196
(dp197
g3
S'2017-10-09 16:39:54'
p198
sg5
F1.8817861370460023e-07
sg6
S'16.png'
p199
sg8
(lp200
S'\xbb\xad\xcd\xbc\xba\xf3\xd5\xd2\xbd\xbb\xb5\xe3'
p201
asg13
(lp202
S'math'
p203
asg16
F0.48845452687743035
sg17
F1507534794.363
sg18
I1
sg19
(lp204
(lp205
F1499170126.383
aS'2017-07-04 21:08:46'
p206
aI0
aa(lp207
F1506867140.211
aS'2017-10-01 23:12:20'
p208
aF0.5
aa(lp209
F1507534794.363
ag198
aF0.0
aasbsI17
(imyfunction
mondai
p210
(dp211
g3
S'2017-10-01 23:20:09'
p212
sg5
F1.1169382241696197e-05
sg6
S'17.jpg'
p213
sg8
(lp214
S'answer is 4'
p215
asg13
(lp216
S'chemistry'
p217
asg16
F1.0
sg17
F1506867609.907
sg18
I1
sg19
(lp218
(lp219
F1499177974.623
aS'2017-07-04 23:19:34'
p220
aI0
aa(lp221
F1506867609.907
ag212
aF1.0
aasbsI18
(imyfunction
mondai
p222
(dp223
g3
S'2017-10-01 23:48:15'
p224
sg5
F1.1242257209030187e-05
sg6
S'18.jpg'
p225
sg8
(lp226
S'answer is 1'
p227
asg13
(lp228
g217
asg16
F1.0
sg17
F1506869295.572
sg18
I1
sg19
(lp229
(lp230
F1499178166.958
aS'2017-07-04 23:22:46'
p231
aI0
aa(lp232
F1506869295.572
ag224
aF1.0
aasbsI19
(imyfunction
mondai
p233
(dp234
g3
S'2017-10-09 16:22:53'
p235
sg5
F3.069284461116526e-12
sg6
S'19.jpg'
p236
sg8
(lp237
sg13
(lp238
g203
asg16
F-0.0004638525900832135
sg17
F1507533773.486
sg18
I1
sg19
(lp239
(lp240
F1499238201.632
aS'2017-07-05 16:03:21'
p241
aI0
aa(lp242
F1506870571.946
aS'2017-10-02 00:09:31'
p243
aF0.0
aa(lp244
F1507533773.486
ag235
aF0.0
aasbsI20
(imyfunction
mondai
p245
(dp246
g3
S'2017-10-02 23:12:05'
p247
sg5
F0.00013819326304728333
sg6
S'20.jpg'
p248
sg8
(lp249
sg13
(lp250
g203
asg16
F1.2
sg17
F1506953525.889
sg18
I9
sg19
(lp251
(lp252
F1499509485.541
aS'2017-07-08 19:24:45'
p253
aF0.2
aa(lp254
F1506953525.889
ag247
aF1.0
aasbsI21
(imyfunction
mondai
p255
(dp256
g3
S'2017-10-03 01:07:00'
p257
sg5
F1.5978469426588264e-05
sg6
S'21.jpg'
p258
sg8
(lp259
sg13
(lp260
g217
asg16
F1.0
sg17
F1506960420.575
sg18
I2
sg19
(lp261
(lp262
F1499516368.113
aS'2017-07-08 21:19:28'
p263
aF0.5
aa(lp264
F1506960420.575
ag257
aF0.5
aasbsI22
(imyfunction
mondai
p265
(dp266
g3
S'2017-11-01 16:33:08'
p267
sg5
F0.030511437751914526
sg6
S'22.jpg'
p268
sg8
(lp269
sg13
(lp270
g217
asg16
F-4.7330904540662766e-14
sg17
F1509521588.869
sg18
I1
sg19
(lp271
(lp272
F1499530900.691
aS'2017-07-09 01:21:40'
p273
aI0
aa(lp274
F1506870697.511
aS'2017-10-02 00:11:37'
p275
aF0.0
aa(lp276
F1509521588.869
ag267
aF0.0
aasbsI23
(imyfunction
mondai
p277
(dp278
g3
S'2017-11-04 21:09:48'
p279
sg5
F0.9055845942446962
sg6
S'23.jpg'
p280
sg8
(lp281
sg13
(lp282
g217
asg16
F0.999999999999998
sg17
F1509797388.893
sg18
I1
sg19
(lp283
(lp284
F1499530950.137
aS'2017-07-09 01:22:30'
p285
aI0
aa(lp286
F1506870960.973
aS'2017-10-02 00:16:00'
p287
aF0.0
aa(lp288
F1509797388.893
ag279
aF1.0
aasbsI24
(imyfunction
mondai
p289
(dp290
g3
S'2017-10-02 00:20:08'
p291
sg5
F1.1325538614665072e-05
sg6
S'24.jpg'
p292
sg8
(lp293
sg13
(lp294
S'chemistry'
p295
asg16
F1.0
sg17
F1506871208.62
sg18
I1
sg19
(lp296
(lp297
F1499547136.371
aS'2017-07-09 05:52:16'
p298
aI0
aa(lp299
F1506871208.62
ag291
aF1.0
aasbsI25
(imyfunction
mondai
p300
(dp301
g3
S'2017-11-04 21:12:20'
p302
sg5
F0.9061133521147737
sg6
S'25.jpg'
p303
sg8
(lp304
sg13
(lp305
g295
asg16
F0.999999999999998
sg17
F1509797540.192
sg18
I1
sg19
(lp306
(lp307
F1499547377.744
aS'2017-07-09 05:56:17'
p308
aI0
aa(lp309
F1506871351.16
aS'2017-10-02 00:22:31'
p310
aF0.0
aa(lp311
F1509797540.192
ag302
aF1.0
aasbsI26
(imyfunction
mondai
p312
(dp313
g3
S'2017-11-04 21:13:38'
p314
sg5
F0.9063871396827176
sg6
S'26.jpg'
p315
sg8
(lp316
sg13
(lp317
g295
asg16
F0.999999999999998
sg17
F1509797618.499
sg18
I1
sg19
(lp318
(lp319
F1499547423.422
aS'2017-07-09 05:57:03'
p320
aI0
aa(lp321
F1506871509.021
aS'2017-10-02 00:25:09'
p322
aF0.0
aa(lp323
F1509797618.499
ag314
aF1.0
aasbsI27
(imyfunction
mondai
p324
(dp325
g3
S'2017-10-02 00:29:55'
p326
sg5
F1.1351189202424571e-05
sg6
S'27.jpg'
p327
sg8
(lp328
sg13
(lp329
g295
asg16
F1.0
sg17
F1506871795.004
sg18
I1
sg19
(lp330
(lp331
F1499547463.182
aS'2017-07-09 05:57:43'
p332
aI0
aa(lp333
F1506871795.004
ag326
aF1.0
aasbsI28
(imyfunction
mondai
p334
(dp335
g3
S'2017-10-02 00:31:26'
p336
sg5
F1.1355175912737816e-05
sg6
S'28.jpg'
p337
sg8
(lp338
sg13
(lp339
g295
asg16
F1.0
sg17
F1506871886.023
sg18
I1
sg19
(lp340
(lp341
F1499616196.736
aS'2017-07-10 01:03:16'
p342
aI0
aa(lp343
F1506871886.023
ag336
aF1.0
aasbsI29
(imyfunction
mondai
p344
(dp345
g3
S'2017-10-05 01:19:58'
p346
sg5
F0.0034495850378088227
sg6
S'29.jpg'
p347
sg8
(lp348
sg13
(lp349
S'math'
p350
asg16
F1.55
sg17
F1507133998.435
sg18
I5
sg19
(lp351
(lp352
F1499616732.384
aS'2017-07-10 01:12:12'
p353
aF0.75
aa(lp354
F1507133998.435
ag346
aF0.8
aasbsI30
(imyfunction
mondai
p355
(dp356
g3
S'2017-10-02 00:32:05'
p357
sg5
F1.1356900917747862e-05
sg6
S'30.png'
p358
sg8
(lp359
sg13
(lp360
g295
asg16
F1.0
sg17
F1506871925.396
sg18
I1
sg19
(lp361
(lp362
F1499680704.857
aS'2017-07-10 18:58:24'
p363
aI0
aa(lp364
F1506871925.396
ag357
aF1.0
aasbsI31
(imyfunction
mondai
p365
(dp366
g3
S'2017-10-03 00:04:06'
p367
sg5
F4.778702402969361e-07
sg6
S'31.jpg'
p368
sg8
(lp369
sg13
(lp370
g350
asg16
F0.75
sg17
F1506956646.764
sg18
I10
sg19
(lp371
(lp372
F1499797297.774
aS'2017-07-12 03:21:37'
p373
aF0.45
aa(lp374
F1506956646.764
ag367
aF0.3
aasbsI32
(imyfunction
mondai
p375
(dp376
g3
S'2017-10-02 22:55:47'
p377
sg5
F1.0199732700160356e-06
sg6
S'32.jpg'
p378
sg8
(lp379
sg13
(lp380
g350
asg16
F0.8
sg17
F1506952547.162
sg18
I4
sg19
(lp381
(lp382
F1499797470.167
aS'2017-07-12 03:24:30'
p383
aF0.05
aa(lp384
F1506952547.162
ag377
aF0.75
aasbsI33
(imyfunction
mondai
p385
(dp386
g3
S'2017-10-02 22:33:57'
p387
sg5
F1.5425916846793814e-05
sg6
S'33.jpg'
p388
sg8
(lp389
sg13
(lp390
S'physics'
p391
asg16
F1.0
sg17
F1506951237.584
sg18
I1
sg19
(lp392
(lp393
F1500064604.639
aS'2017-07-15 05:36:44'
p394
aI0
aa(lp395
F1506951237.584
ag387
aF1.0
aasbsI34
(imyfunction
mondai
p396
(dp397
g3
S'2017-10-03 01:17:02'
p398
sg5
F1.2902789310066633e-13
sg6
S'34.jpg'
p399
sg8
(lp400
sg13
(lp401
S'physical'
p402
asg16
F0.1
sg17
F1506961022.079
sg18
I9
sg19
(lp403
(lp404
F1502980173.751
aS'2017-08-17 23:29:33'
p405
aF0.0
aa(lp406
F1506961022.079
ag398
aF0.1
aasbsI35
(imyfunction
mondai
p407
(dp408
g3
S'2017-10-06 17:28:34'
p409
sg5
F0.003455657169486173
sg6
S'35.jpeg'
p410
sg8
(lp411
sg13
(lp412
S'physical'
p413
asg16
F1.49999999999965
sg17
F1507278514.74
sg18
I2
sg19
(lp414
(lp415
F1502986373.885
aS'2017-08-18 01:12:53'
p416
aF0.5
aa(lp417
F1507278514.74
ag409
aF1.0
aasbsI36
(imyfunction
mondai
p418
(dp419
g3
S'2017-11-05 03:29:36'
p420
sg5
F0.9855939617225543
sg6
S'36.jpeg'
p421
sg8
(lp422
sg13
(lp423
S'physical'
p424
asg16
F0.7499999999999987
sg17
F1509820176.122
sg18
I0
sg19
(lp425
(lp426
F1503074370.742
aS'2017-08-19 01:39:30'
p427
aF0.75
aa(lp428
F1509820176.122
ag420
aF0.0
aasbsI37
(imyfunction
mondai
p429
(dp430
g3
S'2017-10-06 20:27:41'
p431
sg5
F1.826539457048359e-05
sg6
S'37.jpeg'
p432
sg8
(lp433
sg13
(lp434
S'physical'
p435
asg16
F0.8999999999889152
sg17
F1507289261.527
sg18
I3
sg19
(lp436
(lp437
F1503075931.234
aS'2017-08-19 02:05:31'
p438
aF0.6
aa(lp439
F1507289261.527
ag431
aF0.3
aasbsI38
(imyfunction
mondai
p440
(dp441
g3
S'2017-08-19 03:13:53'
p442
sg5
F8.42755232825576e-15
sg6
S'38.jpeg'
p443
sg8
(lp444
sg13
(lp445
S'physical'
p446
asg16
F0.8
sg17
F1503080033.486
sg19
(lp447
(lp448
F1503080033.486
ag442
aF0.8
aasbsI39
(imyfunction
mondai
p449
(dp450
g3
S'2017-11-05 03:55:14'
p451
sg5
F0.9933239132913058
sg6
S'39.jpeg'
p452
sg8
(lp453
sg13
(lp454
S'physical'
p455
asg16
F0.7499999999999987
sg17
F1509821714.758
sg19
(lp456
(lp457
F1503081729.58
aS'2017-08-19 03:42:09'
p458
aF0.75
aa(lp459
F1509821714.758
ag451
aI0
aasbsI40
(imyfunction
mondai
p460
(dp461
g3
S'2017-08-19 03:59:08'
p462
sg5
F2.483650723370309e-13
sg6
S'40.jpeg'
p463
sg8
(lp464
sg13
(lp465
S'physical'
p466
asg16
F0.9
sg17
F1503082748.531
sg19
(lp467
(lp468
F1503082748.531
ag462
aF0.9
aasbsI41
(imyfunction
mondai
p469
(dp470
g3
S'2017-10-06 20:44:43'
p471
sg5
F2.597027915390232e-07
sg6
S'41.jpg'
p472
sg8
(lp473
sg13
(lp474
S'physical'
p475
asg16
F0.5999999999734331
sg17
F1507290283.108
sg18
I2
sg19
(lp476
(lp477
F1503222950.967
aS'2017-08-20 18:55:50'
p478
aF0.6
aa(lp479
F1507290283.108
ag471
aF0.0
aasbsI42
(imyfunction
mondai
p480
(dp481
g3
S'2017-10-05 01:55:43'
p482
sg5
F1.4398791610148574e-11
sg6
S'42.jpg'
p483
sg8
(lp484
sg13
(lp485
S'physical'
p486
asg16
F0.19999999999999984
sg17
F1507136143.167
sg18
I4
sg19
(lp487
(lp488
F1503226800.354
aS'2017-08-20 20:00:00'
p489
aF0.2
aa(lp490
F1507136143.167
ag482
aF0.0
aasbsI43
(imyfunction
mondai
p491
(dp492
g3
S'2017-11-05 04:00:24'
p493
sg5
F0.9876821417715299
sg6
S'43.png'
p494
sg8
(lp495
sg13
(lp496
S'chemistry'
p497
asg16
F-4.169805122583686e-15
sg17
F1509822024.073
sg18
I1
sg19
(lp498
(lp499
F1503232569.843
aS'2017-08-20 21:36:09'
p500
aF0.0
aa(lp501
F1506961237.95
aS'2017-10-03 01:20:37'
p502
aF0.0
aa(lp503
F1509822024.073
ag493
aF0.0
aasbsI44
(imyfunction
mondai
p504
(dp505
g3
S'2017-10-06 18:17:47'
p506
sg5
F4.207115128788752e-08
sg6
S'44.png'
p507
sg8
(lp508
sg13
(lp509
S'chemistry'
p510
asg16
F0.49999999999820877
sg17
F1507281467.536
sg18
I1
sg19
(lp511
(lp512
F1503233740.794
aS'2017-08-20 21:55:40'
p513
aF0.5
aa(lp514
F1507281467.536
ag506
aF0.0
aasbsI45
(imyfunction
mondai
p515
(dp516
g3
S'2017-11-05 04:21:00'
p517
sg5
F4.12199211071457e-15
sg6
S'45.png'
p518
sg8
(lp519
sg13
(lp520
S'chemistry'
p521
asg16
F-4.12219873387475e-15
sg17
F1509823260.778
sg18
I1
sg19
(lp522
(lp523
F1503244261.055
aS'2017-08-21 00:51:01'
p524
aF0.0
aa(lp525
F1506961481.977
aS'2017-10-03 01:24:41'
p526
aF0.0
aa(lp527
F1509823260.778
ag517
aF0.0
aasbsI46
(imyfunction
mondai
p528
(dp529
g3
S'2017-10-08 14:44:51'
p530
sg5
F5.601575915155395e-06
sg6
S'46.png'
p531
sg8
(lp532
S'answer is 7'
p533
asg13
(lp534
S'chemistry'
p535
asg16
F0.7499999994412296
sg17
F1507441491.578
sg18
I1
sg19
(lp536
(lp537
F1503245428.763
aS'2017-08-21 01:10:28'
p538
aF0.75
aa(lp539
F1507441491.578
ag530
aF0.0
aasbsI47
(imyfunction
mondai
p540
(dp541
g3
S'2017-10-03 01:43:06'
p542
sg5
F4.183053957745817e-15
sg6
S'47.png'
p543
sg8
(lp544
sg13
(lp545
S'chemistry'
p546
asg16
F-2.0990110472453477e-19
sg17
F1506962586.658
sg18
I1
sg19
(lp547
(lp548
F1503246725.658
aS'2017-08-21 01:32:05'
p549
aF0.0
aa(lp550
F1506962586.658
ag542
aF0.0
aasbsI48
(imyfunction
mondai
p551
(dp552
g3
S'2017-10-03 01:46:05'
p553
sg5
F4.1917364507363255e-15
sg6
S'48.png'
p554
sg8
(lp555
sg13
(lp556
S'chemistry'
p557
asg16
F-2.1089833665454635e-19
sg17
F1506962765.807
sg18
I1
sg19
(lp558
(lp559
F1503247314.318
aS'2017-08-21 01:41:54'
p560
aF0.0
aa(lp561
F1506962765.807
ag553
aF0.0
aasbsI49
(imyfunction
mondai
p562
(dp563
g3
S'2017-10-03 02:01:29'
p564
sg5
F1.618129041456193e-05
sg6
S'49.png'
p565
sg8
(lp566
sg13
(lp567
S'chemistry'
p568
asg16
F1.0
sg17
F1506963689.996
sg18
I0
sg19
(lp569
(lp570
F1503255138.538
aS'2017-08-21 03:52:18'
p571
aF0.0
aa(lp572
F1506963689.996
ag564
aF1.0
aasbsI50
(imyfunction
mondai
p573
(dp574
g3
S'2017-10-03 02:28:01'
p575
sg5
F4.315571259938248e-15
sg6
S'50.png'
p576
sg8
(lp577
sg13
(lp578
S'chemistry'
p579
asg16
F-2.621417900670252e-19
sg17
F1506965281.311
sg18
I1
sg19
(lp580
(lp581
F1503268622.629
aS'2017-08-21 07:37:02'
p582
aF0.0
aa(lp583
F1506965281.311
ag575
aF0.0
aasbsI51
(imyfunction
mondai
p584
(dp585
g3
S'2017-10-06 18:22:55'
p586
sg5
F5.520421344712878e-05
sg6
S'51.jpg'
p587
sg8
(lp588
sg13
(lp589
S'chemistry'
p590
asg16
F0.9999999999977303
sg17
F1507281775.99
sg18
I2
sg19
(lp591
(lp592
F1503269475.48
aS'2017-08-21 07:51:15'
p593
aF0.5
aa(lp594
F1507281775.99
ag586
aF0.5
aasbsI52
(imyfunction
mondai
p595
(dp596
g3
S'2017-10-08 14:35:09'
p597
sg5
F0.014129759960611525
sg6
S'52.jpg'
p598
sg8
(lp599
sg13
(lp600
S'chemistry'
p601
asg16
F1.699999999808111
sg17
F1507440909.042
sg18
I2
sg19
(lp602
(lp603
F1503269869.663
aS'2017-08-21 07:57:49'
p604
aF0.7
aa(lp605
F1507440909.042
ag597
aF1.0
aasbsI53
(imyfunction
mondai
p606
(dp607
g3
S'2017-10-06 18:10:27'
p608
sg5
F0.00038104733432788463
sg6
S'53.png'
p609
sg8
(lp610
sg13
(lp611
S'math'
p612
asg16
F1.1999999999991968
sg17
F1507281027.181
sg18
I4
sg19
(lp613
(lp614
F1503336047.871
aS'2017-08-22 02:20:47'
p615
aF0.45
aa(lp616
F1507281027.181
ag608
aF0.75
aasbsI54
(imyfunction
mondai
p617
(dp618
g3
S'2017-10-12 17:14:13'
p619
sg5
F4.646213911338794e-06
sg6
S'54.png'
p620
sg8
(lp621
sg13
(lp622
S'math'
p623
asg16
F0.5892772470714089
sg17
F1507796053.214
sg18
I6
sg19
(lp624
(lp625
F1503352854.527
aS'2017-08-22 07:00:54'
p626
aF0.1
aa(lp627
F1507038521.394
aS'2017-10-03 22:48:41'
p628
aF0.5
aa(lp629
F1507796053.214
ag619
aF0.0
aasbsI55
(imyfunction
mondai
p630
(dp631
g3
S'2017-10-03 12:44:19'
p632
sg5
F6.024090574208881e-07
sg6
S'55.jpg'
p633
sg8
(lp634
sg13
(lp635
S'physical'
p636
asg16
F0.75
sg17
F1507002259.751
sg18
I4
sg19
(lp637
(lp638
F1503367103.179
aS'2017-08-22 10:58:23'
p639
aF0.0
aa(lp640
F1507002259.751
ag632
aF0.75
aasbsI56
(imyfunction
mondai
p641
(dp642
g3
S'2017-10-05 20:11:01'
p643
sg5
F3.2330082377208475e-09
sg6
S'56.png'
p644
sg8
(lp645
sg13
(lp646
S'chemistry'
p647
asg16
F0.39999999999961466
sg17
F1507201861.287
sg18
I5
sg19
(lp648
(lp649
F1503369253.09
aS'2017-08-22 11:34:13'
p650
aF0.4
aa(lp651
F1507201861.287
ag643
aF0.0
aasbsI57
(imyfunction
mondai
p652
(dp653
g3
S'2017-10-06 18:46:09'
p654
sg5
F9.370660409802373e-05
sg6
S'57.png'
p655
sg8
(lp656
sg13
(lp657
S'chemistry'
p658
asg16
F1.0499999999955751
sg17
F1507283169.396
sg18
I11
sg19
(lp659
(lp660
F1503370774.163
aS'2017-08-22 11:59:34'
p661
aF0.5
aa(lp662
F1507283169.396
ag654
aF0.55
aasbsI58
(imyfunction
mondai
p663
(dp664
g3
S'2017-10-06 20:00:56'
p665
sg5
F4.3847482328729474e-08
sg6
S'58.png'
p666
sg8
(lp667
sg13
(lp668
S'chemistry'
p669
asg16
F0.4999999999944683
sg17
F1507287656.284
sg18
I4
sg19
(lp670
(lp671
F1503408670.508
aS'2017-08-22 22:31:10'
p672
aF0.5
aa(lp673
F1507287656.284
ag665
aF0.0
aasbsI59
(imyfunction
mondai
p674
(dp675
g3
S'2017-10-08 14:29:04'
p676
sg5
F0.0002650489581586208
sg6
S'59.png'
p677
sg8
(lp678
sg13
(lp679
S'chemistry'
p680
asg16
F1.0999999999612475
sg17
F1507440544.214
sg18
I6
sg19
(lp681
(lp682
F1503436269.897
aS'2017-08-23 06:11:09'
p683
aF0.6
aa(lp684
F1507440544.214
ag676
aF0.5
aasbsI60
(imyfunction
mondai
p685
(dp686
g3
S'2017-10-03 22:14:47'
p687
sg5
F9.839215915850823e-15
sg6
S'60.png'
p688
sg8
(lp689
sg13
(lp690
S'chemistry'
p691
asg16
F-2.3240177672528205e-18
sg17
F1507036487.553
sg18
I1
sg19
(lp692
(lp693
F1503528368.119
aS'2017-08-24 07:46:08'
p694
aF0.0
aa(lp695
F1507036487.553
ag687
aF0.0
aasbsI61
(imyfunction
mondai
p696
(dp697
g3
S'2017-10-03 22:53:48'
p698
sg5
F2.1622618956116806e-05
sg6
S'61.png'
p699
sg8
(lp700
sg13
(lp701
S'chemistry'
p702
asg16
F1.0
sg17
F1507038828.001
sg18
I1
sg19
(lp703
(lp704
F1503759535.555
aS'2017-08-26 23:58:55'
p705
aF0.0
aa(lp706
F1507038828.001
ag698
aF1.0
aasbsI62
(imyfunction
mondai
p707
(dp708
g3
S'2017-10-03 22:58:11'
p709
sg5
F1.0140243935545768e-14
sg6
S'62.png'
p710
sg8
(lp711
S'\xa5\xa6 u'
p712
asg13
(lp713
S'chemistry'
p714
asg16
F-3.2885428981875427e-17
sg17
F1507039091.306
sg18
I1
sg19
(lp715
(lp716
F1503759908.733
aS'2017-08-27 00:05:08'
p717
aF0.0
aa(lp718
F1507039091.306
ag709
aF0.0
aasbsI63
(imyfunction
mondai
p719
(dp720
g3
S'2017-10-03 23:06:21'
p721
sg5
F1.019795542217836e-14
sg6
S'63.png'
p722
sg8
(lp723
sg13
(lp724
S'chemistry'
p725
asg16
F-3.2900559759003024e-17
sg17
F1507039581.643
sg18
I1
sg19
(lp726
(lp727
F1503760438.814
aS'2017-08-27 00:13:58'
p728
aF0.0
aa(lp729
F1507039581.643
ag721
aF0.0
aasbsI64
(imyfunction
mondai
p730
(dp731
g3
S'2017-10-03 23:17:32'
p732
sg5
F1.0277486948824917e-14
sg6
S'64.png'
p733
sg8
(lp734
sg13
(lp735
S'chemistry'
p736
asg16
F-3.294906211238578e-17
sg17
F1507040252.843
sg18
I1
sg19
(lp737
(lp738
F1503761237.292
aS'2017-08-27 00:27:17'
p739
aF0.0
aa(lp740
F1507040252.843
ag732
aF0.0
aasbsI65
(imyfunction
mondai
p741
(dp742
g3
S'2017-10-04 01:24:08'
p743
sg5
F1.1221862096912314e-14
sg6
S'65.png'
p744
sg8
(lp745
sg13
(lp746
S'chemistry'
p747
asg16
F-3.088343801126597e-17
sg17
F1507047848.101
sg18
I1
sg19
(lp748
(lp749
F1503763238.777
aS'2017-08-27 01:00:38'
p750
aF0.0
aa(lp751
F1507047848.101
ag743
aF0.0
aasbsI66
(imyfunction
mondai
p752
(dp753
g3
S'2017-10-08 16:06:47'
p754
sg5
F1.0946374005052543e-05
sg6
S'66.png'
p755
sg8
(lp756
sg13
(lp757
S'chemistry'
p758
asg16
F0.7999999793676873
sg17
F1507446407.946
sg18
I0
sg19
(lp759
(lp760
F1503764305.612
aS'2017-08-27 01:18:25'
p761
aF0.8
aa(lp762
F1507446407.946
ag754
aF0.0
aasbsI67
(imyfunction
mondai
p763
(dp764
g3
S'2017-10-08 14:43:04'
p765
sg5
F0.0002658198264945929
sg6
S'67.png'
p766
sg8
(lp767
sg13
(lp768
S'chemistry'
p769
asg16
F1.0999999997045067
sg17
F1507441384.391
sg18
I2
sg19
(lp770
(lp771
F1503776416.902
aS'2017-08-27 04:40:16'
p772
aF0.6
aa(lp773
F1507441384.391
ag765
aF0.5
aasbsI68
(imyfunction
mondai
p774
(dp775
g3
S'2017-10-04 01:29:36'
p776
sg5
F2.2416689901196623e-05
sg6
S'68.png'
p777
sg8
(lp778
sg13
(lp779
S'chemistry'
p780
asg16
F1.0
sg17
F1507048176.263
sg18
I2
sg19
(lp781
(lp782
F1503779158.5
aS'2017-08-27 05:25:58'
p783
aF0.0
aa(lp784
F1507048176.263
ag776
aF1.0
aasbsI69
(imyfunction
mondai
p785
(dp786
g3
S'2017-10-05 01:03:07'
p787
sg5
F3.006230062253191e-14
sg6
S'69.png'
p788
sg8
(lp789
sg13
(lp790
S'chemistry'
p791
asg16
F-1.475936158364671e-17
sg17
F1507132987.358
sg18
I1
sg19
(lp792
(lp793
F1503784585.243
aS'2017-08-27 06:56:25'
p794
aF0.0
aa(lp795
F1507132987.358
ag787
aF0.0
aasbsI70
(imyfunction
mondai
p796
(dp797
g3
S'2017-10-05 01:36:08'
p798
sg5
F3.075942290784684e-14
sg6
S'70.png'
p799
sg8
(lp800
sg13
(lp801
S'chemistry'
p802
asg16
F-3.8906083719910555e-17
sg17
F1507134968.032
sg18
I2
sg19
(lp803
(lp804
F1503870311.11
aS'2017-08-28 06:45:11'
p805
aF0.0
aa(lp806
F1507134968.032
ag798
aF0.0
aasbsI71
(imyfunction
mondai
p807
(dp808
g3
S'2017-10-05 01:41:30'
p809
sg5
F3.137135400654046e-05
sg6
S'71.jpg'
p810
sg8
(lp811
sg13
(lp812
S'chemistry'
p813
asg16
F1.0
sg17
F1507135290.64
sg18
I1
sg19
(lp814
(lp815
F1503879436.234
aS'2017-08-28 09:17:16'
p816
aF0.0
aa(lp817
F1507135290.64
ag809
aF1.0
aasbsI72
(imyfunction
mondai
p818
(dp819
g3
S'2017-10-05 12:25:33'
p820
sg5
F2.0507391096025225e-08
sg6
S'72.png'
p821
sg8
(lp822
sg13
(lp823
S'chemistry'
p824
asg16
F0.4999999999999999
sg17
F1507173933.085
sg18
I2
sg19
(lp825
(lp826
F1504016042.217
aS'2017-08-29 23:14:02'
p827
aF0.0
aa(lp828
F1507173933.085
ag820
aF0.5
aasbsI73
(imyfunction
mondai
p829
(dp830
g3
S'2017-10-05 12:40:05'
p831
sg5
F3.653764561676022e-05
sg6
S'73.png'
p832
sg8
(lp833
sg13
(lp834
S'chemistry'
p835
asg16
F0.9999999999999999
sg17
F1507174805.144
sg18
I2
sg19
(lp836
(lp837
F1504016537.49
aS'2017-08-29 23:22:17'
p838
aF0.0
aa(lp839
F1507174805.144
ag831
aF1.0
aasbsI74
(imyfunction
mondai
p840
(dp841
g3
S'2017-10-05 13:00:30'
p842
sg5
F4.9474306126975364e-14
sg6
S'74.jpg'
p843
sg8
(lp844
sg13
(lp845
S'chemistry'
p846
asg16
F-1.3365815349420956e-16
sg17
F1507176030.244
sg18
I1
sg19
(lp847
(lp848
F1504018002.57
aS'2017-08-29 23:46:42'
p849
aF0.0
aa(lp850
F1507176030.244
ag842
aF0.0
aasbsI75
(imyfunction
mondai
p851
(dp852
g3
S'2017-10-05 13:11:09'
p853
sg5
F4.984191297284914e-14
sg6
S'75.jpg'
p854
sg8
(lp855
sg13
(lp856
S'chemistry'
p857
asg16
F-1.3632074025443876e-16
sg17
F1507176669.845
sg18
I2
sg19
(lp858
(lp859
F1504020346.415
aS'2017-08-30 00:25:46'
p860
aF0.0
aa(lp861
F1507176669.845
ag853
aF0.0
aasbsI76
(imyfunction
mondai
p862
(dp863
g3
S'2017-10-05 13:13:53'
p864
sg5
F3.682462961844968e-05
sg6
S'76.png'
p865
sg8
(lp866
sg13
(lp867
S'chemistry'
p868
asg16
F0.9999999999999982
sg17
F1507176833.07
sg18
I1
sg19
(lp869
(lp870
F1504242498.728
aS'2017-09-01 14:08:18'
p871
aF0.0
aa(lp872
F1507176833.07
ag864
aF1.0
aasbsI77
(imyfunction
mondai
p873
(dp874
g3
S'2017-10-05 13:15:17'
p875
sg5
F4.998510919196912e-14
sg6
S'77.jpg'
p876
sg8
(lp877
sg13
(lp878
S'chemistry'
p879
asg16
F-1.785161182950008e-15
sg17
F1507176917.717
sg18
I1
sg19
(lp880
(lp881
F1504242836.989
aS'2017-09-01 14:13:56'
p882
aF0.0
aa(lp883
F1507176917.717
ag875
aF0.0
aasbsI78
(imyfunction
mondai
p884
(dp885
g3
S'2017-10-05 13:18:40'
p886
sg5
F3.6865532345081076e-05
sg6
S'78.png'
p887
sg8
(lp888
sg13
(lp889
S'chemistry'
p890
asg16
F0.9999999999999982
sg17
F1507177120.815
sg18
I2
sg19
(lp891
(lp892
F1504243511.051
aS'2017-09-01 14:25:11'
p893
aF0.0
aa(lp894
F1507177120.815
ag886
aF1.0
aasbsI79
(imyfunction
mondai
p895
(dp896
g3
S'2017-10-05 13:23:50'
p897
sg5
F3.6909658983806815e-05
sg6
S'79.jpg'
p898
sg8
(lp899
sg13
(lp900
S'chemistry'
p901
asg16
F0.9999999999999982
sg17
F1507177430.882
sg18
I1
sg19
(lp902
(lp903
F1504244940.738
aS'2017-09-01 14:49:00'
p904
aF0.0
aa(lp905
F1507177430.882
ag897
aF1.0
aasbsI80
(imyfunction
mondai
p906
(dp907
g3
S'2017-10-05 13:31:41'
p908
sg5
F3.6976744655751666e-05
sg6
S'80.jpg'
p909
sg8
(lp910
sg13
(lp911
S'chemistry'
p912
asg16
F0.9999999999999981
sg17
F1507177901.567
sg18
I1
sg19
(lp913
(lp914
F1504246658.078
aS'2017-09-01 15:17:38'
p915
aF0.0
aa(lp916
F1507177901.567
ag908
aF1.0
aasbsI81
(imyfunction
mondai
p917
(dp918
g3
S'2017-10-05 13:40:26'
p919
sg5
F5.0865625201462e-14
sg6
S'81.png'
p920
sg8
(lp921
sg13
(lp922
S'chemistry'
p923
asg16
F-2.5723812036960078e-15
sg17
F1507178426.452
sg18
I1
sg19
(lp924
(lp925
F1504275909.657
aS'2017-09-01 23:25:09'
p926
aF0.0
aa(lp927
F1507178426.452
ag919
aF0.0
aasbsI82
(imyfunction
mondai
p928
(dp929
g3
S'2017-10-05 13:45:04'
p930
sg5
F5.102986667597073e-14
sg6
S'82.png'
p931
sg8
(lp932
sg13
(lp933
S'chemistry'
p934
asg16
F-2.623170979143293e-15
sg17
F1507178704.982
sg18
I1
sg19
(lp935
(lp936
F1504277877.469
aS'2017-09-01 23:57:57'
p937
aF0.0
aa(lp938
F1507178704.982
ag930
aF0.0
aasbsI83
(imyfunction
mondai
p939
(dp940
g3
S'2017-10-05 13:51:58'
p941
sg5
F5.127446829667163e-14
sg6
S'83.png'
p942
sg8
(lp943
sg13
(lp944
S'chemistry'
p945
asg16
F-2.6309049855391633e-15
sg17
F1507179118.134
sg18
I1
sg19
(lp946
(lp947
F1504278544.983
aS'2017-09-02 00:09:04'
p948
aF0.0
aa(lp949
F1507179118.134
ag941
aF0.0
aasbsI84
(imyfunction
mondai
p950
(dp951
g3
S'2017-10-08 14:58:31'
p952
sg5
F0.004976486257159941
sg6
S'84.png'
p953
sg8
(lp954
sg13
(lp955
S'chemistry'
p956
asg16
F1.4999999993144824
sg17
F1507442311.976
sg18
I4
sg19
(lp957
(lp958
F1504284587.342
aS'2017-09-02 01:49:47'
p959
aF0.5
aa(lp960
F1507442311.976
ag952
aF1.0
aasbsI85
(imyfunction
mondai
p961
(dp962
g3
S'2017-10-08 16:05:36'
p963
sg5
F0.005021295010766202
sg6
S'85.jpg'
p964
sg8
(lp965
sg13
(lp966
S'chemistry'
p967
asg16
F1.4999999993216577
sg17
F1507446336.252
sg18
I2
sg19
(lp968
(lp969
F1504287036.941
aS'2017-09-02 02:30:36'
p970
aF0.5
aa(lp971
F1507446336.252
ag963
aF1.0
aasbsI86
(imyfunction
mondai
p972
(dp973
g3
S'2017-10-06 20:39:14'
p974
sg5
F3.6728461909268116e-05
sg6
S'86.png'
p975
sg8
(lp976
sg13
(lp977
S'chemistry'
p978
asg16
F0.959999999985973
sg17
F1507289954.953
sg18
I6
sg19
(lp979
(lp980
F1504287911.136
aS'2017-09-02 02:45:11'
p981
aF0.3
aa(lp982
F1507289954.953
ag974
aF0.66
aasbsI87
(imyfunction
mondai
p983
(dp984
g3
S'2017-10-05 14:00:49'
p985
sg5
F5.15907546442742e-14
sg6
S'87.png'
p986
sg8
(lp987
sg13
(lp988
S'chemistry'
p989
asg16
F-2.9523154222679466e-15
sg17
F1507179649.455
sg18
I1
sg19
(lp990
(lp991
F1504289034.929
aS'2017-09-02 03:03:54'
p992
aF0.0
aa(lp993
F1507179649.455
ag985
aF0.0
aasbsI88
(imyfunction
mondai
p994
(dp995
g3
S'2017-10-05 14:55:48'
p996
sg5
F5.359847765659081e-14
sg6
S'88.png'
p997
sg8
(lp998
sg13
(lp999
S'chemistry'
p1000
asg16
F-3.0461961254892452e-15
sg17
F1507182948.05
sg18
I2
sg19
(lp1001
(lp1002
F1504295038.18
aS'2017-09-02 04:43:58'
p1003
aF0.0
aa(lp1004
F1507182948.05
ag996
aF0.0
aasbsI89
(imyfunction
mondai
p1005
(dp1006
g3
S'2017-10-05 15:18:58'
p1007
sg5
F5.446773716130071e-14
sg6
S'89.jpg'
p1008
sg8
(lp1009
sg13
(lp1010
S'chemistry'
p1011
asg16
F-4.159729661901105e-15
sg17
F1507184338.043
sg18
I3
sg19
(lp1012
(lp1013
F1504323346.65
aS'2017-09-02 12:35:46'
p1014
aF0.0
aa(lp1015
F1507184338.043
ag1007
aF0.0
aasbsI90
(imyfunction
mondai
p1016
(dp1017
g3
S'2017-10-05 15:33:09'
p1018
sg5
F3.80311721956051e-05
sg6
S'90.png'
p1019
sg8
(lp1020
sg13
(lp1021
S'chemistry'
p1022
asg16
F0.9999999999999959
sg17
F1507185189.481
sg18
I1
sg19
(lp1023
(lp1024
F1504323686.397
aS'2017-09-02 12:41:26'
p1025
aF0.0
aa(lp1026
F1507185189.481
ag1018
aF1.0
aasbsI91
(imyfunction
mondai
p1027
(dp1028
g3
S'2017-10-05 15:34:52'
p1029
sg5
F3.804629890323205e-05
sg6
S'91.jpg'
p1030
sg8
(lp1031
sg13
(lp1032
S'chemistry'
p1033
asg16
F0.9999999999999959
sg17
F1507185292.556
sg18
I1
sg19
(lp1034
(lp1035
F1504324204.896
aS'2017-09-02 12:50:04'
p1036
aF0.0
aa(lp1037
F1507185292.556
ag1029
aF1.0
aasbsI92
(imyfunction
mondai
p1038
(dp1039
g3
S'2017-10-05 15:47:43'
p1040
sg5
F5.556638885094647e-14
sg6
S'92.png'
p1041
sg8
(lp1042
sg13
(lp1043
S'chemistry'
p1044
asg16
F-4.178117625193385e-15
sg17
F1507186063.447
sg18
I1
sg19
(lp1045
(lp1046
F1504325453.141
aS'2017-09-02 13:10:53'
p1047
aF0.0
aa(lp1048
F1507186063.447
ag1040
aF0.0
aasbsI93
(imyfunction
mondai
p1049
(dp1050
g3
S'2017-10-05 15:53:41'
p1051
sg5
F5.5797181141301594e-14
sg6
S'93.png'
p1052
sg8
(lp1053
sg13
(lp1054
S'chemistry'
p1055
asg16
F-4.260929810562285e-15
sg17
F1507186421.562
sg18
I1
sg19
(lp1056
(lp1057
F1504327506.993
aS'2017-09-02 13:45:06'
p1058
aF0.0
aa(lp1059
F1507186421.562
ag1051
aF0.0
aasbsI94
(imyfunction
mondai
p1060
(dp1061
g3
S'2017-10-05 16:02:25'
p1062
sg5
F3.828977289158433e-05
sg6
S'94.jpg'
p1063
sg8
(lp1064
sg13
(lp1065
S'chemistry'
p1066
asg16
F0.9999999999999957
sg17
F1507186945.999
sg18
I3
sg19
(lp1067
(lp1068
F1504330005.843
aS'2017-09-02 14:26:45'
p1069
aF0.0
aa(lp1070
F1507186945.999
ag1062
aF1.0
aasbsI95
(imyfunction
mondai
p1071
(dp1072
g3
S'2017-10-05 18:57:10'
p1073
sg5
F3.987030917694148e-05
sg6
S'95.png'
p1074
sg8
(lp1075
sg13
(lp1076
S'chemistry'
p1077
asg16
F0.9999999999999961
sg17
F1507197430.401
sg18
I1
sg19
(lp1078
(lp1079
F1504330578.003
aS'2017-09-02 14:36:18'
p1080
aF0.0
aa(lp1081
F1507197430.401
ag1073
aF1.0
aasbsI96
(imyfunction
mondai
p1082
(dp1083
g3
S'2017-10-06 19:55:59'
p1084
sg5
F5.6406304385260725e-05
sg6
S'96.png'
p1085
sg8
(lp1086
sg13
(lp1087
S'chemistry'
p1088
asg16
F0.9999999999948661
sg17
F1507287359.586
sg18
I4
sg19
(lp1089
(lp1090
F1504331481.399
aS'2017-09-02 14:51:21'
p1091
aF0.25
aa(lp1092
F1507287359.586
ag1084
aF0.75
aasbsI97
(imyfunction
mondai
p1093
(dp1094
g3
S'2017-10-05 19:04:08'
p1095
sg5
F6.368711924079661e-14
sg6
S'97.png'
p1096
sg8
(lp1097
sg13
(lp1098
S'chemistry'
p1099
asg16
F-3.9558086867684985e-15
sg17
F1507197848.738
sg18
I1
sg19
(lp1100
(lp1101
F1504332514.446
aS'2017-09-02 15:08:34'
p1102
aF0.0
aa(lp1103
F1507197848.738
ag1095
aF0.0
aasbsI98
(imyfunction
mondai
p1104
(dp1105
g3
S'2017-10-08 14:20:23'
p1106
sg5
F0.0009250042726434141
sg6
S'98.jpeg'
p1107
sg8
(lp1108
sg13
(lp1109
S'physical'
p1110
asg16
F1.2499999999911555
sg17
F1507440023.274
sg18
I4
sg19
(lp1111
(lp1112
F1504545992.782
aS'2017-09-05 02:26:32'
p1113
aF0.25
aa(lp1114
F1507440023.274
ag1106
aF1.0
aasbsI99
(imyfunction
mondai
p1115
(dp1116
g3
S'2017-10-06 10:48:27'
p1117
sg5
F3.5149644142279465e-08
sg6
S'99.jpeg'
p1118
sg8
(lp1119
sg13
(lp1120
S'physical'
p1121
asg16
F0.49999999999997496
sg17
F1507254507.501
sg18
I2
sg19
(lp1122
(lp1123
F1504548613.492
aS'2017-09-05 03:10:13'
p1124
aF0.0
aa(lp1125
F1507254507.501
ag1117
aF0.5
aasbsI100
(imyfunction
mondai
p1126
(dp1127
g3
S'2017-11-05 03:29:23'
p1128
sg5
F0.980998442345113
sg6
S'100.jpeg'
p1129
sg8
(lp1130
sg13
(lp1131
S'physical'
p1132
asg16
F0.4999999999999995
sg17
F1509820163.087
sg18
I2
sg19
(lp1133
(lp1134
F1504549431.259
aS'2017-09-05 03:23:51'
p1135
aF0.5
aa(lp1136
F1509820163.087
ag1128
aF0.0
aasbsI101
(imyfunction
mondai
p1137
(dp1138
g3
S'2017-10-06 11:05:21'
p1139
sg5
F5.222611386032269e-10
sg6
S'101.jpeg'
p1140
sg8
(lp1141
sg13
(lp1142
S'physical'
p1143
asg16
F0.2999999999999724
sg17
F1507255521.17
sg18
I3
sg19
(lp1144
(lp1145
F1504557916.173
aS'2017-09-05 05:45:16'
p1146
aF0.0
aa(lp1147
F1507255521.17
ag1139
aF0.3
aasbsI102
(imyfunction
mondai
p1148
(dp1149
g3
S'2017-10-06 11:09:51'
p1150
sg5
F4.9950091980499316e-05
sg6
S'102.jpeg'
p1151
sg8
(lp1152
sg13
(lp1153
S'physical'
p1154
asg16
F0.9999999999999712
sg17
F1507255791.192
sg18
I1
sg19
(lp1155
(lp1156
F1504561998.287
aS'2017-09-05 06:53:18'
p1157
aF0.0
aa(lp1158
F1507255791.192
ag1150
aF1.0
aasbsI103
(imyfunction
mondai
p1159
(dp1160
g3
S'2017-10-06 11:25:34'
p1161
sg5
F1.0545567250916761e-09
sg6
S'103.png'
p1162
sg8
(lp1163
sg13
(lp1164
S'physical'
p1165
asg16
F0.32999999999997015
sg17
F1507256734.83
sg18
I3
sg19
(lp1166
(lp1167
F1504566130.357
aS'2017-09-05 08:02:10'
p1168
aF0.0
aa(lp1169
F1507256734.83
ag1161
aF0.33
aasbsI104
(imyfunction
mondai
p1170
(dp1171
g3
S'2017-10-06 11:27:27'
p1172
sg5
F5.0154096464528044e-05
sg6
S'104.jpg'
p1173
sg8
(lp1174
sg13
(lp1175
S'physical'
p1176
asg16
F0.9999999999999651
sg17
F1507256847.652
sg18
I1
sg19
(lp1177
(lp1178
F1504579510.387
aS'2017-09-05 11:45:10'
p1179
aF0.0
aa(lp1180
F1507256847.652
ag1172
aF1.0
aasbsI105
(imyfunction
mondai
p1181
(dp1182
g3
S'2017-10-24 15:55:37'
p1183
sg5
F0.0012963631316133771
sg6
S'105.jpg'
p1184
sg8
(lp1185
sg13
(lp1186
S'physical'
p1187
asg16
F0.49999999999997274
sg17
F1508828137.393
sg18
I4
sg19
(lp1188
(lp1189
F1506129496.71
aS'2017-09-23 10:18:16'
p1190
aF0.0
aa(lp1191
F1508828137.393
ag1183
aF0.5
aasbsI106
(imyfunction
mondai
p1192
(dp1193
g3
S'2017-11-01 16:39:50'
p1194
sg5
F0.3130369334307312
sg6
S'106.jpg'
p1195
sg8
(lp1196
sg13
(lp1197
S'physical'
p1198
asg16
F1.0
sg17
F1509521990.3
sg18
I2
sg19
(lp1199
(lp1200
F1506132713.435
aS'2017-09-23 11:11:53'
p1201
aF0.0
aa(lp1202
F1509521990.3
ag1194
aF1.0
aasbsI107
(imyfunction
mondai
p1203
(dp1204
g3
S'2017-11-01 17:47:33'
p1205
sg5
F0.18926332795865067
sg6
S'107.jpg'
p1206
sg8
(lp1207
sg13
(lp1208
S'physical'
p1209
asg16
F0.66
sg17
F1509526053.592
sg18
I2
sg19
(lp1210
(lp1211
F1506134378.641
aS'2017-09-23 11:39:38'
p1212
aF0.0
aa(lp1213
F1509526053.592
ag1205
aF0.66
aasbsI108
(imyfunction
mondai
p1214
(dp1215
g3
S'2017-11-04 16:18:59'
p1216
sg5
F0.8468266907461841
sg6
S'108.jpg'
p1217
sg8
(lp1218
sg13
(lp1219
S'physical'
p1220
asg16
F1.0
sg17
F1509779939.628
sg18
I1
sg19
(lp1221
(lp1222
F1506135155.006
aS'2017-09-23 11:52:35'
p1223
aF0.0
aa(lp1224
F1509779939.628
ag1216
aF1.0
aasbsI109
(imyfunction
mondai
p1225
(dp1226
g3
S'2017-11-04 16:27:13'
p1227
sg5
F0.7095475090783766
sg6
S'109.png'
p1228
sg8
(lp1229
sg13
(lp1230
S'physical'
p1231
asg16
F0.33
sg17
F1509780433.028
sg18
I2
sg19
(lp1232
(lp1233
F1506137630.469
aS'2017-09-23 12:33:50'
p1234
aF0.0
aa(lp1235
F1509780433.028
ag1227
aF0.33
aasbsI110
(imyfunction
mondai
p1236
(dp1237
g3
S'2017-11-04 16:35:32'
p1238
sg5
F0.7547763451774193
sg6
S'110.jpg'
p1239
sg8
(lp1240
sg13
(lp1241
S'physical'
p1242
asg16
F0.5
sg17
F1509780932.642
sg18
I2
sg19
(lp1243
(lp1244
F1506138671.837
aS'2017-09-23 12:51:11'
p1245
aF0.0
aa(lp1246
F1509780932.642
ag1238
aF0.5
aasbsI111
(imyfunction
mondai
p1247
(dp1248
g3
S'2017-11-04 16:38:25'
p1249
sg5
F0.7556474904031206
sg6
S'111.jpg'
p1250
sg8
(lp1251
sg13
(lp1252
S'physical'
p1253
asg16
F0.5
sg17
F1509781105.264
sg18
I2
sg19
(lp1254
(lp1255
F1506147063.957
aS'2017-09-23 15:11:03'
p1256
aF0.0
aa(lp1257
F1509781105.264
ag1249
aF0.5
aasbsI112
(imyfunction
mondai
p1258
(dp1259
g3
S'2017-09-23 15:21:22'
p1260
sg5
F2.1568572401989666e-11
sg6
S'112.png'
p1261
sg8
(lp1262
sg13
(lp1263
S'physical'
p1264
asg16
F0.5
sg17
F1506147682.265
sg18
I4
sg19
(lp1265
(lp1266
F1506147682.265
ag1260
aF0.5
aasbsI113
(imyfunction
mondai
p1267
(dp1268
g3
S'2017-11-04 16:43:08'
p1269
sg5
F0.8515731292694546
sg6
S'113.png'
p1270
sg8
(lp1271
sg13
(lp1272
S'physical'
p1273
asg16
F1.0
sg17
F1509781388.38
sg18
I1
sg19
(lp1274
(lp1275
F1506148490.104
aS'2017-09-23 15:34:50'
p1276
aF0.0
aa(lp1277
F1509781388.38
ag1269
aF1.0
aasbsI114
(imyfunction
mondai
p1278
(dp1279
g3
S'2017-11-04 16:53:05'
p1280
sg5
F0.7601077418559243
sg6
S'114.jpg'
p1281
sg8
(lp1282
sg13
(lp1283
S'physical'
p1284
asg16
F0.5
sg17
F1509781985.98
sg18
I1
sg19
(lp1285
(lp1286
F1506155638.422
aS'2017-09-23 17:33:58'
p1287
aF0.0
aa(lp1288
F1509781985.98
ag1280
aF0.5
aasbsI115
(imyfunction
mondai
p1289
(dp1290
g3
S'2017-11-04 17:54:07'
p1291
sg5
F0.648747550410646
sg6
S'115.jpg'
p1292
sg8
(lp1293
sg13
(lp1294
S'physical'
p1295
asg16
F-5.803319474763249e-19
sg17
F1509785647.734
sg18
I2
sg19
(lp1296
(lp1297
F1506157652.404
aS'2017-09-23 18:07:32'
p1298
aF0.0
aa(lp1299
F1509785647.734
ag1291
aF0.0
aasbsI116
(imyfunction
mondai
p1300
(dp1301
g3
S'2017-11-04 17:58:31'
p1302
sg5
F0.6507287087220668
sg6
S'116.jpg'
p1303
sg8
(lp1304
sg13
(lp1305
S'physical'
p1306
asg16
F-5.893791916432976e-19
sg17
F1509785911.182
sg18
I1
sg19
(lp1307
(lp1308
F1506159252.417
aS'2017-09-23 18:34:12'
p1309
aF0.0
aa(lp1310
F1509785911.182
ag1302
aF0.0
aasbsI117
(imyfunction
mondai
p1311
(dp1312
g3
S'2017-11-04 18:01:38'
p1313
sg5
F0.8671885379088236
sg6
S'117.png'
p1314
sg8
(lp1315
sg13
(lp1316
S'physical'
p1317
asg16
F1.0
sg17
F1509786098.312
sg18
I2
sg19
(lp1318
(lp1319
F1506162234.45
aS'2017-09-23 19:23:54'
p1320
aF0.0
aa(lp1321
F1509786098.312
ag1313
aF1.0
aasbsI118
(imyfunction
mondai
p1322
(dp1323
g3
S'2017-11-04 18:15:41'
p1324
sg5
F0.8700149326209915
sg6
S'118.jpg'
p1325
sg8
(lp1326
sg13
(lp1327
S'physical'
p1328
asg16
F1.0
sg17
F1509786941.739
sg18
I1
sg19
(lp1329
(lp1330
F1506294608.09
aS'2017-09-25 08:10:08'
p1331
aF0.0
aa(lp1332
F1509786941.739
ag1324
aF1.0
aasbsI119
(imyfunction
mondai
p1333
(dp1334
g3
S'2017-11-04 18:20:02'
p1335
sg5
F0.6605267690921243
sg6
S'119.jpg'
p1336
sg8
(lp1337
sg13
(lp1338
S'physical'
p1339
asg16
F-2.8235804321054852e-18
sg17
F1509787202.415
sg18
I1
sg19
(lp1340
(lp1341
F1506295905.774
aS'2017-09-25 08:31:45'
p1342
aF0.0
aa(lp1343
F1509787202.415
ag1335
aF0.0
aasbsI120
(imyfunction
mondai
p1344
(dp1345
g3
S'2017-11-04 18:26:36'
p1346
sg5
F0.7891444622730356
sg6
S'120.jpg'
p1347
sg8
(lp1348
sg13
(lp1349
S'physical'
p1350
asg16
F0.5
sg17
F1509787596.21
sg18
I2
sg19
(lp1351
(lp1352
F1506327418.434
aS'2017-09-25 17:16:58'
p1353
aF0.0
aa(lp1354
F1509787596.21
ag1346
aF0.5
aasbsI121
(imyfunction
mondai
p1355
(dp1356
g3
S'2017-11-04 19:06:57'
p1357
sg5
F0.6824045417227752
sg6
S'121.jpg'
p1358
sg8
(lp1359
sg13
(lp1360
S'physical'
p1361
asg16
F-4.1730886871002715e-18
sg17
F1509790017.759
sg18
I2
sg19
(lp1362
(lp1363
F1506332473.34
aS'2017-09-25 18:41:13'
p1364
aF0.0
aa(lp1365
F1509790017.759
ag1357
aF0.0
aasbsI122
(imyfunction
mondai
p1366
(dp1367
g3
S'2017-11-04 19:20:56'
p1368
sg5
F0.7716909816849769
sg6
S'122.jpg'
p1369
sg8
(lp1370
sg13
(lp1371
S'physical'
p1372
asg16
F0.33
sg17
F1509790856.665
sg18
I3
sg19
(lp1373
(lp1374
F1506334077.056
aS'2017-09-25 19:07:57'
p1375
aF0.0
aa(lp1376
F1509790856.665
ag1368
aF0.33
aasbsI123
(imyfunction
mondai
p1377
(dp1378
g3
S'2017-11-04 19:59:55'
p1379
sg5
F0.8912617721428601
sg6
S'123.jpg'
p1380
sg8
(lp1381
sg13
(lp1382
S'physical'
p1383
asg16
F1.0
sg17
F1509793195.666
sg18
I2
sg19
(lp1384
(lp1385
F1506335499.155
aS'2017-09-25 19:31:39'
p1386
aF0.0
aa(lp1387
F1509793195.666
ag1379
aF1.0
aasbsI124
(imyfunction
mondai
p1388
(dp1389
g3
S'2017-11-04 20:01:50'
p1390
sg5
F0.8916553001795866
sg6
S'124.jpg'
p1391
sg8
(lp1392
sg13
(lp1393
S'physical'
p1394
asg16
F1.0
sg17
F1509793310.088
sg18
I1
sg19
(lp1395
(lp1396
F1506370557.351
aS'2017-09-26 05:15:57'
p1397
aF0.0
aa(lp1398
F1509793310.088
ag1390
aF1.0
aasbsI125
(imyfunction
mondai
p1399
(dp1400
g3
S'2017-11-04 20:08:13'
p1401
sg5
F0.8929765402785026
sg6
S'125.jpg'
p1402
sg8
(lp1403
sg13
(lp1404
S'physical'
p1405
asg16
F1.0
sg17
F1509793693.882
sg18
I1
sg19
(lp1406
(lp1407
F1506372586.124
aS'2017-09-26 05:49:46'
p1408
aF0.0
aa(lp1409
F1509793693.882
ag1401
aF1.0
aasbsI126
(imyfunction
mondai
p1410
(dp1411
g3
S'2017-11-04 20:30:04'
p1412
sg5
F0.7229457461553837
sg6
S'126.jpg'
p1413
sg8
(lp1414
sg13
(lp1415
S'physical'
p1416
asg16
F-6.367176625891049e-18
sg17
F1509795004.035
sg18
I2
sg19
(lp1417
(lp1418
F1506373963.589
aS'2017-09-26 06:12:43'
p1419
aF0.0
aa(lp1420
F1509795004.035
ag1412
aF0.0
aasbsI127
(imyfunction
mondai
p1421
(dp1422
g3
S'2017-11-04 21:00:56'
p1423
sg5
F0.9039377339078493
sg6
S'127.jpg'
p1424
sg8
(lp1425
sg13
(lp1426
S'physical'
p1427
asg16
F1.0
sg17
F1509796856.166
sg18
I1
sg19
(lp1428
(lp1429
F1506433333.109
aS'2017-09-26 22:42:13'
p1430
aF0.0
aa(lp1431
F1509796856.166
ag1423
aF1.0
aasbsI128
(imyfunction
mondai
p1432
(dp1433
g3
S'2017-11-04 21:01:24'
p1434
sg5
F0.7388503910336496
sg6
S'128.jpg'
p1435
sg8
(lp1436
sg13
(lp1437
S'physical'
p1438
asg16
F-1.2393336990361653e-17
sg17
F1509796884.209
sg18
I1
sg19
(lp1439
(lp1440
F1506433386.409
aS'2017-09-26 22:43:06'
p1441
aF0.0
aa(lp1442
F1509796884.209
ag1434
aF0.0
aasbsI129
(imyfunction
mondai
p1443
(dp1444
g3
S'2017-09-27 05:41:54'
p1445
sg5
F1.264860872455267e-11
sg6
S'129.png'
p1446
sg8
(lp1447
sg13
(lp1448
S'physical'
p1449
asg16
F0.4
sg17
F1506458514.65
sg18
I5
sg19
(lp1450
(lp1451
F1506458514.65
ag1445
aF0.4
aasbsI130
(imyfunction
mondai
p1452
(dp1453
g3
S'2017-11-04 21:01:45'
p1454
sg5
F0.739033193599226
sg6
S'130.jpg'
p1455
sg8
(lp1456
sg13
(lp1457
S'physical'
p1458
asg16
F-1.6830748740452486e-17
sg17
F1509796905.583
sg18
I2
sg19
(lp1459
(lp1460
F1506459850.374
aS'2017-09-27 06:04:10'
p1461
aF0.0
aa(lp1462
F1509796905.583
ag1454
aF0.0
aasbsI131
(imyfunction
mondai
p1463
(dp1464
g3
S'2017-11-04 21:05:36'
p1465
sg5
F0.7963186376511538
sg6
S'131.jpg'
p1466
sg8
(lp1467
sg13
(lp1468
S'physical'
p1469
asg16
F0.24999999999999997
sg17
F1509797136.172
sg18
I2
sg19
(lp1470
(lp1471
F1506462691.94
aS'2017-09-27 06:51:31'
p1472
aF0.0
aa(lp1473
F1509797136.172
ag1465
aF0.25
aasbsI132
(imyfunction
mondai
p1474
(dp1475
g3
S'2017-11-04 21:07:20'
p1476
sg5
F0.7419009315326924
sg6
S'132.jpg'
p1477
sg8
(lp1478
sg13
(lp1479
S'physical'
p1480
asg16
F-2.789510265903354e-17
sg17
F1509797240.2
sg18
I3
sg19
(lp1481
(lp1482
F1506503838.042
aS'2017-09-27 18:17:18'
p1483
aF0.0
aa(lp1484
F1509797240.2
ag1476
aF0.0
aasbsI133
(imyfunction
mondai
p1485
(dp1486
g3
S'2017-11-04 21:07:37'
p1487
sg5
F0.7420494467967208
sg6
S'133.jpg'
p1488
sg8
(lp1489
sg13
(lp1490
S'physical'
p1491
asg16
F-2.852001689060002e-17
sg17
F1509797257.494
sg18
I3
sg19
(lp1492
(lp1493
F1506505769.532
aS'2017-09-27 18:49:29'
p1494
aF0.0
aa(lp1495
F1509797257.494
ag1487
aF0.0
aasbsI134
(imyfunction
mondai
p1496
(dp1497
g3
S'2017-11-04 21:17:56'
p1498
sg5
F0.7473854105386245
sg6
S'134.jpg'
p1499
sg8
(lp1500
sg13
(lp1501
S'physical'
p1502
asg16
F-2.914613422368457e-17
sg17
F1509797876.56
sg18
I2
sg19
(lp1503
(lp1504
F1506508264.869
aS'2017-09-27 19:31:04'
p1505
aF0.0
aa(lp1506
F1509797876.56
ag1498
aF0.0
aasbsI135
(imyfunction
mondai
p1507
(dp1508
g3
S'2017-11-04 21:20:20'
p1509
sg5
F0.7486327066982064
sg6
S'135.jpg'
p1510
sg8
(lp1511
sg13
(lp1512
S'physical'
p1513
asg16
F-2.9519835128344627e-17
sg17
F1509798020.631
sg18
I3
sg19
(lp1514
(lp1515
F1506509509.686
aS'2017-09-27 19:51:49'
p1516
aF0.0
aa(lp1517
F1509798020.631
ag1509
aF0.0
aasbsI136
(imyfunction
mondai
p1518
(dp1519
g3
S'2017-11-04 21:22:44'
p1520
sg5
F0.9085109756197927
sg6
S'136.jpg'
p1521
sg8
(lp1522
sg13
(lp1523
S'physical'
p1524
asg16
F1.0
sg17
F1509798164.216
sg18
I2
sg19
(lp1525
(lp1526
F1506516601.052
aS'2017-09-27 21:50:01'
p1527
aF0.0
aa(lp1528
F1509798164.216
ag1520
aF1.0
aasbsI137
(imyfunction
mondai
p1529
(dp1530
g3
S'2017-11-04 22:05:39'
p1531
sg5
F0.7725672618058972
sg6
S'137.jpg'
p1532
sg8
(lp1533
sg13
(lp1534
S'physical'
p1535
asg16
F-3.152669138802942e-17
sg17
F1509800739.69
sg18
I1
sg19
(lp1536
(lp1537
F1506517911.457
aS'2017-09-27 22:11:51'
p1538
aF0.0
aa(lp1539
F1509800739.69
ag1531
aF0.0
aasbsI138
(imyfunction
mondai
p1540
(dp1541
g3
S'2017-11-05 03:29:03'
p1542
sg5
F0.9889073679602253
sg6
S'138.jpeg'
p1543
sg8
(lp1544
sg13
(lp1545
S'math'
p1546
asg16
F0.999802595053132
sg17
F1509820143.369
sg18
I1
sg19
(lp1547
(lp1548
F1506740752.301
aS'2017-09-30 12:05:52'
p1549
aF0.0
aa(lp1550
F1507477766.193
aS'2017-10-09 00:49:26'
p1551
aF0.0
aa(lp1552
F1509820143.369
ag1542
aF1.0
aasbsI139
(imyfunction
mondai
p1553
(dp1554
g3
S'2017-10-09 01:04:20'
p1555
sg5
F1.6342617418782035e-12
sg6
S'139.jpeg'
p1556
sg8
(lp1557
sg13
(lp1558
S'math'
p1559
asg16
F-0.00019718972442386826
sg17
F1507478660.639
sg18
I1
sg19
(lp1560
(lp1561
F1506741552.498
aS'2017-09-30 12:19:12'
p1562
aF0.0
aa(lp1563
F1507478660.639
ag1555
aF0.0
aasbsI140
(imyfunction
mondai
p1564
(dp1565
g3
S'2017-10-09 01:16:16'
p1566
sg5
F1.6470408130679397e-12
sg6
S'140.jpeg'
p1567
sg8
(lp1568
sg13
(lp1569
S'math'
p1570
asg16
F-0.00021380765123203148
sg17
F1507479376.256
sg18
I2
sg19
(lp1571
(lp1572
F1506749258.778
aS'2017-09-30 14:27:38'
p1573
aF0.0
aa(lp1574
F1507479376.256
ag1566
aF0.0
aasbsI141
(imyfunction
mondai
p1575
(dp1576
g3
S'2017-10-09 01:21:37'
p1577
sg5
F1.6530687570373883e-12
sg6
S'141.jpeg'
p1578
sg8
(lp1579
sg13
(lp1580
S'math'
p1581
asg16
F-0.0002161375707510039
sg17
F1507479697.815
sg18
I1
sg19
(lp1582
(lp1583
F1506750516.768
aS'2017-09-30 14:48:36'
p1584
aF0.0
aa(lp1585
F1507479697.815
ag1577
aF0.0
aasbsI142
(imyfunction
mondai
p1586
(dp1587
g3
S'2017-10-09 01:32:21'
p1588
sg5
F6.357552407416246e-09
sg6
S'142.jpeg'
p1589
sg8
(lp1590
sg13
(lp1591
S'math'
p1592
asg16
F0.32978268322060134
sg17
F1507480341.279
sg18
I3
sg19
(lp1593
(lp1594
F1506751630.334
aS'2017-09-30 15:07:10'
p1595
aF0.0
aa(lp1596
F1507480341.279
ag1588
aF0.33
aasbsI143
(imyfunction
mondai
p1597
(dp1598
g3
S'2017-10-09 01:46:19'
p1599
sg5
F1.681486086136091e-12
sg6
S'143.jpeg'
p1600
sg8
(lp1601
sg13
(lp1602
S'math'
p1603
asg16
F-0.00021973610544521443
sg17
F1507481179.374
sg18
I1
sg19
(lp1604
(lp1605
F1506753424.981
aS'2017-09-30 15:37:04'
p1606
aF0.0
aa(lp1607
F1507481179.374
ag1599
aF0.0
aasbsI144
(imyfunction
mondai
p1608
(dp1609
g3
S'2017-10-09 15:58:12'
p1610
sg5
F0.0001449736285943691
sg6
S'144.jpeg'
p1611
sg8
(lp1612
sg13
(lp1613
S'math'
p1614
asg16
F0.9998743516878296
sg17
F1507532292.155
sg18
I1
sg19
(lp1615
(lp1616
F1506756245.305
aS'2017-09-30 16:24:05'
p1617
aF0.0
aa(lp1618
F1507532292.155
ag1610
aF1.0
aasbsI145
(imyfunction
mondai
p1619
(dp1620
g3
S'2017-10-09 16:09:15'
p1621
sg5
F2.2546340062779057e-07
sg6
S'145.jpeg'
p1622
sg8
(lp1623
sg13
(lp1624
S'math'
p1625
asg16
F0.49987322288184377
sg17
F1507532955.989
sg18
I2
sg19
(lp1626
(lp1627
F1506757681.878
aS'2017-09-30 16:48:01'
p1628
aF0.0
aa(lp1629
F1507532955.989
ag1621
aF0.5
aasbsI146
(imyfunction
mondai
p1630
(dp1631
g3
S'2017-10-08 16:44:11'
p1632
sg5
F2.026587687553818e-11
sg6
S'146.png'
p1633
sg8
(lp1634
sg13
(lp1635
S'math'
p1636
asg16
F0.1
sg17
F1507448651.688
sg18
I8
sg19
(lp1637
(lp1638
F1507448651.688
ag1632
aF0.1
aasbsI147
(imyfunction
mondai
p1639
(dp1640
g3
S'2017-10-08 17:45:40'
p1641
sg5
F1.6946045372118382e-06
sg6
S'147.png'
p1642
sg8
(lp1643
sg13
(lp1644
S'math'
p1645
asg16
F0.66
sg17
F1507452340.628
sg18
I9
sg19
(lp1646
(lp1647
F1507452340.628
ag1641
aF0.66
aasbsI148
(imyfunction
mondai
p1648
(dp1649
g3
S'2017-10-08 22:23:05'
p1650
sg5
F2.371608298172911e-08
sg6
S'148.png'
p1651
sg8
(lp1652
sg13
(lp1653
S'math'
p1654
asg16
F0.4
sg17
F1507468985.909
sg18
I9
sg19
(lp1655
(lp1656
F1507468985.909
ag1650
aF0.4
aasbsI149
(imyfunction
mondai
p1657
(dp1658
g3
S'2017-10-08 22:56:43'
p1659
sg5
F1.2323526925916039e-05
sg6
S'149.png'
p1660
sg8
(lp1661
sg13
(lp1662
S'math'
p1663
asg16
F0.8
sg17
F1507471003.735
sg18
I10
sg19
(lp1664
(lp1665
F1507471003.735
ag1659
aF0.8
aasbsI150
(imyfunction
mondai
p1666
(dp1667
g3
S'2017-10-09 00:34:09'
p1668
sg5
F1.2817044123658854e-10
sg6
S'150.jpg'
p1669
sg8
(lp1670
sg13
(lp1671
S'math'
p1672
asg16
F0.16
sg17
F1507476849.026
sg18
I6
sg19
(lp1673
(lp1674
F1507476849.026
ag1668
aF0.16
aasbsI151
(imyfunction
mondai
p1675
(dp1676
g3
S'2017-10-09 17:25:35'
p1677
sg5
F1.8658035013902398e-09
sg6
S'151.jpg'
p1678
sg8
(lp1679
sg13
(lp1680
S'math'
p1681
asg16
F0.25
sg17
F1507537535.679
sg18
I2
sg19
(lp1682
(lp1683
F1507537535.679
ag1677
aF0.25
aasbsI152
(imyfunction
mondai
p1684
(dp1685
g3
S'2017-10-09 17:45:24'
p1686
sg5
F3.294498408948049e-12
sg6
S'152.jpg'
p1687
sg8
(lp1688
sg13
(lp1689
S'math'
p1690
asg16
F0.0
sg17
F1507538724.533
sg18
I2
sg19
(lp1691
(lp1692
F1507538724.533
ag1686
aF0.0
aasbsI153
(imyfunction
mondai
p1693
(dp1694
g3
S'2017-10-09 18:00:02'
p1695
sg5
F3.325806432348887e-12
sg6
S'153.jpeg'
p1696
sg8
(lp1697
sg13
(lp1698
S'chemistry'
p1699
asg16
F0.0
sg17
F1507539602.653
sg18
I3
sg19
(lp1700
(lp1701
F1507539602.653
ag1695
aF0.0
aasbsI154
(imyfunction
mondai
p1702
(dp1703
g3
S'2017-10-09 18:05:17'
p1704
sg5
F2.3660742316227436e-07
sg6
S'154.jpeg'
p1705
sg8
(lp1706
sg13
(lp1707
S'chemistry'
p1708
asg16
F0.5
sg17
F1507539917.682
sg18
I1
sg19
(lp1709
(lp1710
F1507539917.682
ag1704
aF0.5
aasbsI155
(imyfunction
mondai
p1711
(dp1712
g3
S'2017-10-09 18:14:04'
p1713
sg5
F3.358361670965911e-12
sg6
S'155.jpeg'
p1714
sg8
(lp1715
sg13
(lp1716
S'chemistry'
p1717
asg16
F0.0
sg17
F1507540444.282
sg18
I1
sg19
(lp1718
(lp1719
F1507540444.282
ag1713
aF0.0
aasbsI156
(imyfunction
mondai
p1720
(dp1721
g3
S'2017-10-09 18:17:43'
p1722
sg5
F3.3668831899195426e-12
sg6
S'156.jpeg'
p1723
sg8
(lp1724
sg13
(lp1725
S'chemistry'
p1726
asg16
F0.0
sg17
F1507540663.236
sg18
I1
sg19
(lp1727
(lp1728
F1507540663.236
ag1722
aF0.0
aasbsI157
(imyfunction
mondai
p1729
(dp1730
g3
S'2017-10-09 18:41:03'
p1731
sg5
F3.4219112531503426e-12
sg6
S'157.jpeg'
p1732
sg8
(lp1733
sg13
(lp1734
S'chemistry'
p1735
asg16
F0.0
sg17
F1507542063.935
sg18
I3
sg19
(lp1736
(lp1737
F1507542063.935
ag1731
aF0.0
aasbsI158
(imyfunction
mondai
p1738
(dp1739
g3
S'2017-10-09 18:47:08'
p1740
sg5
F2.8068562840564425e-06
sg6
S'158.jpeg'
p1741
sg8
(lp1742
sg13
(lp1743
S'chemistry'
p1744
asg16
F0.66
sg17
F1507542428.917
sg18
I2
sg19
(lp1745
(lp1746
F1507542428.917
ag1740
aF0.66
aasbsI159
(imyfunction
mondai
p1747
(dp1748
g3
S'2017-10-09 18:55:53'
p1749
sg5
F3.4573192315213954e-12
sg6
S'159.jpeg'
p1750
sg8
(lp1751
sg13
(lp1752
S'chemistry'
p1753
asg16
F0.0
sg17
F1507542953.359
sg18
I1
sg19
(lp1754
(lp1755
F1507542953.359
ag1749
aF0.0
aasbsI160
(imyfunction
mondai
p1756
(dp1757
g3
S'2017-10-09 19:10:15'
p1758
sg5
F3.4919950568496484e-12
sg6
S'160.jpeg'
p1759
sg8
(lp1760
sg13
(lp1761
S'chemistry'
p1762
asg16
F0.0
sg17
F1507543815.607
sg18
I3
sg19
(lp1763
(lp1764
F1507543815.607
ag1758
aF0.0
aasbsI161
(imyfunction
mondai
p1765
(dp1766
g3
S'2017-10-09 19:18:28'
p1767
sg5
F1.7523143092429295e-05
sg6
S'161.jpeg'
p1768
sg8
(lp1769
sg13
(lp1770
S'chemistry'
p1771
asg16
F0.8
sg17
F1507544308.072
sg18
I1
sg19
(lp1772
(lp1773
F1507544308.072
ag1767
aF0.8
aasbsI162
(imyfunction
mondai
p1774
(dp1775
g3
S'2017-10-09 19:28:23'
p1776
sg5
F3.5362369489057436e-12
sg6
S'162.jpeg'
p1777
sg8
(lp1778
sg13
(lp1779
S'chemistry'
p1780
asg16
F0.0
sg17
F1507544903.377
sg18
I2
sg19
(lp1781
(lp1782
F1507544903.377
ag1776
aF0.0
aasbsI163
(imyfunction
mondai
p1783
(dp1784
g3
S'2017-10-09 20:53:01'
p1785
sg5
F3.7503098149581375e-12
sg6
S'163.jpeg'
p1786
sg8
(lp1787
sg13
(lp1788
S'chemistry'
p1789
asg16
F0.0
sg17
F1507549981.563
sg18
I2
sg19
(lp1790
(lp1791
F1507549981.563
ag1785
aF0.0
aasbsI164
(imyfunction
mondai
p1792
(dp1793
g3
S'2017-10-09 21:02:21'
p1794
sg5
F3.774693833306491e-12
sg6
S'164.jpeg'
p1795
sg8
(lp1796
sg13
(lp1797
S'chemistry'
p1798
asg16
F0.0
sg17
F1507550541.506
sg18
I2
sg19
(lp1799
(lp1800
F1507550541.506
ag1794
aF0.0
aasbsI165
(imyfunction
mondai
p1801
(dp1802
g3
S'2017-10-09 21:08:22'
p1803
sg5
F3.79048923839076e-12
sg6
S'165.jpeg'
p1804
sg8
(lp1805
sg13
(lp1806
S'chemistry'
p1807
asg16
F0.0
sg17
F1507550902.297
sg18
I3
sg19
(lp1808
(lp1809
F1507550902.297
ag1803
aF0.0
aasbsI166
(imyfunction
mondai
p1810
(dp1811
g3
S'2017-10-11 07:58:16'
p1812
sg5
F1.619201973253911e-11
sg6
S'166.jpg'
p1813
sg8
(lp1814
(lp1815
g1812
aS'answer is 3'
p1816
aasg13
(lp1817
S'physical'
p1818
asg16
F0.0
sg17
F1507676296.193
sg18
I1
sg19
(lp1819
(lp1820
F1507676296.193
ag1812
aF0.0
aasbsI167
(imyfunction
mondai
p1821
(dp1822
g3
S'2017-10-11 08:23:17'
p1823
sg5
F1.647589239536761e-11
sg6
S'167.jpg'
p1824
sg8
(lp1825
(lp1826
g1823
aS'answer is 1'
p1827
aasg13
(lp1828
S'physical'
p1829
asg16
F0.0
sg17
F1507677797.802
sg18
I1
sg19
(lp1830
(lp1831
F1507677797.802
ag1823
aF0.0
aasbsI168
(imyfunction
mondai
p1832
(dp1833
g3
S'2017-10-11 15:27:59'
p1834
sg5
F2.212746659435601e-11
sg6
S'168.jpg'
p1835
sg8
(lp1836
(lp1837
g1834
aS'answer is 4'
p1838
aasg13
(lp1839
S'physical'
p1840
asg16
F0.0
sg17
F1507703279.013
sg18
I1
sg19
(lp1841
(lp1842
F1507703279.013
ag1834
aF0.0
aasbsI169
(imyfunction
mondai
p1843
(dp1844
g3
S'2017-10-11 16:49:30'
p1845
sg5
F2.3416451073783866e-11
sg6
S'169.jpg'
p1846
sg8
(lp1847
(lp1848
g1845
aS'ans'
p1849
aasg13
(lp1850
S'physical'
p1851
asg16
F0.0
sg17
F1507708170.907
sg18
I1
sg19
(lp1852
(lp1853
F1507708170.907
ag1845
aF0.0
aasbsI170
(imyfunction
mondai
p1854
(dp1855
g3
S'2017-10-11 18:48:58'
p1856
sg5
F2.5441959842451764e-11
sg6
S'170.jpg'
p1857
sg8
(lp1858
(lp1859
g1856
aS'answer is 1'
p1860
aasg13
(lp1861
S'physical'
p1862
asg16
F0.0
sg17
F1507715338.734
sg18
I1
sg19
(lp1863
(lp1864
F1507715338.734
ag1856
aF0.0
aasbsI171
(imyfunction
mondai
p1865
(dp1866
g3
S'2017-10-11 19:41:13'
p1867
sg5
F2.6382035457527018e-11
sg6
S'171.jpg'
p1868
sg8
(lp1869
(lp1870
g1867
aS'answer is 3'
p1871
aasg13
(lp1872
S'physical'
p1873
asg16
F0.0
sg17
F1507718473.631
sg18
I1
sg19
(lp1874
(lp1875
F1507718473.631
ag1867
aF0.0
aasbsI172
(imyfunction
mondai
p1876
(dp1877
g3
S'2017-10-11 19:47:11'
p1878
sg5
F2.6472780174066284e-11
sg6
S'172.jpg'
p1879
sg8
(lp1880
(lp1881
g1878
aS'answer is 4'
p1882
aasg13
(lp1883
S'chemistry'
p1884
asg16
F0.0
sg17
F1507718831.233
sg18
I1
sg19
(lp1885
(lp1886
F1507718831.233
ag1878
aF0.0
aasbsI173
(imyfunction
mondai
p1887
(dp1888
g3
S'2017-10-11 19:52:49'
p1889
sg5
F2.657657564987925e-11
sg6
S'173.jpg'
p1890
sg8
(lp1891
(lp1892
g1889
aS'answer is 4'
p1893
aasg13
(lp1894
S'chemistry'
p1895
asg16
F0.0
sg17
F1507719169.331
sg18
I1
sg19
(lp1896
(lp1897
F1507719169.331
ag1889
aF0.0
aasbsI174
(imyfunction
mondai
p1898
(dp1899
g3
S'2017-10-11 20:29:32'
p1900
sg5
F2.72629036559185e-11
sg6
S'174.jpg'
p1901
sg8
(lp1902
(lp1903
g1900
aS'answer is 1'
p1904
aasg13
(lp1905
S'chemistry'
p1906
asg16
F0.0
sg17
F1507721372.248
sg18
I1
sg19
(lp1907
(lp1908
F1507721372.248
ag1900
aF0.0
aasbsI175
(imyfunction
mondai
p1909
(dp1910
g3
S'2017-10-11 20:40:42'
p1911
sg5
F2.747508261312375e-11
sg6
S'175.jpg'
p1912
sg8
(lp1913
(lp1914
g1911
aS'answer is 6'
p1915
aasg13
(lp1916
S'chemistry'
p1917
asg16
F0.0
sg17
F1507722042.07
sg18
I1
sg19
(lp1918
(lp1919
F1507722042.07
ag1911
aF0.0
aasbsI176
(imyfunction
mondai
p1920
(dp1921
g3
S'2017-10-11 20:54:35'
p1922
sg5
F2.77413997398858e-11
sg6
S'176.jpg'
p1923
sg8
(lp1924
(lp1925
g1922
aS'answer is 2'
p1926
aasg13
(lp1927
S'chemistry'
p1928
asg16
F0.0
sg17
F1507722875.516
sg18
I1
sg19
(lp1929
(lp1930
F1507722875.516
ag1922
aF0.0
aasbsI177
(imyfunction
mondai
p1931
(dp1932
g3
S'2017-10-11 21:05:20'
p1933
sg5
F2.7949423657096783e-11
sg6
S'177.jpg'
p1934
sg8
(lp1935
(lp1936
g1933
aS'answer is 8'
p1937
aasg13
(lp1938
S'chemistry'
p1939
asg16
F0.0
sg17
F1507723520.985
sg18
I1
sg19
(lp1940
(lp1941
F1507723520.985
ag1933
aF0.0
aasbsI178
(imyfunction
mondai
p1942
(dp1943
g3
S'2017-10-12 20:33:01'
p1944
sg5
F7.434033175301925e-11
sg6
S'178.jpg'
p1945
sg8
(lp1946
(lp1947
g1944
aS'answer is 3'
p1948
aasg13
(lp1949
S'physical'
p1950
asg16
F0.0
sg17
F1507807981.467
sg18
I1
sg19
(lp1951
(lp1952
F1507807981.467
ag1944
aF0.0
aasbsI179
(imyfunction
mondai
p1953
(dp1954
g3
S'2017-10-12 21:04:22'
p1955
sg5
F7.597653142504398e-11
sg6
S'179.jpg'
p1956
sg8
(lp1957
(lp1958
g1955
aS'answer is 4'
p1959
aasg13
(lp1960
S'physical'
p1961
asg16
F0.0
sg17
F1507809862.47
sg18
I1
sg19
(lp1962
(lp1963
F1507809862.47
ag1955
aF0.0
aasbsI180
(imyfunction
mondai
p1964
(dp1965
g3
S'2017-10-12 21:21:23'
p1966
sg5
F7.687972624853264e-11
sg6
S'180.jpg'
p1967
sg8
(lp1968
(lp1969
g1966
aS'answer is 2'
p1970
aasg13
(lp1971
S'physical'
p1972
asg16
F0.0
sg17
F1507810883.52
sg18
I1
sg19
(lp1973
(lp1974
F1507810883.52
ag1966
aF0.0
aasbsI181
(imyfunction
mondai
p1975
(dp1976
g3
S'2017-10-13 00:54:07'
p1977
sg5
F8.911889132355203e-11
sg6
S'181.jpg'
p1978
sg8
(lp1979
(lp1980
g1977
aS'answer is 2'
p1981
aasg13
(lp1982
S'physical'
p1983
asg16
F0.0
sg17
F1507823647.317
sg18
I1
sg19
(lp1984
(lp1985
F1507823647.317
ag1977
aF0.0
aasbsI182
(imyfunction
mondai
p1986
(dp1987
g3
S'2017-10-13 01:54:17'
p1988
sg5
F9.292155811536455e-11
sg6
S'182.jpg'
p1989
sg8
(lp1990
(lp1991
g1988
aS'answer is 3'
p1992
aasg13
(lp1993
S'physical'
p1994
asg16
F0.0
sg17
F1507827257.484
sg18
I1
sg19
(lp1995
(lp1996
F1507827257.484
ag1988
aF0.0
aasbsI183
(imyfunction
mondai
p1997
(dp1998
g3
S'2017-10-13 12:50:55'
p1999
sg5
F1.4660669965019037e-10
sg6
S'183.jpg'
p2000
sg8
(lp2001
(lp2002
g1999
aS'answer is 7'
p2003
aasg13
(lp2004
S'physical'
p2005
asg16
F0.0
sg17
F1507866655.695
sg18
I1
sg19
(lp2006
(lp2007
F1507866655.695
ag1999
aF0.0
aasbsI184
(imyfunction
mondai
p2008
(dp2009
g3
S'2017-10-13 13:01:36'
p2010
sg5
F1.4769855863355487e-10
sg6
S'184.jpg'
p2011
sg8
(lp2012
(lp2013
g2010
aS'answer is 6'
p2014
aasg13
(lp2015
S'physical'
p2016
asg16
F0.0
sg17
F1507867296.778
sg18
I1
sg19
(lp2017
(lp2018
F1507867296.778
ag2010
aF0.0
aasbsI185
(imyfunction
mondai
p2019
(dp2020
g3
S'2017-10-13 13:37:17'
p2021
sg5
F1.51296711676735e-10
sg6
S'185.jpg'
p2022
sg8
(lp2023
(lp2024
g2021
aS'answer is 4'
p2025
aasg13
(lp2026
S'chemistry'
p2027
asg16
F0.0
sg17
F1507869437.306
sg18
I1
sg19
(lp2028
(lp2029
F1507869437.306
ag2021
aF0.0
aasbsI186
(imyfunction
mondai
p2030
(dp2031
g3
S'2017-10-13 17:29:58'
p2032
sg5
F1.7795577058227839e-10
sg6
S'186.jpg'
p2033
sg8
(lp2034
(lp2035
g2032
aS'answer is 4'
p2036
aasg13
(lp2037
S'physical'
p2038
asg16
F0.0
sg17
F1507883398.421
sg18
I1
sg19
(lp2039
(lp2040
F1507883398.421
ag2032
aF0.0
aasbsI187
(imyfunction
mondai
p2041
(dp2042
g3
S'2017-10-13 17:44:23'
p2043
sg5
F1.7974677099940748e-10
sg6
S'187.jpg'
p2044
sg8
(lp2045
(lp2046
g2043
aS'answer is 3'
p2047
aasg13
(lp2048
S'physical'
p2049
asg16
F0.0
sg17
F1507884263.63
sg18
I1
sg19
(lp2050
(lp2051
F1507884263.63
ag2043
aF0.0
aasbsI188
(imyfunction
mondai
p2052
(dp2053
g3
S'2017-10-13 17:51:16'
p2054
sg5
F1.8060762640437838e-10
sg6
S'188.jpg'
p2055
sg8
(lp2056
(lp2057
g2054
aS'answer is 1'
p2058
aasg13
(lp2059
S'physical'
p2060
asg16
F0.0
sg17
F1507884676.435
sg18
I1
sg19
(lp2061
(lp2062
F1507884676.435
ag2054
aF0.0
aasbsI189
(imyfunction
mondai
p2063
(dp2064
g3
S'2017-10-13 17:56:35'
p2065
sg5
F1.8127593536877956e-10
sg6
S'189.jpg'
p2066
sg8
(lp2067
(lp2068
g2065
aS'answer is 1'
p2069
aasg13
(lp2070
S'physical'
p2071
asg16
F0.0
sg17
F1507884995.554
sg18
I1
sg19
(lp2072
(lp2073
F1507884995.554
ag2065
aF0.0
aasbsI190
(imyfunction
mondai
p2074
(dp2075
g3
S'2017-10-14 14:04:14'
p2076
sg5
F4.190390014765158e-10
sg6
S'190.jpg'
p2077
sg8
(lp2078
(lp2079
g2076
aS'answer is 1'
p2080
aasg13
(lp2081
S'chemistry'
p2082
asg16
F0.0
sg17
F1507957454.81
sg18
I1
sg19
(lp2083
(lp2084
F1507957454.81
ag2076
aF0.0
aasbsI191
(imyfunction
mondai
p2085
(dp2086
g3
S'2017-10-14 14:23:02'
p2087
sg5
F4.2454658513935133e-10
sg6
S'191.jpg'
p2088
sg8
(lp2089
(lp2090
g2087
aS'answer is 6'
p2091
aasg13
(lp2092
S'chemistry'
p2093
asg16
F0.0
sg17
F1507958582.999
sg18
I1
sg19
(lp2094
(lp2095
F1507958582.999
ag2087
aF0.0
aasbsI192
(imyfunction
mondai
p2096
(dp2097
g3
S'2017-10-14 14:27:29'
p2098
sg5
F4.258581217426009e-10
sg6
S'192.jpg'
p2099
sg8
(lp2100
(lp2101
g2098
aS'answer is 2'
p2102
aasg13
(lp2103
S'chemistry'
p2104
asg16
F0.0
sg17
F1507958849.5
sg18
I1
sg19
(lp2105
(lp2106
F1507958849.5
ag2098
aF0.0
aasbsI193
(imyfunction
mondai
p2107
(dp2108
g3
S'2017-10-15 00:07:09'
p2109
sg5
F6.373758315272561e-10
sg6
S'193.jpg'
p2110
sg8
(lp2111
(lp2112
g2109
aS'answer is 3'
p2113
aasg13
(lp2114
S'physical'
p2115
asg16
F0.0
sg17
F1507993629.653
sg18
I1
sg19
(lp2116
(lp2117
F1507993629.653
ag2109
aF0.0
aasbsI194
(imyfunction
mondai
p2118
(dp2119
g3
S'2017-10-15 00:18:36'
p2120
sg5
F6.424641685915976e-10
sg6
S'194.jpg'
p2121
sg8
(lp2122
(lp2123
g2120
aS'answer is 1'
p2124
aasg13
(lp2125
S'physical'
p2126
asg16
F0.0
sg17
F1507994316.668
sg18
I1
sg19
(lp2127
(lp2128
F1507994316.668
ag2120
aF0.0
aasbsI195
(imyfunction
mondai
p2129
(dp2130
g3
S'2017-10-15 00:26:03'
p2131
sg5
F6.457982483971471e-10
sg6
S'195.jpg'
p2132
sg8
(lp2133
(lp2134
g2131
aS'answer is 4'
p2135
aasg13
(lp2136
S'physical'
p2137
asg16
F0.0
sg17
F1507994763.883
sg18
I1
sg19
(lp2138
(lp2139
F1507994763.883
ag2131
aF0.0
aasbsI196
(imyfunction
mondai
p2140
(dp2141
g3
S'2017-10-15 00:30:39'
p2142
sg5
F6.478601494805084e-10
sg6
S'196.jpg'
p2143
sg8
(lp2144
(lp2145
g2142
aS'answer is 1'
p2146
aasg13
(lp2147
S'physical'
p2148
asg16
F0.0
sg17
F1507995039.301
sg18
I1
sg19
(lp2149
(lp2150
F1507995039.301
ag2142
aF0.0
aasbsI197
(imyfunction
mondai
p2151
(dp2152
g3
S'2017-10-15 01:51:08'
p2153
sg5
F6.850992036693199e-10
sg6
S'197.jpg'
p2154
sg8
(lp2155
(lp2156
g2153
aS'answer is 2'
p2157
aasg13
(lp2158
S'physical'
p2159
asg16
F0.0
sg17
F1507999868.093
sg18
I1
sg19
(lp2160
(lp2161
F1507999868.093
ag2153
aF0.0
aasbsI198
(imyfunction
mondai
p2162
(dp2163
g3
S'2017-10-15 01:58:06'
p2164
sg5
F6.884274318327164e-10
sg6
S'198.jpg'
p2165
sg8
(lp2166
(lp2167
g2164
aS'answer is 6'
p2168
aasg13
(lp2169
S'physical'
p2170
asg16
F0.0
sg17
F1508000286.81
sg18
I1
sg19
(lp2171
(lp2172
F1508000286.81
ag2164
aF0.0
aasbsI199
(imyfunction
mondai
p2173
(dp2174
g3
S'2017-10-15 02:02:51'
p2175
sg5
F6.902097821754335e-10
sg6
S'199.jpg'
p2176
sg8
(lp2177
(lp2178
g2175
aS'answer is 4'
p2179
aasg13
(lp2180
S'chemistry'
p2181
asg16
F0.0
sg17
F1508000571.139
sg18
I1
sg19
(lp2182
(lp2183
F1508000571.139
ag2175
aF0.0
aasbsI200
(imyfunction
mondai
p2184
(dp2185
g3
S'2017-10-15 02:21:46'
p2186
sg5
F6.993432842657141e-10
sg6
S'200.jpg'
p2187
sg8
(lp2188
(lp2189
g2186
aS'answer is 2'
p2190
aasg13
(lp2191
S'chemistry'
p2192
asg16
F0.0
sg17
F1508001706.966
sg18
I1
sg19
(lp2193
(lp2194
F1508001706.966
ag2186
aF0.0
aasbsI201
(imyfunction
mondai
p2195
(dp2196
g3
S'2017-10-15 02:32:25'
p2197
sg5
F7.045317243211557e-10
sg6
S'201.jpg'
p2198
sg8
(lp2199
(lp2200
g2197
aS'answer is 5'
p2201
aasg13
(lp2202
S'chemistry'
p2203
asg16
F0.0
sg17
F1508002345.603
sg18
I1
sg19
(lp2204
(lp2205
F1508002345.603
ag2197
aF0.0
aasbsI202
(imyfunction
mondai
p2206
(dp2207
g3
S'2017-10-15 14:33:39'
p2208
sg5
F1.1633929966849554e-09
sg6
S'202.jpg'
p2209
sg8
(lp2210
(lp2211
g2208
aS'answer is 3'
p2212
aasg13
(lp2213
S'physical'
p2214
asg16
F0.0
sg17
F1508045619.689
sg18
I1
sg19
(lp2215
(lp2216
F1508045619.689
ag2208
aF0.0
aasbsI203
(imyfunction
mondai
p2217
(dp2218
g3
S'2017-10-15 15:06:25'
p2219
sg5
F1.190160999391523e-09
sg6
S'203.jpg'
p2220
sg8
(lp2221
(lp2222
g2219
aS'answer is 4'
p2223
aasg13
(lp2224
S'physical'
p2225
asg16
F0.0
sg17
F1508047585.104
sg18
I1
sg19
(lp2226
(lp2227
F1508047585.104
ag2219
aF0.0
aasbsI204
(imyfunction
mondai
p2228
(dp2229
g3
S'2017-10-15 15:34:46'
p2230
sg5
F1.2138282321138564e-09
sg6
S'204.jpg'
p2231
sg8
(lp2232
(lp2233
g2230
aS'answer is 2'
p2234
aasg13
(lp2235
S'physical'
p2236
asg16
F0.0
sg17
F1508049286.372
sg18
I1
sg19
(lp2237
(lp2238
F1508049286.372
ag2230
aF0.0
aasbsI205
(imyfunction
mondai
p2239
(dp2240
g3
S'2017-10-15 15:38:16'
p2241
sg5
F1.2167807876504284e-09
sg6
S'205.jpg'
p2242
sg8
(lp2243
(lp2244
g2241
aS'answer is 6'
p2245
aasg13
(lp2246
S'physical'
p2247
asg16
F0.0
sg17
F1508049496.279
sg18
I1
sg19
(lp2248
(lp2249
F1508049496.279
ag2241
aF0.0
aasbsI206
(imyfunction
mondai
p2250
(dp2251
g3
S'2017-10-15 16:36:48'
p2252
sg5
F1.266375013414856e-09
sg6
S'206.jpg'
p2253
sg8
(lp2254
(lp2255
g2252
aS'answer is 2'
p2256
aasg13
(lp2257
S'chemistry'
p2258
asg16
F0.0
sg17
F1508053008.871
sg18
I1
sg19
(lp2259
(lp2260
F1508053008.871
ag2252
aF0.0
aasbsI207
(imyfunction
mondai
p2261
(dp2262
g3
S'2017-10-15 16:41:27'
p2263
sg5
F1.2704623863737364e-09
sg6
S'207.jpg'
p2264
sg8
(lp2265
(lp2266
g2263
aS'answer is 5'
p2267
aasg13
(lp2268
S'chemistry'
p2269
asg16
F0.0
sg17
F1508053287.288
sg18
I1
sg19
(lp2270
(lp2271
F1508053287.288
ag2263
aF0.0
aasbsI208
(imyfunction
mondai
p2272
(dp2273
g3
S'2017-10-15 21:19:51'
p2274
sg5
F1.5425273602833876e-09
sg6
S'208.jpg'
p2275
sg8
(lp2276
(lp2277
g2274
aS'answer is 2'
p2278
aasg13
(lp2279
S'physical'
p2280
asg16
F0.0
sg17
F1508069991.529
sg18
I1
sg19
(lp2281
(lp2282
F1508069991.529
ag2274
aF0.0
aasbsI209
(imyfunction
mondai
p2283
(dp2284
g3
S'2017-10-16 01:40:11'
p2285
sg5
F1.848198478714094e-09
sg6
S'209.jpg'
p2286
sg8
(lp2287
(lp2288
g2285
aS'answer is 2'
p2289
aasg13
(lp2290
S'physical'
p2291
asg16
F0.0
sg17
F1508085611.712
sg18
I1
sg19
(lp2292
(lp2293
F1508085611.712
ag2285
aF0.0
aasbsI210
(imyfunction
mondai
p2294
(dp2295
g3
S'2017-10-16 02:03:46'
p2296
sg5
F1.8787070481800603e-09
sg6
S'210.jpg'
p2297
sg8
(lp2298
(lp2299
g2296
aS'answer is 4'
p2300
aasg13
(lp2301
S'physical'
p2302
asg16
F0.0
sg17
F1508087026.29
sg18
I1
sg19
(lp2303
(lp2304
F1508087026.29
ag2296
aF0.0
aasbsI211
(imyfunction
mondai
p2305
(dp2306
g3
S'2017-10-16 15:14:57'
p2307
sg5
F3.2544278143356703e-09
sg6
S'211.jpg'
p2308
sg8
(lp2309
(lp2310
g2307
aS'answer is 4'
p2311
aasg13
(lp2312
S'physical'
p2313
asg16
F0.0
sg17
F1508134497.273
sg18
I1
sg19
(lp2314
(lp2315
F1508134497.273
ag2307
aF0.0
aasbsI212
(imyfunction
mondai
p2316
(dp2317
g3
S'2017-10-16 15:52:15'
p2318
sg5
F3.3374977387789e-09
sg6
S'212.jpg'
p2319
sg8
(lp2320
(lp2321
g2318
aS'answer is 4'
p2322
aasg13
(lp2323
S'chemistry'
p2324
asg16
F0.0
sg17
F1508136735.901
sg18
I1
sg19
(lp2325
(lp2326
F1508136735.901
ag2318
aF0.0
aasbsI213
(imyfunction
mondai
p2327
(dp2328
g3
S'2017-10-16 18:02:56'
p2329
sg5
F1.345781687109353e-05
sg6
S'213.jpg'
p2330
sg8
(lp2331
sg13
(lp2332
S'math'
p2333
asg16
F0.5
sg17
F1508144576.122
sg18
I4
sg19
(lp2334
(lp2335
F1508144576.122
ag2329
aF0.5
aasbsI214
(imyfunction
mondai
p2336
(dp2337
g3
S'2017-10-17 00:15:42'
p2338
sg5
F4.32296430254975e-06
sg6
S'214.jpg'
p2339
sg8
(lp2340
sg13
(lp2341
S'math'
p2342
asg16
F0.4
sg17
F1508166942.318
sg18
I5
sg19
(lp2343
(lp2344
F1508166942.318
ag2338
aF0.4
aasbsI215
(imyfunction
mondai
p2345
(dp2346
g3
S'2017-10-17 02:24:21'
p2347
sg5
F0.0002318265409960486
sg6
S'215.jpg'
p2348
sg8
(lp2349
sg13
(lp2350
S'math'
p2351
asg16
F0.75
sg17
F1508174661.772
sg18
I4
sg19
(lp2352
(lp2353
F1508174661.772
ag2347
aF0.75
aasbsI216
(imyfunction
mondai
p2354
(dp2355
g3
S'2017-10-17 02:43:39'
p2356
sg5
F9.777290717045037e-05
sg6
S'216.jpg'
p2357
sg8
(lp2358
sg13
(lp2359
S'math'
p2360
asg16
F0.66
sg17
F1508175819.491
sg18
I3
sg19
(lp2361
(lp2362
F1508175819.491
ag2356
aF0.66
aasbsI217
(imyfunction
mondai
p2363
(dp2364
g3
S'2017-10-17 14:56:19'
p2365
sg5
F0.00029150934993642447
sg6
S'217.jpg'
p2366
sg8
(lp2367
sg13
(lp2368
S'math'
p2369
asg16
F0.75
sg17
F1508219779.466
sg18
I4
sg19
(lp2370
(lp2371
F1508219779.466
ag2365
aF0.75
aasbsI218
(imyfunction
mondai
p2372
(dp2373
g3
S'2017-10-17 16:22:14'
p2374
sg5
F2.3023986014399472e-05
sg6
S'218.jpg'
p2375
sg8
(lp2376
sg13
(lp2377
S'math'
p2378
asg16
F0.5
sg17
F1508224934.21
sg18
I5
sg19
(lp2379
(lp2380
F1508224934.21
ag2374
aF0.5
aasbsI219
(imyfunction
mondai
p2381
(dp2382
g3
S'2017-10-17 16:31:02'
p2383
sg5
F1.6766227267312417e-06
sg6
S'219.jpg'
p2384
sg8
(lp2385
sg13
(lp2386
S'math'
p2387
asg16
F0.3
sg17
F1508225462.692
sg18
I4
sg19
(lp2388
(lp2389
F1508225462.692
ag2383
aF0.3
aasbsI220
(imyfunction
mondai
p2390
(dp2391
g3
S'2017-10-17 17:52:33'
p2392
sg5
F0.00047389816967489663
sg6
S'220.jpg'
p2393
sg8
(lp2394
sg13
(lp2395
S'math'
p2396
asg16
F0.8
sg17
F1508230353.749
sg18
I5
sg19
(lp2397
(lp2398
F1508230353.749
ag2392
aF0.8
aasbsI221
(imyfunction
mondai
p2399
(dp2400
g3
S'2017-10-17 20:59:50'
p2401
sg5
F7.727062494280407e-05
sg6
S'221.jpg'
p2402
sg8
(lp2403
sg13
(lp2404
S'math'
p2405
asg16
F0.6
sg17
F1508241590.206
sg18
I10
sg19
(lp2406
(lp2407
F1508241590.206
ag2401
aF0.6
aasbsI222
(imyfunction
mondai
p2408
(dp2409
g3
S'2017-10-19 03:06:47'
p2410
sg5
F5.310719833975319e-05
sg6
S'222.jpg'
p2411
sg8
(lp2412
sg13
(lp2413
S'math'
p2414
asg16
F0.5
sg17
F1508350007.402
sg18
I6
sg19
(lp2415
(lp2416
F1508350007.402
ag2410
aF0.5
aasbsI223
(imyfunction
mondai
p2417
(dp2418
g3
S'2017-10-19 03:22:49'
p2419
sg5
F0.00011070430950188554
sg6
S'223.jpg'
p2420
sg8
(lp2421
sg13
(lp2422
S'math'
p2423
asg16
F0.57
sg17
F1508350969.765
sg18
I7
sg19
(lp2424
(lp2425
F1508350969.765
ag2419
aF0.57
aasbsI224
(imyfunction
mondai
p2426
(dp2427
g3
S'2017-10-19 03:54:31'
p2428
sg5
F7.2005020012122265e-06
sg6
S'224.jpg'
p2429
sg8
(lp2430
sg13
(lp2431
S'math'
p2432
asg16
F0.33
sg17
F1508352871.541
sg18
I6
sg19
(lp2433
(lp2434
F1508352871.541
ag2428
aF0.33
aasbsI225
(imyfunction
mondai
p2435
(dp2436
g3
S'2017-10-19 23:58:53'
p2437
sg5
F2.9654176388018762e-05
sg6
S'225.jpg'
p2438
sg8
(lp2439
sg13
(lp2440
S'math'
p2441
asg16
F0.4
sg17
F1508425133.985
sg18
I5
sg19
(lp2442
(lp2443
F1508425133.985
ag2437
aF0.4
aasbsI226
(imyfunction
mondai
p2444
(dp2445
g3
S'2017-10-20 00:16:15'
p2446
sg5
F0.0020654541642817345
sg6
S'226.jpg'
p2447
sg8
(lp2448
sg13
(lp2449
S'math'
p2450
asg16
F0.875
sg17
F1508426175.882
sg18
I6
sg19
(lp2451
(lp2452
F1508426175.882
ag2446
aF0.875
aasbsI227
(imyfunction
mondai
p2453
(dp2454
g3
S'2017-10-20 03:06:07'
p2455
sg5
F9.457537437276287e-05
sg6
S'227.jpg'
p2456
sg8
(lp2457
sg13
(lp2458
S'math'
p2459
asg16
F0.5
sg17
F1508436367.652
sg18
I4
sg19
(lp2460
(lp2461
F1508436367.652
ag2455
aF0.5
aasbsI228
(imyfunction
mondai
p2462
(dp2463
g3
S'2017-10-20 03:28:45'
p2464
sg5
F1.4262083738087296e-05
sg6
S'228.jpg'
p2465
sg8
(lp2466
sg13
(lp2467
S'math'
p2468
asg16
F0.33
sg17
F1508437725.656
sg18
I6
sg19
(lp2469
(lp2470
F1508437725.656
ag2464
aF0.33
aasbsI229
(imyfunction
mondai
p2471
(dp2472
g3
S'2017-10-20 05:28:17'
p2473
sg5
F5.450087750218387e-06
sg6
S'229.jpg'
p2474
sg8
(lp2475
sg13
(lp2476
S'math'
p2477
asg16
F0.25
sg17
F1508444897.203
sg18
I4
sg19
(lp2478
(lp2479
F1508444897.203
ag2473
aF0.25
aasbsI230
(imyfunction
mondai
p2480
(dp2481
g3
S'2017-10-20 05:29:58'
p2482
sg5
F0.0013295390317886891
sg6
S'230.jpg'
p2483
sg8
(lp2484
sg13
(lp2485
S'math'
p2486
asg16
F0.8
sg17
F1508444998.374
sg18
I5
sg19
(lp2487
(lp2488
F1508444998.374
ag2482
aF0.8
aasbsI231
(imyfunction
mondai
p2489
(dp2490
g3
S'2017-10-20 05:39:15'
p2491
sg5
F0.00010056386896509471
sg6
S'231.jpg'
p2492
sg8
(lp2493
sg13
(lp2494
S'math'
p2495
asg16
F0.5
sg17
F1508445555.5
sg18
I2
sg19
(lp2496
(lp2497
F1508445555.5
ag2491
aF0.5
aasbsI232
(imyfunction
mondai
p2498
(dp2499
g3
S'2017-10-20 05:44:38'
p2500
sg5
F1.1957729588086813e-07
sg6
S'232.jpg'
p2501
sg8
(lp2502
sg13
(lp2503
S'math'
p2504
asg16
F0.0
sg17
F1508445878.253
sg18
I2
sg19
(lp2505
(lp2506
F1508445878.253
ag2500
aF0.0
aasbsI233
(imyfunction
mondai
p2507
(dp2508
g3
S'2017-10-20 12:10:00'
p2509
sg5
F1.5627017197561463e-07
sg6
S'233.jpg'
p2510
sg8
(lp2511
sg13
(lp2512
S'math'
p2513
asg16
F0.0
sg17
F1508469000.914
sg18
I1
sg19
(lp2514
(lp2515
F1508469000.914
ag2509
aF0.0
aasbsI234
(imyfunction
mondai
p2516
(dp2517
g3
S'2017-10-20 17:55:09'
p2518
sg5
F1.9859492145138697e-07
sg6
S'234.jpg'
p2519
sg8
(lp2520
sg13
(lp2521
S'math'
p2522
asg16
F0.0
sg17
F1508489709.335
sg18
I1
sg19
(lp2523
(lp2524
F1508489709.335
ag2518
aF0.0
aasbsI235
(imyfunction
mondai
p2525
(dp2526
g3
S'2017-10-21 01:17:00'
p2527
sg5
F2.6838571914092086e-05
sg6
S'235.jpg'
p2528
sg8
(lp2529
sg13
(lp2530
S'math'
p2531
asg16
F0.33
sg17
F1508516220.781
sg18
I3
sg19
(lp2532
(lp2533
F1508516220.781
ag2527
aF0.33
aasbsI236
(imyfunction
mondai
p2534
(dp2535
g3
S'2017-10-21 03:21:57'
p2536
sg5
F2.8509051968531936e-05
sg6
S'236.jpg'
p2537
sg8
(lp2538
sg13
(lp2539
S'math'
p2540
asg16
F0.33
sg17
F1508523717.444
sg18
I1
sg19
(lp2541
(lp2542
F1508523717.444
ag2536
aF0.33
aasbsI237
(imyfunction
mondai
p2543
(dp2544
g3
S'2017-10-21 20:08:26'
p2545
sg5
F5.921919861518099e-07
sg6
S'237.jpg'
p2546
sg8
(lp2547
(lp2548
g2545
aS'answer is 4'
p2549
aasg13
(lp2550
S'math'
p2551
asg16
F0.0
sg17
F1508584106.839
sg18
I1
sg19
(lp2552
(lp2553
F1508584106.839
ag2545
aF0.0
aasbsI238
(imyfunction
mondai
p2554
(dp2555
g3
S'2017-10-22 08:45:21'
p2556
sg5
F1.0017055640265722e-06
sg6
S'238.jpg'
p2557
sg8
(lp2558
sg13
(lp2559
S'math'
p2560
asg16
F0.0
sg17
F1508629521.142
sg18
I1
sg19
(lp2561
(lp2562
F1508629521.142
ag2556
aF0.0
aasbsI239
(imyfunction
mondai
p2563
(dp2564
g3
S'2017-10-23 15:46:29'
p2565
sg5
F0.0015383131764694464
sg6
S'239.jpeg'
p2566
sg8
(lp2567
sg13
(lp2568
S'math'
p2569
asg16
F0.6
sg17
F1508741189.11
sg18
I5
sg19
(lp2570
(lp2571
F1508741189.11
ag2565
aF0.6
aasbsI240
(imyfunction
mondai
p2572
(dp2573
g3
S'2017-10-23 16:02:28'
p2574
sg5
F3.6886570345750855e-06
sg6
S'240.jpg'
p2575
sg8
(lp2576
sg13
(lp2577
S'math'
p2578
asg16
F0.0
sg17
F1508742148.582
sg18
I1
sg19
(lp2579
(lp2580
F1508742148.582
ag2574
aF0.0
aasbsI241
(imyfunction
mondai
p2581
(dp2582
g3
S'2017-10-23 16:07:55'
p2583
sg5
F3.7026457856089492e-06
sg6
S'241.jpg'
p2584
sg8
(lp2585
(lp2586
g2583
aS'answer is 0'
p2587
aasg13
(lp2588
S'math'
p2589
asg16
F0.0
sg17
F1508742475.623
sg18
I1
sg19
(lp2590
(lp2591
F1508742475.623
ag2583
aF0.0
aasbsI242
(imyfunction
mondai
p2592
(dp2593
g3
S'2017-10-23 16:22:12'
p2594
sg5
F7.520300485053479e-05
sg6
S'242.jpg'
p2595
sg8
(lp2596
sg13
(lp2597
S'math'
p2598
asg16
F0.25
sg17
F1508743332.698
sg18
I4
sg19
(lp2599
(lp2600
F1508743332.698
ag2594
aF0.25
aasbsI243
(imyfunction
mondai
p2601
(dp2602
g3
S'2017-10-25 00:30:10'
p2603
sg5
F1.4265346711906765e-05
sg6
S'243.jpg'
p2604
sg8
(lp2605
sg13
(lp2606
S'math'
p2607
asg16
F0.0
sg17
F1508859010.703
sg18
I1
sg19
(lp2608
(lp2609
F1508859010.703
ag2603
aF0.0
aasbsI244
(imyfunction
mondai
p2610
(dp2611
g3
S'2017-10-25 00:46:52'
p2612
sg5
F1.4431751146550102e-05
sg6
S'244.jpg'
p2613
sg8
(lp2614
(lp2615
g2612
aS'answer is 7'
p2616
aasg13
(lp2617
S'math'
p2618
asg16
F0.0
sg17
F1508860012.721
sg18
I1
sg19
(lp2619
(lp2620
F1508860012.721
ag2612
aF0.0
aasbsI245
(imyfunction
mondai
p2621
(dp2622
g3
S'2017-10-25 12:01:55'
p2623
sg5
F2.306269079078946e-05
sg6
S'245.jpg'
p2624
sg8
(lp2625
sg13
(lp2626
S'math'
p2627
asg16
F0.0
sg17
F1508900515.786
sg18
I4
sg19
(lp2628
(lp2629
F1508900515.786
ag2623
aF0.0
aasbsI246
(imyfunction
mondai
p2630
(dp2631
g3
S'2017-10-26 23:38:30'
p2632
sg5
F0.0006235670998983115
sg6
S'246.jpg'
p2633
sg8
(lp2634
sg13
(lp2635
S'math'
p2636
asg16
F0.2
sg17
F1509028710.277
sg18
I5
sg19
(lp2637
(lp2638
F1509028710.277
ag2632
aF0.2
aasbsI247
(imyfunction
mondai
p2639
(dp2640
g3
S'2017-10-27 22:14:21'
p2641
sg5
F0.0002607372805895484
sg6
S'247.jpg'
p2642
sg8
(lp2643
(lp2644
g2641
aS'answer is 1'
p2645
aasg13
(lp2646
S'math'
p2647
asg16
F0.0
sg17
F1509110061.457
sg18
I1
sg19
(lp2648
(lp2649
F1509110061.457
ag2641
aF0.0
aasbsI248
(imyfunction
mondai
p2650
(dp2651
g3
S'2017-10-31 04:53:35'
p2652
sg5
F0.0069102126137180085
sg6
S'248.jpg'
p2653
sg8
(lp2654
(lp2655
g2652
aS'answer is 85'
p2656
aasg13
(lp2657
S'math'
p2658
asg16
F0.0
sg17
F1509393215.198
sg18
I1
sg19
(lp2659
(lp2660
F1509393215.198
ag2652
aF0.0
aasbsI249
(imyfunction
mondai
p2661
(dp2662
g3
S'2017-10-31 05:21:12'
p2663
sg5
F0.007044011269862912
sg6
S'249.jpg'
p2664
sg8
(lp2665
sg13
(lp2666
S'math'
p2667
asg16
F0.0
sg17
F1509394872.124
sg18
I3
sg19
(lp2668
(lp2669
F1509394872.124
ag2663
aF0.0
aasbsI250
(imyfunction
mondai
p2670
(dp2671
g3
S'2017-11-01 00:55:27'
p2672
sg5
F0.015920946036507993
sg6
S'250.jpg'
p2673
sg8
(lp2674
(lp2675
g2672
aS'answer is 1340'
p2676
aasg13
(lp2677
S'math'
p2678
asg16
F0.0
sg17
F1509465327.679
sg18
I1
sg19
(lp2679
(lp2680
F1509465327.679
ag2672
aF0.0
aasbsI251
(imyfunction
mondai
p2681
(dp2682
g3
S'2017-11-01 02:26:08'
p2683
sg5
F0.049910391449788025
sg6
S'251.jpg'
p2684
sg8
(lp2685
sg13
(lp2686
S'math'
p2687
asg16
F0.28
sg17
F1509470768.074
sg18
I7
sg19
(lp2688
(lp2689
F1509470768.074
ag2683
aF0.28
aasbsI252
(imyfunction
mondai
p2690
(dp2691
g3
S'2017-11-01 03:58:53'
p2692
sg5
F0.04740542570487238
sg6
S'252.jpg'
p2693
sg8
(lp2694
sg13
(lp2695
S'math'
p2696
asg16
F0.25
sg17
F1509476333.79
sg18
I4
sg19
(lp2697
(lp2698
F1509476333.79
ag2692
aF0.25
aasbsI253
(imyfunction
mondai
p2699
(dp2700
g3
S'2017-11-02 00:22:21'
p2701
sg5
F0.04229402205624827
sg6
S'253.jpg'
p2702
sg8
(lp2703
(lp2704
g2701
aS'answer is 5'
p2705
aasg13
(lp2706
S'physical'
p2707
asg16
F0.0
sg17
F1509549741.356
sg18
I1
sg19
(lp2708
(lp2709
F1509549741.356
ag2701
aF0.0
aasbsI254
(imyfunction
mondai
p2710
(dp2711
g3
S'2017-11-02 00:25:22'
p2712
sg5
F0.042382965202084545
sg6
S'254.jpg'
p2713
sg8
(lp2714
(lp2715
g2712
aS'answer is 6'
p2716
aasg13
(lp2717
S'physical'
p2718
asg16
F0.0
sg17
F1509549922.862
sg18
I1
sg19
(lp2719
(lp2720
F1509549922.862
ag2712
aF0.0
aasbsI255
(imyfunction
mondai
p2721
(dp2722
g3
S'2017-11-02 00:29:37'
p2723
sg5
F0.042508079183428714
sg6
S'255.jpg'
p2724
sg8
(lp2725
(lp2726
g2723
aS'answer is 2'
p2727
aasg13
(lp2728
S'physical'
p2729
asg16
F0.0
sg17
F1509550177.538
sg18
I1
sg19
(lp2730
(lp2731
F1509550177.538
ag2723
aF0.0
aasbsI256
(imyfunction
mondai
p2732
(dp2733
g3
S'2017-11-02 00:37:20'
p2734
sg5
F0.04273637937956211
sg6
S'256.jpg'
p2735
sg8
(lp2736
(lp2737
g2734
aS'answer is 3'
p2738
aasg13
(lp2739
S'physical'
p2740
asg16
F0.0
sg17
F1509550640.329
sg18
I1
sg19
(lp2741
(lp2742
F1509550640.329
ag2734
aF0.0
aasbsI257
(imyfunction
mondai
p2743
(dp2744
g3
S'2017-11-02 00:43:18'
p2745
sg5
F0.04291411877793887
sg6
S'257.jpg'
p2746
sg8
(lp2747
(lp2748
g2745
aS'answer is 6'
p2749
aasg13
(lp2750
S'physical'
p2751
asg16
F0.0
sg17
F1509550998.919
sg18
I1
sg19
(lp2752
(lp2753
F1509550998.919
ag2745
aF0.0
aasbsI258
(imyfunction
mondai
p2754
(dp2755
g3
S'2017-11-02 00:48:55'
p2756
sg5
F0.043081808633247023
sg6
S'258.jpg'
p2757
sg8
(lp2758
(lp2759
g2756
aS'answer is 3'
p2760
aasg13
(lp2761
S'physical'
p2762
asg16
F0.0
sg17
F1509551335.875
sg18
I1
sg19
(lp2763
(lp2764
F1509551335.875
ag2756
aF0.0
aasbsI259
(imyfunction
mondai
p2765
(dp2766
g3
S'2017-11-02 03:12:43'
p2767
sg5
F0.04760600631613509
sg6
S'259.jpg'
p2768
sg8
(lp2769
(lp2770
g2767
aS'answer is 2'
p2771
aasg13
(lp2772
S'physical'
p2773
asg16
F0.0
sg17
F1509559963.615
sg18
I1
sg19
(lp2774
(lp2775
F1509559963.615
ag2767
aF0.0
aasbsI260
(imyfunction
mondai
p2776
(dp2777
g3
S'2017-11-02 03:34:11'
p2778
sg5
F0.04832098613552014
sg6
S'260.jpg'
p2779
sg8
(lp2780
(lp2781
g2778
aS'answer is 4'
p2782
aasg13
(lp2783
S'physical'
p2784
asg16
F0.0
sg17
F1509561251.582
sg18
I1
sg19
(lp2785
(lp2786
F1509561251.582
ag2778
aF0.0
aasbsI261
(imyfunction
mondai
p2787
(dp2788
g3
S'2017-11-02 04:23:31'
p2789
sg5
F0.05000505664163243
sg6
S'261.jpg'
p2790
sg8
(lp2791
(lp2792
g2789
aS'answer is 1'
p2793
aasg13
(lp2794
S'physical'
p2795
asg16
F0.0
sg17
F1509564211.488
sg18
I1
sg19
(lp2796
(lp2797
F1509564211.488
ag2789
aF0.0
aasbsI262
(imyfunction
mondai
p2798
(dp2799
g3
S'2017-11-02 04:26:05'
p2800
sg5
F0.05005898351036879
sg6
S'262.jpg'
p2801
sg8
(lp2802
(lp2803
g2800
aS'answer is 6'
p2804
aasg13
(lp2805
S'chemistry'
p2806
asg16
F0.0
sg17
F1509564365.54
sg18
I1
sg19
(lp2807
(lp2808
F1509564365.54
ag2800
aF0.0
aasbsI263
(imyfunction
mondai
p2809
(dp2810
g3
S'2017-11-03 17:43:00'
p2811
sg5
F0.23682401855940075
sg6
S'263.jpg'
p2812
sg8
(lp2813
(lp2814
g2811
aS'answer is 2'
p2815
aasg13
(lp2816
S'physical'
p2817
asg16
F0.0
sg17
F1509698580.18
sg18
I1
sg19
(lp2818
(lp2819
F1509698580.18
ag2811
aF0.0
aasbsI264
(imyfunction
mondai
p2820
(dp2821
g3
S'2017-11-03 17:59:10'
p2822
sg5
F0.23949770726445233
sg6
S'264.jpg'
p2823
sg8
(lp2824
(lp2825
g2822
aS'answer is 3'
p2826
aasg13
(lp2827
S'physical'
p2828
asg16
F0.0
sg17
F1509699550.151
sg18
I1
sg19
(lp2829
(lp2830
F1509699550.151
ag2822
aF0.0
aasbsI265
(imyfunction
mondai
p2831
(dp2832
g3
S'2017-11-03 18:06:16'
p2833
sg5
F0.24068254964388977
sg6
S'265.jpg'
p2834
sg8
(lp2835
(lp2836
g2833
aS'answer is 1'
p2837
aasg13
(lp2838
S'physical'
p2839
asg16
F0.0
sg17
F1509699976.535
sg18
I1
sg19
(lp2840
(lp2841
F1509699976.535
ag2833
aF0.0
aasbsI266
(imyfunction
mondai
p2842
(dp2843
g3
S'2017-11-03 18:28:39'
p2844
sg5
F0.24445189260573563
sg6
S'266.jpg'
p2845
sg8
(lp2846
(lp2847
g2844
aS'answer is 3'
p2848
aasg13
(lp2849
S'physical'
p2850
asg16
F0.0
sg17
F1509701319.164
sg18
I1
sg19
(lp2851
(lp2852
F1509701319.164
ag2844
aF0.0
aasbsI267
(imyfunction
mondai
p2853
(dp2854
g3
S'2017-11-03 19:59:11'
p2855
sg5
F0.2603160624130669
sg6
S'267.jpg'
p2856
sg8
(lp2857
(lp2858
g2855
aS'answer is 2'
p2859
aasg13
(lp2860
S'physical'
p2861
asg16
F0.0
sg17
F1509706751.822
sg18
I1
sg19
(lp2862
(lp2863
F1509706751.822
ag2855
aF0.0
aasbsI268
(imyfunction
mondai
p2864
(dp2865
g3
S'2017-11-03 20:48:23'
p2866
sg5
F0.26936379400169475
sg6
S'268.jpg'
p2867
sg8
(lp2868
(lp2869
g2866
aS'answer is 1'
p2870
aasg13
(lp2871
S'physical'
p2872
asg16
F0.0
sg17
F1509709703.794
sg18
I1
sg19
(lp2873
(lp2874
F1509709703.794
ag2866
aF0.0
aasbsI269
(imyfunction
mondai
p2875
(dp2876
g3
S'2017-11-03 21:00:05'
p2877
sg5
F0.27136765484459835
sg6
S'269.jpg'
p2878
sg8
(lp2879
(lp2880
g2877
aS'answer is 6'
p2881
aasg13
(lp2882
S'chemistry'
p2883
asg16
F0.0
sg17
F1509710405.091
sg18
I1
sg19
(lp2884
(lp2885
F1509710405.091
ag2877
aF0.0
aasbsI270
(imyfunction
mondai
p2886
(dp2887
g3
S'2017-11-04 04:12:37'
p2888
sg5
F0.36670517804943986
sg6
S'270.jpg'
p2889
sg8
(lp2890
(lp2891
g2888
aS'answer is 5'
p2892
aasg13
(lp2893
S'physical'
p2894
asg16
F0.0
sg17
F1509736357.791
sg18
I1
sg19
(lp2895
(lp2896
F1509736357.791
ag2888
aF0.0
aasbsI271
(imyfunction
mondai
p2897
(dp2898
g3
S'2017-11-04 04:14:00'
p2899
sg5
F0.36705589713336706
sg6
S'271.jpg'
p2900
sg8
(lp2901
(lp2902
g2899
aS'answer is 2'
p2903
aasg13
(lp2904
S'physical'
p2905
asg16
F0.0
sg17
F1509736440.385
sg18
I1
sg19
(lp2906
(lp2907
F1509736440.385
ag2899
aF0.0
aasbsI272
(imyfunction
mondai
p2908
(dp2909
g3
S'2017-11-04 04:44:56'
p2910
sg5
F0.3750270515844003
sg6
S'272.jpg'
p2911
sg8
(lp2912
(lp2913
g2910
aS'answer is 6'
p2914
aasg13
(lp2915
S'physical'
p2916
asg16
F0.0
sg17
F1509738296.604
sg18
I1
sg19
(lp2917
(lp2918
F1509738296.604
ag2910
aF0.0
aasbsI273
(imyfunction
mondai
p2919
(dp2920
g3
S'2017-11-04 04:47:26'
p2921
sg5
F0.3756767186322639
sg6
S'273.jpg'
p2922
sg8
(lp2923
(lp2924
g2921
aS'answer is 4'
p2925
aasg13
(lp2926
S'physical'
p2927
asg16
F0.0
sg17
F1509738446.147
sg18
I1
sg19
(lp2928
(lp2929
F1509738446.147
ag2921
aF0.0
aasbsI274
(imyfunction
mondai
p2930
(dp2931
g3
S'2017-11-04 04:55:51'
p2932
sg5
F0.3776141890369023
sg6
S'274.jpg'
p2933
sg8
(lp2934
(lp2935
g2932
aS'answer is 6'
p2936
aasg13
(lp2937
S'chemistry'
p2938
asg16
F0.0
sg17
F1509738951.517
sg18
I1
sg19
(lp2939
(lp2940
F1509738951.517
ag2932
aF0.0
aasbsI275
(imyfunction
mondai
p2941
(dp2942
g3
S'2017-11-04 05:02:08'
p2943
sg5
F0.3792671794010539
sg6
S'275.jpg'
p2944
sg8
(lp2945
(lp2946
g2943
aS'answer is 1'
p2947
aasg13
(lp2948
S'chemistry'
p2949
asg16
F0.0
sg17
F1509739328.904
sg18
I1
sg19
(lp2950
(lp2951
F1509739328.904
ag2943
aF0.0
aasbs.