(dp0
I1
(imyfunction
mondai
p1
(dp2
S'wordtime'
p3
S'2017-10-05 19:17:13'
p4
sS'remember'
p5
F0.9879858051152332
sS'imgnum'
p6
S'1.png'
p7
sS'memo'
p8
(lp9
(lp10
F1498515733.947
aS'2017-06-27 07:22:13'
p11
aS'answer 3'
p12
aasS'tag'
p13
(lp14
S'chemistry'
p15
asS'understand'
p16
F0.9993169534109716
sS'lasttime'
p17
F1507198633.675
sS'qusnum'
p18
I1
sS'history'
p19
(lp20
(lp21
F1498515733.947
ag11
aI0
aa(lp22
F1499145499.01
aS'2017-07-04 14:18:19'
p23
aI1
aa(lp24
F1507198633.675
ag4
aF0.0
aasbsI2
(imyfunction
mondai
p25
(dp26
g3
S'2017-10-01 21:56:41'
p27
sg5
F0.2698545560079035
sg6
S'2.jpg'
p28
sg8
(lp29
S'answer is 3'
p30
aS'0'
p31
asg13
(lp32
g15
asg16
F0.9990451863019874
sg17
F1506862601.36
sg19
(lp33
(lp34
F1498545603.881
aS'2017-06-27 15:40:03'
p35
aI0
aa(lp36
F1499146428.99
aS'2017-07-04 14:33:48'
p37
aI0
aa(lp38
F1506862601.36
ag27
aF1.0
aasbsI3
(imyfunction
mondai
p39
(dp40
g3
S'2017-07-12 03:37:55'
p41
sg5
F3.9383008617585666e-13
sg6
S'3.jpg'
p42
sg8
(lp43
S'answer is 5'
p44
asg13
(lp45
g15
asg16
F0.9999994937212187
sg17
F1499798275.889
sg19
(lp46
(lp47
F1498545806.078
aS'2017-06-27 15:43:26'
p48
aI0
aa(lp49
F1499798275.889
ag41
aI1
aasbsI4
(imyfunction
mondai
p50
(dp51
g3
S'2017-07-12 03:40:20'
p52
sg5
F3.940498912557174e-13
sg6
S'4.jpg'
p53
sg8
(lp54
S'answer is 2'
p55
asg13
(lp56
g15
asg16
F0.9999994935594296
sg17
F1499798420.515
sg19
(lp57
(lp58
F1498545978.31
aS'2017-06-27 15:46:18'
p59
aI0
aa(lp60
F1499798420.515
ag52
aI1
aasbsI5
(imyfunction
mondai
p61
(dp62
g3
S'2017-07-12 03:41:46'
p63
sg5
F3.941794419746076e-13
sg6
S'5.jpg'
p64
sg8
(lp65
S'answer is 3'
p66
asg13
(lp67
g15
asg16
F0.9999994359484087
sg17
F1499798506.186
sg19
(lp68
(lp69
F1498555372.608
aS'2017-06-27 18:22:52'
p70
aI0
aa(lp71
F1499798506.186
ag63
aI1
aasbsI6
(imyfunction
mondai
p72
(dp73
g3
S'2017-07-12 03:44:19'
p74
sg5
F3.9441305514114367e-13
sg6
S'6.jpg'
p75
sg8
(lp76
S'answer is 5'
p77
asg13
(lp78
g15
asg16
F0.9999994346046224
sg17
F1499798659.768
sg19
(lp79
(lp80
F1498555731.783
aS'2017-06-27 18:28:51'
p81
aI0
aa(lp82
F1499798659.768
ag74
aI1
aasbsI7
(imyfunction
mondai
p83
(dp84
g3
S'2017-07-12 03:45:07'
p85
sg5
F3.9447997753238395e-13
sg6
S'7.jpg'
p86
sg8
(lp87
S'answer is 1'
p88
asg13
(lp89
g15
asg16
F0.999998982652945
sg17
F1499798707.42
sg19
(lp90
(lp91
F1498606533.242
aS'2017-06-28 08:35:33'
p92
aI0
aa(lp93
F1499798707.42
ag85
aI1
aasbsI8
(imyfunction
mondai
p94
(dp95
g3
S'2017-07-12 03:45:38'
p96
sg5
F3.945250956116106e-13
sg6
S'8.jpg'
p97
sg8
(lp98
S'answer is 4'
p99
asg13
(lp100
g15
asg16
F0.9999988380453558
sg17
F1499798738.24
sg19
(lp101
(lp102
F1498618047.081
aS'2017-06-28 11:47:27'
p103
aI0
aa(lp104
F1499798738.24
ag96
aI1
aasbsI9
(imyfunction
mondai
p105
(dp106
g3
S'2017-10-01 21:43:25'
p107
sg5
F0.2693973553713357
sg6
S'9.jpg'
p108
sg8
(lp109
S'answer is 2'
p110
asg13
(lp111
g15
asg16
F1.0
sg17
F1506861805.88
sg19
(lp112
(lp113
F1498631047.991
aS'2017-06-28 15:24:07'
p114
aI0
aa(lp115
F1506861805.88
ag107
aF1.0
aasbsI10
(imyfunction
mondai
p116
(dp117
g3
S'2017-10-01 21:52:59'
p118
sg5
F0.26999457978325564
sg6
S'10.jpg'
p119
sg8
(lp120
S'answer is 4'
p121
aS'0'
p122
asg13
(lp123
g15
asg16
F1.0
sg17
F1506862379.862
sg19
(lp124
(lp125
F1498631158.414
aS'2017-06-28 15:25:58'
p126
aI0
aa(lp127
F1506862379.862
ag118
aF1.0
aasbsI11
(imyfunction
mondai
p128
(dp129
g3
S'2017-10-01 22:03:45'
p130
sg5
F0.14976621143656316
sg6
S'11.jpg'
p131
sg8
(lp132
(lp133
F1499144054.099
aS'2017-07-04 13:54:14'
p134
aS'answer 2,3,2'
p135
aasg13
(lp136
g15
asg16
F0.66
sg17
F1506863025.03
sg19
(lp137
(lp138
F1499144054.099
ag134
aI0
aa(lp139
F1506863025.03
ag130
aF0.66
aasbsI12
(imyfunction
mondai
p140
(dp141
g3
S'2017-10-01 22:10:11'
p142
sg5
F0.2710710882102129
sg6
S'12.jpg'
p143
sg8
(lp144
(lp145
F1499144401.683
aS'2017-07-04 14:00:01'
p146
aS'answer 3'
p147
aasg13
(lp148
g15
asg16
F1.0
sg17
F1506863411.276
sg19
(lp149
(lp150
F1499144401.683
ag146
aI0
aa(lp151
F1506863411.276
ag142
aF1.0
aasbsI13
(imyfunction
mondai
p152
(dp153
g3
S'2017-10-02 00:01:23'
p154
sg5
F0.2814565037932613
sg6
S'13.jpg'
p155
sg8
(lp156
(lp157
F1499144716.146
aS'2017-07-04 14:05:16'
p158
aS'answer 3'
p159
aasg13
(lp160
g15
asg16
F1.0084715513436913
sg17
F1506870083.757
sg18
I1
sg19
(lp161
F1499144716.146
ag158
aI0
a(lp162
F1506870083.757
ag154
aF1.0
aasbsI14
(imyfunction
mondai
p163
(dp164
g3
S'2017-10-01 22:21:15'
p165
sg5
F0.2725039072665213
sg6
S'14.jpg'
p166
sg8
(lp167
sg13
(lp168
S'math'
p169
asg16
F1.0
sg17
F1506864075.366
sg19
(lp170
(lp171
F1499153099.088
aS'2017-07-04 16:24:59'
p172
aI0
aa(lp173
F1506864075.366
ag165
aF1.0
aasbsI15
(imyfunction
mondai
p174
(dp175
g3
S'2017-10-01 22:37:19'
p176
sg5
F0.27351930282297177
sg6
S'15.png'
p177
sg8
(lp178
sg13
(lp179
g169
asg16
F1.0
sg17
F1506865039.394
sg18
I1
sg19
(lp180
(lp181
F1499166125.188
aS'2017-07-04 20:02:05'
p182
aI0
aa(lp183
F1506865039.394
ag176
aF1.0
aasbsI16
(imyfunction
mondai
p184
(dp185
g3
S'2017-10-01 23:12:20'
p186
sg5
F0.10738195942324463
sg6
S'16.png'
p187
sg8
(lp188
S'\xbb\xad\xcd\xbc\xba\xf3\xd5\xd2\xbd\xbb\xb5\xe3'
p189
asg13
(lp190
S'math'
p191
asg16
F0.5
sg17
F1506867140.211
sg18
I1
sg19
(lp192
(lp193
F1499170126.383
aS'2017-07-04 21:08:46'
p194
aI0
aa(lp195
F1506867140.211
ag186
aF0.5
aasbsI17
(imyfunction
mondai
p196
(dp197
g3
S'2017-10-01 23:20:09'
p198
sg5
F0.27549776792850605
sg6
S'17.jpg'
p199
sg8
(lp200
S'answer is 4'
p201
asg13
(lp202
S'chemistry'
p203
asg16
F1.0
sg17
F1506867609.907
sg18
I1
sg19
(lp204
(lp205
F1499177974.623
aS'2017-07-04 23:19:34'
p206
aI0
aa(lp207
F1506867609.907
ag198
aF1.0
aasbsI18
(imyfunction
mondai
p208
(dp209
g3
S'2017-10-01 23:48:15'
p210
sg5
F0.27729526132643356
sg6
S'18.jpg'
p211
sg8
(lp212
S'answer is 1'
p213
asg13
(lp214
g203
asg16
F1.0
sg17
F1506869295.572
sg18
I1
sg19
(lp215
(lp216
F1499178166.958
aS'2017-07-04 23:22:46'
p217
aI0
aa(lp218
F1506869295.572
ag210
aF1.0
aasbsI19
(imyfunction
mondai
p219
(dp220
g3
S'2017-10-02 00:09:31'
p221
sg5
F0.02181592478777205
sg6
S'19.jpg'
p222
sg8
(lp223
sg13
(lp224
g191
asg16
F-4.319757436694465e-39
sg17
F1506870571.946
sg18
I1
sg19
(lp225
(lp226
F1499238201.632
aS'2017-07-05 16:03:21'
p227
aI0
aa(lp228
F1506870571.946
ag221
aF0.0
aasbsI20
(imyfunction
mondai
p229
(dp230
g3
S'2017-10-02 23:12:05'
p231
sg5
F0.4645815404914965
sg6
S'20.jpg'
p232
sg8
(lp233
sg13
(lp234
g191
asg16
F1.2
sg17
F1506953525.889
sg18
I9
sg19
(lp235
(lp236
F1499509485.541
aS'2017-07-08 19:24:45'
p237
aF0.2
aa(lp238
F1506953525.889
ag231
aF1.0
aasbsI21
(imyfunction
mondai
p239
(dp240
g3
S'2017-10-03 01:07:00'
p241
sg5
F0.394116036740671
sg6
S'21.jpg'
p242
sg8
(lp243
sg13
(lp244
g203
asg16
F1.0
sg17
F1506960420.575
sg18
I2
sg19
(lp245
(lp246
F1499516368.113
aS'2017-07-08 21:19:28'
p247
aF0.5
aa(lp248
F1506960420.575
ag241
aF0.5
aasbsI22
(imyfunction
mondai
p249
(dp250
g3
S'2017-10-02 00:11:37'
p251
sg5
F0.02167076634915321
sg6
S'22.jpg'
p252
sg8
(lp253
sg13
(lp254
g203
asg16
F-1.2767226406916503e-37
sg17
F1506870697.511
sg18
I1
sg19
(lp255
(lp256
F1499530900.691
aS'2017-07-09 01:21:40'
p257
aI0
aa(lp258
F1506870697.511
ag251
aF0.0
aasbsI23
(imyfunction
mondai
p259
(dp260
g3
S'2017-10-02 00:16:00'
p261
sg5
F0.02173694849331958
sg6
S'23.jpg'
p262
sg8
(lp263
sg13
(lp264
g203
asg16
F-1.2735640649936628e-37
sg17
F1506870960.973
sg18
I1
sg19
(lp265
(lp266
F1499530950.137
aS'2017-07-09 01:22:30'
p267
aI0
aa(lp268
F1506870960.973
ag261
aF0.0
aasbsI24
(imyfunction
mondai
p269
(dp270
g3
S'2017-10-02 00:20:08'
p271
sg5
F0.27934943414153385
sg6
S'24.jpg'
p272
sg8
(lp273
sg13
(lp274
S'chemistry'
p275
asg16
F1.0
sg17
F1506871208.62
sg18
I1
sg19
(lp276
(lp277
F1499547136.371
aS'2017-07-09 05:52:16'
p278
aI0
aa(lp279
F1506871208.62
ag271
aF1.0
aasbsI25
(imyfunction
mondai
p280
(dp281
g3
S'2017-10-02 00:22:31'
p282
sg5
F0.021835335703740973
sg6
S'25.jpg'
p283
sg8
(lp284
sg13
(lp285
g275
asg16
F-1.5333235087123314e-37
sg17
F1506871351.16
sg18
I1
sg19
(lp286
(lp287
F1499547377.744
aS'2017-07-09 05:56:17'
p288
aI0
aa(lp289
F1506871351.16
ag282
aF0.0
aasbsI26
(imyfunction
mondai
p290
(dp291
g3
S'2017-10-02 00:25:09'
p292
sg5
F0.02187526740275531
sg6
S'26.jpg'
p293
sg8
(lp294
sg13
(lp295
g275
asg16
F-1.5313339114056128e-37
sg17
F1506871509.021
sg18
I1
sg19
(lp296
(lp297
F1499547423.422
aS'2017-07-09 05:57:03'
p298
aI0
aa(lp299
F1506871509.021
ag292
aF0.0
aasbsI27
(imyfunction
mondai
p300
(dp301
g3
S'2017-10-02 00:29:55'
p302
sg5
F0.2799821172676797
sg6
S'27.jpg'
p303
sg8
(lp304
sg13
(lp305
g275
asg16
F1.0
sg17
F1506871795.004
sg18
I1
sg19
(lp306
(lp307
F1499547463.182
aS'2017-07-09 05:57:43'
p308
aI0
aa(lp309
F1506871795.004
ag302
aF1.0
aasbsI28
(imyfunction
mondai
p310
(dp311
g3
S'2017-10-02 00:31:26'
p312
sg5
F0.28008045124613196
sg6
S'28.jpg'
p313
sg8
(lp314
sg13
(lp315
g275
asg16
F1.0
sg17
F1506871886.023
sg18
I1
sg19
(lp316
(lp317
F1499616196.736
aS'2017-07-10 01:03:16'
p318
aI0
aa(lp319
F1506871886.023
ag312
aF1.0
aasbsI29
(imyfunction
mondai
p320
(dp321
g3
S'2017-10-05 01:19:58'
p322
sg5
F0.8681462759086934
sg6
S'29.jpg'
p323
sg8
(lp324
sg13
(lp325
S'math'
p326
asg16
F1.55
sg17
F1507133998.435
sg18
I5
sg19
(lp327
(lp328
F1499616732.384
aS'2017-07-10 01:12:12'
p329
aF0.75
aa(lp330
F1507133998.435
ag322
aF0.8
aasbsI30
(imyfunction
mondai
p331
(dp332
g3
S'2017-10-02 00:32:05'
p333
sg5
F0.2801229992599475
sg6
S'30.png'
p334
sg8
(lp335
sg13
(lp336
g275
asg16
F1.0
sg17
F1506871925.396
sg18
I1
sg19
(lp337
(lp338
F1499680704.857
aS'2017-07-10 18:58:24'
p339
aI0
aa(lp340
F1506871925.396
ag333
aF1.0
aasbsI31
(imyfunction
mondai
p341
(dp342
g3
S'2017-10-03 00:04:06'
p343
sg5
F0.28909364622796363
sg6
S'31.jpg'
p344
sg8
(lp345
sg13
(lp346
g326
asg16
F0.75
sg17
F1506956646.764
sg18
I10
sg19
(lp347
(lp348
F1499797297.774
aS'2017-07-12 03:21:37'
p349
aF0.45
aa(lp350
F1506956646.764
ag343
aF0.3
aasbsI32
(imyfunction
mondai
p351
(dp352
g3
S'2017-10-02 22:55:47'
p353
sg5
F0.3028926372635568
sg6
S'32.jpg'
p354
sg8
(lp355
sg13
(lp356
g326
asg16
F0.8
sg17
F1506952547.162
sg18
I4
sg19
(lp357
(lp358
F1499797470.167
aS'2017-07-12 03:24:30'
p359
aF0.05
aa(lp360
F1506952547.162
ag353
aF0.75
aasbsI33
(imyfunction
mondai
p361
(dp362
g3
S'2017-10-02 22:33:57'
p363
sg5
F0.3814298451932792
sg6
S'33.jpg'
p364
sg8
(lp365
sg13
(lp366
S'physics'
p367
asg16
F1.0
sg17
F1506951237.584
sg18
I1
sg19
(lp368
(lp369
F1500064604.639
aS'2017-07-15 05:36:44'
p370
aI0
aa(lp371
F1506951237.584
ag363
aF1.0
aasbsI34
(imyfunction
mondai
p372
(dp373
g3
S'2017-10-03 01:17:02'
p374
sg5
F0.08297745580715536
sg6
S'34.jpg'
p375
sg8
(lp376
sg13
(lp377
S'physical'
p378
asg16
F0.1
sg17
F1506961022.079
sg18
I9
sg19
(lp379
(lp380
F1502980173.751
aS'2017-08-17 23:29:33'
p381
aF0.0
aa(lp382
F1506961022.079
ag374
aF0.1
aasbsI35
(imyfunction
mondai
p383
(dp384
g3
S'2017-08-18 01:12:53'
p385
sg5
F5.869788196521519e-13
sg6
S'35.jpeg'
p386
sg8
(lp387
sg13
(lp388
S'physical'
p389
asg16
F0.5
sg17
F1502986373.885
sg19
(lp390
(lp391
F1502986373.885
ag385
aF0.5
aasbsI36
(imyfunction
mondai
p392
(dp393
g3
S'2017-08-19 01:39:30'
p394
sg5
F7.947038289886258e-10
sg6
S'36.jpeg'
p395
sg8
(lp396
sg13
(lp397
S'physical'
p398
asg16
F0.75
sg17
F1503074370.742
sg19
(lp399
(lp400
F1503074370.742
ag394
aF0.75
aasbsI37
(imyfunction
mondai
p401
(dp402
g3
S'2017-08-19 02:05:31'
p403
sg5
F1.8795592366667036e-11
sg6
S'37.jpeg'
p404
sg8
(lp405
sg13
(lp406
S'physical'
p407
asg16
F0.6
sg17
F1503075931.234
sg19
(lp408
(lp409
F1503075931.234
ag403
aF0.6
aasbsI38
(imyfunction
mondai
p410
(dp411
g3
S'2017-08-19 03:13:53'
p412
sg5
F2.502657300364232e-09
sg6
S'38.jpeg'
p413
sg8
(lp414
sg13
(lp415
S'physical'
p416
asg16
F0.8
sg17
F1503080033.486
sg19
(lp417
(lp418
F1503080033.486
ag412
aF0.8
aasbsI39
(imyfunction
mondai
p419
(dp420
g3
S'2017-08-19 03:42:09'
p421
sg5
F8.249589321918886e-10
sg6
S'39.jpeg'
p422
sg8
(lp423
sg13
(lp424
S'physical'
p425
asg16
F0.75
sg17
F1503081729.58
sg19
(lp426
(lp427
F1503081729.58
ag421
aF0.75
aasbsI40
(imyfunction
mondai
p428
(dp429
g3
S'2017-08-19 03:59:08'
p430
sg5
F1.9879356301917105e-08
sg6
S'40.jpeg'
p431
sg8
(lp432
sg13
(lp433
S'physical'
p434
asg16
F0.9
sg17
F1503082748.531
sg19
(lp435
(lp436
F1503082748.531
ag430
aF0.9
aasbsI41
(imyfunction
mondai
p437
(dp438
g3
S'2017-08-20 18:55:50'
p439
sg5
F4.532406564969102e-11
sg6
S'41.jpg'
p440
sg8
(lp441
sg13
(lp442
S'physical'
p443
asg16
F0.6
sg17
F1503222950.967
sg19
(lp444
(lp445
F1503222950.967
ag439
aF0.6
aasbsI42
(imyfunction
mondai
p446
(dp447
g3
S'2017-10-05 01:55:43'
p448
sg5
F0.5470805573104159
sg6
S'42.jpg'
p449
sg8
(lp450
sg13
(lp451
S'physical'
p452
asg16
F0.19999999999999984
sg17
F1507136143.167
sg18
I4
sg19
(lp453
(lp454
F1503226800.354
aS'2017-08-20 20:00:00'
p455
aF0.2
aa(lp456
F1507136143.167
ag448
aF0.0
aasbsI43
(imyfunction
mondai
p457
(dp458
g3
S'2017-10-03 01:20:37'
p459
sg5
F0.06179892238216785
sg6
S'43.png'
p460
sg8
(lp461
sg13
(lp462
S'chemistry'
p463
asg16
F-1.8098353944148892e-19
sg17
F1506961237.95
sg18
I1
sg19
(lp464
(lp465
F1503232569.843
aS'2017-08-20 21:36:09'
p466
aF0.0
aa(lp467
F1506961237.95
ag459
aF0.0
aasbsI44
(imyfunction
mondai
p468
(dp469
g3
S'2017-08-20 21:55:40'
p470
sg5
F3.0511500945332458e-12
sg6
S'44.png'
p471
sg8
(lp472
sg13
(lp473
S'chemistry'
p474
asg16
F0.5
sg17
F1503233740.794
sg19
(lp475
(lp476
F1503233740.794
ag470
aF0.5
aasbsI45
(imyfunction
mondai
p477
(dp478
g3
S'2017-10-03 01:24:41'
p479
sg5
F0.06197371315095663
sg6
S'45.png'
p480
sg8
(lp481
sg13
(lp482
S'chemistry'
p483
asg16
F-2.0662316017965216e-19
sg17
F1506961481.977
sg18
I1
sg19
(lp484
(lp485
F1503244261.055
aS'2017-08-21 00:51:01'
p486
aF0.0
aa(lp487
F1506961481.977
ag479
aF0.0
aasbsI46
(imyfunction
mondai
p488
(dp489
g3
S'2017-08-21 01:10:28'
p490
sg5
F1.8873728469771768e-09
sg6
S'46.png'
p491
sg8
(lp492
S'answer is 7'
p493
asg13
(lp494
S'chemistry'
p495
asg16
F0.75
sg17
F1503245428.763
sg19
(lp496
(lp497
F1503245428.763
ag490
aF0.75
aasbsI47
(imyfunction
mondai
p498
(dp499
g3
S'2017-10-03 01:43:06'
p500
sg5
F0.06277117513420091
sg6
S'47.png'
p501
sg8
(lp502
sg13
(lp503
S'chemistry'
p504
asg16
F-2.0990110472453477e-19
sg17
F1506962586.658
sg18
I1
sg19
(lp505
(lp506
F1503246725.658
aS'2017-08-21 01:32:05'
p507
aF0.0
aa(lp508
F1506962586.658
ag500
aF0.0
aasbsI48
(imyfunction
mondai
p509
(dp510
g3
S'2017-10-03 01:46:05'
p511
sg5
F0.06290146517913328
sg6
S'48.png'
p512
sg8
(lp513
sg13
(lp514
S'chemistry'
p515
asg16
F-2.1089833665454635e-19
sg17
F1506962765.807
sg18
I1
sg19
(lp516
(lp517
F1503247314.318
aS'2017-08-21 01:41:54'
p518
aF0.0
aa(lp519
F1506962765.807
ag511
aF0.0
aasbsI49
(imyfunction
mondai
p520
(dp521
g3
S'2017-10-03 02:01:29'
p522
sg5
F0.3991187063840478
sg6
S'49.png'
p523
sg8
(lp524
sg13
(lp525
S'chemistry'
p526
asg16
F1.0
sg17
F1506963689.996
sg18
I0
sg19
(lp527
(lp528
F1503255138.538
aS'2017-08-21 03:52:18'
p529
aF0.0
aa(lp530
F1506963689.996
ag522
aF1.0
aasbsI50
(imyfunction
mondai
p531
(dp532
g3
S'2017-10-03 02:28:01'
p533
sg5
F0.06475973824341702
sg6
S'50.png'
p534
sg8
(lp535
sg13
(lp536
S'chemistry'
p537
asg16
F-2.621417900670252e-19
sg17
F1506965281.311
sg18
I1
sg19
(lp538
(lp539
F1503268622.629
aS'2017-08-21 07:37:02'
p540
aF0.0
aa(lp541
F1506965281.311
ag533
aF0.0
aasbsI51
(imyfunction
mondai
p542
(dp543
g3
S'2017-08-21 07:51:15'
p544
sg5
F3.874080349676265e-12
sg6
S'51.jpg'
p545
sg8
(lp546
sg13
(lp547
S'chemistry'
p548
asg16
F0.5
sg17
F1503269475.48
sg19
(lp549
(lp550
F1503269475.48
ag544
aF0.5
aasbsI52
(imyfunction
mondai
p551
(dp552
g3
S'2017-08-21 07:57:49'
p553
sg5
F6.920969836525165e-10
sg6
S'52.jpg'
p554
sg8
(lp555
sg13
(lp556
S'chemistry'
p557
asg16
F0.7
sg17
F1503269869.663
sg19
(lp558
(lp559
F1503269869.663
ag553
aF0.7
aasbsI53
(imyfunction
mondai
p560
(dp561
g3
S'2017-08-22 02:20:47'
p562
sg5
F1.4126505007477042e-12
sg6
S'53.png'
p563
sg8
(lp564
sg13
(lp565
S'math'
p566
asg16
F0.45
sg17
F1503336047.871
sg19
(lp567
(lp568
F1503336047.871
ag562
aF0.45
aasbsI54
(imyfunction
mondai
p569
(dp570
g3
S'2017-10-03 22:48:41'
p571
sg5
F0.3778947886906239
sg6
S'54.png'
p572
sg8
(lp573
sg13
(lp574
S'math'
p575
asg16
F0.6
sg17
F1507038521.394
sg18
I6
sg19
(lp576
(lp577
F1503352854.527
aS'2017-08-22 07:00:54'
p578
aF0.1
aa(lp579
F1507038521.394
ag571
aF0.5
aasbsI55
(imyfunction
mondai
p580
(dp581
g3
S'2017-10-03 12:44:19'
p582
sg5
F0.36443497888117304
sg6
S'55.jpg'
p583
sg8
(lp584
sg13
(lp585
S'physical'
p586
asg16
F0.75
sg17
F1507002259.751
sg18
I4
sg19
(lp587
(lp588
F1503367103.179
aS'2017-08-22 10:58:23'
p589
aF0.0
aa(lp590
F1507002259.751
ag582
aF0.75
aasbsI56
(imyfunction
mondai
p591
(dp592
g3
S'2017-10-05 20:11:01'
p593
sg5
F3.8535786213249736e-13
sg6
S'56.png'
p594
sg8
(lp595
sg13
(lp596
S'chemistry'
p597
asg16
F0.39999999999961466
sg17
F1507201861.287
sg18
I5
sg19
(lp598
(lp599
F1503369253.09
aS'2017-08-22 11:34:13'
p600
aF0.4
aa(lp601
F1507201861.287
ag593
aF0.0
aasbsI57
(imyfunction
mondai
p602
(dp603
g3
S'2017-08-22 11:59:34'
p604
sg5
F7.623350463134866e-12
sg6
S'57.png'
p605
sg8
(lp606
sg13
(lp607
S'chemistry'
p608
asg16
F0.5
sg17
F1503370774.163
sg19
(lp609
(lp610
F1503370774.163
ag604
aF0.5
aasbsI58
(imyfunction
mondai
p611
(dp612
g3
S'2017-08-22 22:31:10'
p613
sg5
F9.820288638395906e-12
sg6
S'58.png'
p614
sg8
(lp615
sg13
(lp616
S'chemistry'
p617
asg16
F0.5
sg17
F1503408670.508
sg19
(lp618
(lp619
F1503408670.508
ag613
aF0.5
aasbsI59
(imyfunction
mondai
p620
(dp621
g3
S'2017-08-23 06:11:09'
p622
sg5
F1.618687652022825e-10
sg6
S'59.png'
p623
sg8
(lp624
sg13
(lp625
S'chemistry'
p626
asg16
F0.6
sg17
F1503436269.897
sg19
(lp627
(lp628
F1503436269.897
ag622
aF0.6
aasbsI60
(imyfunction
mondai
p629
(dp630
g3
S'2017-10-03 22:14:47'
p631
sg5
F0.14764790310520245
sg6
S'60.png'
p632
sg8
(lp633
sg13
(lp634
S'chemistry'
p635
asg16
F-2.3240177672528205e-18
sg17
F1507036487.553
sg18
I1
sg19
(lp636
(lp637
F1503528368.119
aS'2017-08-24 07:46:08'
p638
aF0.0
aa(lp639
F1507036487.553
ag631
aF0.0
aasbsI61
(imyfunction
mondai
p640
(dp641
g3
S'2017-10-03 22:53:48'
p642
sg5
F0.533331488731838
sg6
S'61.png'
p643
sg8
(lp644
sg13
(lp645
S'chemistry'
p646
asg16
F1.0
sg17
F1507038828.001
sg18
I1
sg19
(lp647
(lp648
F1503759535.555
aS'2017-08-26 23:58:55'
p649
aF0.0
aa(lp650
F1507038828.001
ag642
aF1.0
aasbsI62
(imyfunction
mondai
p651
(dp652
g3
S'2017-10-03 22:58:11'
p653
sg5
F0.15216514881502277
sg6
S'62.png'
p654
sg8
(lp655
S'\xa5\xa6 u'
p656
asg13
(lp657
S'chemistry'
p658
asg16
F-3.2885428981875427e-17
sg17
F1507039091.306
sg18
I1
sg19
(lp659
(lp660
F1503759908.733
aS'2017-08-27 00:05:08'
p661
aF0.0
aa(lp662
F1507039091.306
ag653
aF0.0
aasbsI63
(imyfunction
mondai
p663
(dp664
g3
S'2017-10-03 23:06:21'
p665
sg5
F0.15303117107322567
sg6
S'63.png'
p666
sg8
(lp667
sg13
(lp668
S'chemistry'
p669
asg16
F-3.2900559759003024e-17
sg17
F1507039581.643
sg18
I1
sg19
(lp670
(lp671
F1503760438.814
aS'2017-08-27 00:13:58'
p672
aF0.0
aa(lp673
F1507039581.643
ag665
aF0.0
aasbsI64
(imyfunction
mondai
p674
(dp675
g3
S'2017-10-03 23:17:32'
p676
sg5
F0.1542246262469454
sg6
S'64.png'
p677
sg8
(lp678
sg13
(lp679
S'chemistry'
p680
asg16
F-3.294906211238578e-17
sg17
F1507040252.843
sg18
I1
sg19
(lp681
(lp682
F1503761237.292
aS'2017-08-27 00:27:17'
p683
aF0.0
aa(lp684
F1507040252.843
ag676
aF0.0
aasbsI65
(imyfunction
mondai
p685
(dp686
g3
S'2017-10-04 01:24:08'
p687
sg5
F0.16839598009793005
sg6
S'65.png'
p688
sg8
(lp689
sg13
(lp690
S'chemistry'
p691
asg16
F-3.088343801126597e-17
sg17
F1507047848.101
sg18
I1
sg19
(lp692
(lp693
F1503763238.777
aS'2017-08-27 01:00:38'
p694
aF0.0
aa(lp695
F1507047848.101
ag687
aF0.0
aasbsI66
(imyfunction
mondai
p696
(dp697
g3
S'2017-08-27 01:18:25'
p698
sg5
F6.686200238104231e-08
sg6
S'66.png'
p699
sg8
(lp700
sg13
(lp701
S'chemistry'
p702
asg16
F0.8
sg17
F1503764305.612
sg19
(lp703
(lp704
F1503764305.612
ag698
aF0.8
aasbsI67
(imyfunction
mondai
p705
(dp706
g3
S'2017-08-27 04:40:16'
p707
sg5
F1.240495216704555e-09
sg6
S'67.png'
p708
sg8
(lp709
sg13
(lp710
S'chemistry'
p711
asg16
F0.6
sg17
F1503776416.902
sg19
(lp712
(lp713
F1503776416.902
ag707
aF0.6
aasbsI68
(imyfunction
mondai
p714
(dp715
g3
S'2017-10-04 01:29:36'
p716
sg5
F0.5529176008562576
sg6
S'68.png'
p717
sg8
(lp718
sg13
(lp719
S'chemistry'
p720
asg16
F1.0
sg17
F1507048176.263
sg18
I2
sg19
(lp721
(lp722
F1503779158.5
aS'2017-08-27 05:25:58'
p723
aF0.0
aa(lp724
F1507048176.263
ag716
aF1.0
aasbsI69
(imyfunction
mondai
p725
(dp726
g3
S'2017-10-05 01:03:07'
p727
sg5
F0.4511168051800238
sg6
S'69.png'
p728
sg8
(lp729
sg13
(lp730
S'chemistry'
p731
asg16
F-1.475936158364671e-17
sg17
F1507132987.358
sg18
I1
sg19
(lp732
(lp733
F1503784585.243
aS'2017-08-27 06:56:25'
p734
aF0.0
aa(lp735
F1507132987.358
ag727
aF0.0
aasbsI70
(imyfunction
mondai
p736
(dp737
g3
S'2017-10-05 01:36:08'
p738
sg5
F0.4615778667640916
sg6
S'70.png'
p739
sg8
(lp740
sg13
(lp741
S'chemistry'
p742
asg16
F-3.8906083719910555e-17
sg17
F1507134968.032
sg18
I2
sg19
(lp743
(lp744
F1503870311.11
aS'2017-08-28 06:45:11'
p745
aF0.0
aa(lp746
F1507134968.032
ag738
aF0.0
aasbsI71
(imyfunction
mondai
p747
(dp748
g3
S'2017-10-05 01:41:30'
p749
sg5
F0.7737883634631872
sg6
S'71.jpg'
p750
sg8
(lp751
sg13
(lp752
S'chemistry'
p753
asg16
F1.0
sg17
F1507135290.64
sg18
I1
sg19
(lp754
(lp755
F1503879436.234
aS'2017-08-28 09:17:16'
p756
aF0.0
aa(lp757
F1507135290.64
ag749
aF1.0
aasbsI72
(imyfunction
mondai
p758
(dp759
g3
S'2017-10-05 12:25:33'
p760
sg5
F0.8302934148020923
sg6
S'72.png'
p761
sg8
(lp762
sg13
(lp763
S'chemistry'
p764
asg16
F0.4999999999999999
sg17
F1507173933.085
sg18
I2
sg19
(lp765
(lp766
F1504016042.217
aS'2017-08-29 23:14:02'
p767
aF0.0
aa(lp768
F1507173933.085
ag760
aF0.5
aasbsI73
(imyfunction
mondai
p769
(dp770
g3
S'2017-10-05 12:40:05'
p771
sg5
F0.9012172378883115
sg6
S'73.png'
p772
sg8
(lp773
sg13
(lp774
S'chemistry'
p775
asg16
F0.9999999999999999
sg17
F1507174805.144
sg18
I2
sg19
(lp776
(lp777
F1504016537.49
aS'2017-08-29 23:22:17'
p778
aF0.0
aa(lp779
F1507174805.144
ag771
aF1.0
aasbsI74
(imyfunction
mondai
p780
(dp781
g3
S'2017-10-05 13:00:30'
p782
sg5
F0.7424146008895834
sg6
S'74.jpg'
p783
sg8
(lp784
sg13
(lp785
S'chemistry'
p786
asg16
F-1.3365815349420956e-16
sg17
F1507176030.244
sg18
I1
sg19
(lp787
(lp788
F1504018002.57
aS'2017-08-29 23:46:42'
p789
aF0.0
aa(lp790
F1507176030.244
ag782
aF0.0
aasbsI75
(imyfunction
mondai
p791
(dp792
g3
S'2017-10-05 13:11:09'
p793
sg5
F0.7479309327217724
sg6
S'75.jpg'
p794
sg8
(lp795
sg13
(lp796
S'chemistry'
p797
asg16
F-1.3632074025443876e-16
sg17
F1507176669.845
sg18
I2
sg19
(lp798
(lp799
F1504020346.415
aS'2017-08-30 00:25:46'
p800
aF0.0
aa(lp801
F1507176669.845
ag793
aF0.0
aasbsI76
(imyfunction
mondai
p802
(dp803
g3
S'2017-10-05 13:13:53'
p804
sg5
F0.9082958256012174
sg6
S'76.png'
p805
sg8
(lp806
sg13
(lp807
S'chemistry'
p808
asg16
F0.9999999999999982
sg17
F1507176833.07
sg18
I1
sg19
(lp809
(lp810
F1504242498.728
aS'2017-09-01 14:08:18'
p811
aF0.0
aa(lp812
F1507176833.07
ag804
aF1.0
aasbsI77
(imyfunction
mondai
p813
(dp814
g3
S'2017-10-05 13:15:17'
p815
sg5
F0.7500797443412014
sg6
S'77.jpg'
p816
sg8
(lp817
sg13
(lp818
S'chemistry'
p819
asg16
F-1.785161182950008e-15
sg17
F1507176917.717
sg18
I1
sg19
(lp820
(lp821
F1504242836.989
aS'2017-09-01 14:13:56'
p822
aF0.0
aa(lp823
F1507176917.717
ag815
aF0.0
aasbsI78
(imyfunction
mondai
p824
(dp825
g3
S'2017-10-05 13:18:40'
p826
sg5
F0.9093047094987594
sg6
S'78.png'
p827
sg8
(lp828
sg13
(lp829
S'chemistry'
p830
asg16
F0.9999999999999982
sg17
F1507177120.815
sg18
I2
sg19
(lp831
(lp832
F1504243511.051
aS'2017-09-01 14:25:11'
p833
aF0.0
aa(lp834
F1507177120.815
ag826
aF1.0
aasbsI79
(imyfunction
mondai
p835
(dp836
g3
S'2017-10-05 13:23:50'
p837
sg5
F0.9103931126182931
sg6
S'79.jpg'
p838
sg8
(lp839
sg13
(lp840
S'chemistry'
p841
asg16
F0.9999999999999982
sg17
F1507177430.882
sg18
I1
sg19
(lp842
(lp843
F1504244940.738
aS'2017-09-01 14:49:00'
p844
aF0.0
aa(lp845
F1507177430.882
ag837
aF1.0
aasbsI80
(imyfunction
mondai
p846
(dp847
g3
S'2017-10-05 13:31:41'
p848
sg5
F0.9120478104772143
sg6
S'80.jpg'
p849
sg8
(lp850
sg13
(lp851
S'chemistry'
p852
asg16
F0.9999999999999981
sg17
F1507177901.567
sg18
I1
sg19
(lp853
(lp854
F1504246658.078
aS'2017-09-01 15:17:38'
p855
aF0.0
aa(lp856
F1507177901.567
ag848
aF1.0
aasbsI81
(imyfunction
mondai
p857
(dp858
g3
S'2017-10-05 13:40:26'
p859
sg5
F0.7632928238756129
sg6
S'81.png'
p860
sg8
(lp861
sg13
(lp862
S'chemistry'
p863
asg16
F-2.5723812036960078e-15
sg17
F1507178426.452
sg18
I1
sg19
(lp864
(lp865
F1504275909.657
aS'2017-09-01 23:25:09'
p866
aF0.0
aa(lp867
F1507178426.452
ag859
aF0.0
aasbsI82
(imyfunction
mondai
p868
(dp869
g3
S'2017-10-05 13:45:04'
p870
sg5
F0.7657574419429006
sg6
S'82.png'
p871
sg8
(lp872
sg13
(lp873
S'chemistry'
p874
asg16
F-2.623170979143293e-15
sg17
F1507178704.982
sg18
I1
sg19
(lp875
(lp876
F1504277877.469
aS'2017-09-01 23:57:57'
p877
aF0.0
aa(lp878
F1507178704.982
ag870
aF0.0
aasbsI83
(imyfunction
mondai
p879
(dp880
g3
S'2017-10-05 13:51:58'
p881
sg5
F0.7694279495017856
sg6
S'83.png'
p882
sg8
(lp883
sg13
(lp884
S'chemistry'
p885
asg16
F-2.6309049855391633e-15
sg17
F1507179118.134
sg18
I1
sg19
(lp886
(lp887
F1504278544.983
aS'2017-09-02 00:09:04'
p888
aF0.0
aa(lp889
F1507179118.134
ag881
aF0.0
aasbsI84
(imyfunction
mondai
p890
(dp891
g3
S'2017-09-02 01:49:47'
p892
sg5
F3.420647037464037e-09
sg6
S'84.png'
p893
sg8
(lp894
sg13
(lp895
S'chemistry'
p896
asg16
F0.5
sg17
F1504284587.342
sg18
I4
sg19
(lp897
(lp898
F1504284587.342
ag892
aF0.5
aasbsI85
(imyfunction
mondai
p899
(dp900
g3
S'2017-09-02 02:30:36'
p901
sg5
F3.4771001912380674e-09
sg6
S'85.jpg'
p902
sg8
(lp903
sg13
(lp904
S'chemistry'
p905
asg16
F0.5
sg17
F1504287036.941
sg18
I2
sg19
(lp906
(lp907
F1504287036.941
ag901
aF0.5
aasbsI86
(imyfunction
mondai
p908
(dp909
g3
S'2017-09-02 02:45:11'
p910
sg5
F2.92275871373211e-11
sg6
S'86.png'
p911
sg8
(lp912
sg13
(lp913
S'chemistry'
p914
asg16
F0.3
sg17
F1504287911.136
sg18
I6
sg19
(lp915
(lp916
F1504287911.136
ag910
aF0.3
aasbsI87
(imyfunction
mondai
p917
(dp918
g3
S'2017-10-05 14:00:49'
p919
sg5
F0.7741741626557398
sg6
S'87.png'
p920
sg8
(lp921
sg13
(lp922
S'chemistry'
p923
asg16
F-2.9523154222679466e-15
sg17
F1507179649.455
sg18
I1
sg19
(lp924
(lp925
F1504289034.929
aS'2017-09-02 03:03:54'
p926
aF0.0
aa(lp927
F1507179649.455
ag919
aF0.0
aasbsI88
(imyfunction
mondai
p928
(dp929
g3
S'2017-10-05 14:55:48'
p930
sg5
F0.804302182542681
sg6
S'88.png'
p931
sg8
(lp932
sg13
(lp933
S'chemistry'
p934
asg16
F-3.0461961254892452e-15
sg17
F1507182948.05
sg18
I2
sg19
(lp935
(lp936
F1504295038.18
aS'2017-09-02 04:43:58'
p937
aF0.0
aa(lp938
F1507182948.05
ag930
aF0.0
aasbsI89
(imyfunction
mondai
p939
(dp940
g3
S'2017-10-05 15:18:58'
p941
sg5
F0.8173463462466417
sg6
S'89.jpg'
p942
sg8
(lp943
sg13
(lp944
S'chemistry'
p945
asg16
F-4.159729661901105e-15
sg17
F1507184338.043
sg18
I3
sg19
(lp946
(lp947
F1504323346.65
aS'2017-09-02 12:35:46'
p948
aF0.0
aa(lp949
F1507184338.043
ag941
aF0.0
aasbsI90
(imyfunction
mondai
p950
(dp951
g3
S'2017-10-05 15:33:09'
p952
sg5
F0.9380557335105758
sg6
S'90.png'
p953
sg8
(lp954
sg13
(lp955
S'chemistry'
p956
asg16
F0.9999999999999959
sg17
F1507185189.481
sg18
I1
sg19
(lp957
(lp958
F1504323686.397
aS'2017-09-02 12:41:26'
p959
aF0.0
aa(lp960
F1507185189.481
ag952
aF1.0
aasbsI91
(imyfunction
mondai
p961
(dp962
g3
S'2017-10-05 15:34:52'
p963
sg5
F0.9384288404646712
sg6
S'91.jpg'
p964
sg8
(lp965
sg13
(lp966
S'chemistry'
p967
asg16
F0.9999999999999959
sg17
F1507185292.556
sg18
I1
sg19
(lp968
(lp969
F1504324204.896
aS'2017-09-02 12:50:04'
p970
aF0.0
aa(lp971
F1507185292.556
ag963
aF1.0
aasbsI92
(imyfunction
mondai
p972
(dp973
g3
S'2017-10-05 15:47:43'
p974
sg5
F0.8338327837439506
sg6
S'92.png'
p975
sg8
(lp976
sg13
(lp977
S'chemistry'
p978
asg16
F-4.178117625193385e-15
sg17
F1507186063.447
sg18
I1
sg19
(lp979
(lp980
F1504325453.141
aS'2017-09-02 13:10:53'
p981
aF0.0
aa(lp982
F1507186063.447
ag974
aF0.0
aasbsI93
(imyfunction
mondai
p983
(dp984
g3
S'2017-10-05 15:53:41'
p985
sg5
F0.8372960676087696
sg6
S'93.png'
p986
sg8
(lp987
sg13
(lp988
S'chemistry'
p989
asg16
F-4.260929810562285e-15
sg17
F1507186421.562
sg18
I1
sg19
(lp990
(lp991
F1504327506.993
aS'2017-09-02 13:45:06'
p992
aF0.0
aa(lp993
F1507186421.562
ag985
aF0.0
aasbsI94
(imyfunction
mondai
p994
(dp995
g3
S'2017-10-05 16:02:25'
p996
sg5
F0.9444342343967858
sg6
S'94.jpg'
p997
sg8
(lp998
sg13
(lp999
S'chemistry'
p1000
asg16
F0.9999999999999957
sg17
F1507186945.999
sg18
I3
sg19
(lp1001
(lp1002
F1504330005.843
aS'2017-09-02 14:26:45'
p1003
aF0.0
aa(lp1004
F1507186945.999
ag996
aF1.0
aasbsI95
(imyfunction
mondai
p1005
(dp1006
g3
S'2017-10-05 18:57:10'
p1007
sg5
F0.983418863029188
sg6
S'95.png'
p1008
sg8
(lp1009
sg13
(lp1010
S'chemistry'
p1011
asg16
F0.9999999999999961
sg17
F1507197430.401
sg18
I1
sg19
(lp1012
(lp1013
F1504330578.003
aS'2017-09-02 14:36:18'
p1014
aF0.0
aa(lp1015
F1507197430.401
ag1007
aF1.0
aasbsI96
(imyfunction
mondai
p1016
(dp1017
g3
S'2017-09-02 14:51:21'
p1018
sg5
F1.089845748218625e-11
sg6
S'96.png'
p1019
sg8
(lp1020
sg13
(lp1021
S'chemistry'
p1022
asg16
F0.25
sg17
F1504331481.399
sg18
I4
sg19
(lp1023
(lp1024
F1504331481.399
ag1018
aF0.25
aasbsI97
(imyfunction
mondai
p1025
(dp1026
g3
S'2017-10-05 19:04:08'
p1027
sg5
F0.9556929831743338
sg6
S'97.png'
p1028
sg8
(lp1029
sg13
(lp1030
S'chemistry'
p1031
asg16
F-3.9558086867684985e-15
sg17
F1507197848.738
sg18
I1
sg19
(lp1032
(lp1033
F1504332514.446
aS'2017-09-02 15:08:34'
p1034
aF0.0
aa(lp1035
F1507197848.738
ag1027
aF0.0
aasbsI98
(imyfunction
mondai
p1036
(dp1037
g3
S'2017-09-05 02:26:32'
p1038
sg5
F7.233411983003541e-11
sg6
S'98.jpeg'
p1039
sg8
(lp1040
sg13
(lp1041
S'physical'
p1042
asg16
F0.25
sg17
F1504545992.782
sg18
I4
sg19
(lp1043
(lp1044
F1504545992.782
ag1038
aF0.25
aasbsI99
(imyfunction
mondai
p1045
(dp1046
g3
S'2017-09-05 03:10:13'
p1047
sg5
F4.648558062301841e-14
sg6
S'99.jpeg'
p1048
sg8
(lp1049
sg13
(lp1050
S'physical'
p1051
asg16
F0.0
sg17
F1504548613.492
sg18
I2
sg19
(lp1052
(lp1053
F1504548613.492
ag1047
aF0.0
aasbsI100
(imyfunction
mondai
p1054
(dp1055
g3
S'2017-09-05 03:23:51'
p1056
sg5
F2.0171854950335957e-08
sg6
S'100.jpeg'
p1057
sg8
(lp1058
sg13
(lp1059
S'physical'
p1060
asg16
F0.5
sg17
F1504549431.259
sg18
I2
sg19
(lp1061
(lp1062
F1504549431.259
ag1056
aF0.5
aasbsI101
(imyfunction
mondai
p1063
(dp1064
g3
S'2017-09-05 05:45:16'
p1065
sg5
F5.177006514964304e-14
sg6
S'101.jpeg'
p1066
sg8
(lp1067
sg13
(lp1068
S'physical'
p1069
asg16
F0.0
sg17
F1504557916.173
sg18
I3
sg19
(lp1070
(lp1071
F1504557916.173
ag1065
aF0.0
aasbsI102
(imyfunction
mondai
p1072
(dp1073
g3
S'2017-09-05 06:53:18'
p1074
sg5
F5.427473206700094e-14
sg6
S'102.jpeg'
p1075
sg8
(lp1076
sg13
(lp1077
S'physical'
p1078
asg16
F0.0
sg17
F1504561998.287
sg18
I1
sg19
(lp1079
(lp1080
F1504561998.287
ag1074
aF0.0
aasbsI103
(imyfunction
mondai
p1081
(dp1082
g3
S'2017-09-05 08:02:10'
p1083
sg5
F5.693348538794339e-14
sg6
S'103.png'
p1084
sg8
(lp1085
sg13
(lp1086
S'physical'
p1087
asg16
F0.0
sg17
F1504566130.357
sg18
I3
sg19
(lp1088
(lp1089
F1504566130.357
ag1083
aF0.0
aasbsI104
(imyfunction
mondai
p1090
(dp1091
g3
S'2017-09-05 11:45:10'
p1092
sg5
F6.646962801569278e-14
sg6
S'104.jpg'
p1093
sg8
(lp1094
sg13
(lp1095
S'physical'
p1096
asg16
F0.0
sg17
F1504579510.387
sg18
I1
sg19
(lp1097
(lp1098
F1504579510.387
ag1092
aF0.0
aasbsI105
(imyfunction
mondai
p1099
(dp1100
g3
S'2017-09-23 10:18:16'
p1101
sg5
F4.108819664548256e-06
sg6
S'105.jpg'
p1102
sg8
(lp1103
sg13
(lp1104
S'physical'
p1105
asg16
F0.0
sg17
F1506129496.71
sg18
I4
sg19
(lp1106
(lp1107
F1506129496.71
ag1101
aF0.0
aasbsI106
(imyfunction
mondai
p1108
(dp1109
g3
S'2017-09-23 11:11:53'
p1110
sg5
F4.264676868128144e-06
sg6
S'106.jpg'
p1111
sg8
(lp1112
sg13
(lp1113
S'physical'
p1114
asg16
F0.0
sg17
F1506132713.435
sg18
I2
sg19
(lp1115
(lp1116
F1506132713.435
ag1110
aF0.0
aasbsI107
(imyfunction
mondai
p1117
(dp1118
g3
S'2017-09-23 11:39:38'
p1119
sg5
F4.347668098437856e-06
sg6
S'107.jpg'
p1120
sg8
(lp1121
sg13
(lp1122
S'physical'
p1123
asg16
F0.0
sg17
F1506134378.641
sg18
I2
sg19
(lp1124
(lp1125
F1506134378.641
ag1119
aF0.0
aasbsI108
(imyfunction
mondai
p1126
(dp1127
g3
S'2017-09-23 11:52:35'
p1128
sg5
F4.386911014441664e-06
sg6
S'108.jpg'
p1129
sg8
(lp1130
sg13
(lp1131
S'physical'
p1132
asg16
F0.0
sg17
F1506135155.006
sg18
I1
sg19
(lp1133
(lp1134
F1506135155.006
ag1128
aF0.0
aasbsI109
(imyfunction
mondai
p1135
(dp1136
g3
S'2017-09-23 12:33:50'
p1137
sg5
F4.514419152452963e-06
sg6
S'109.png'
p1138
sg8
(lp1139
sg13
(lp1140
S'physical'
p1141
asg16
F0.0
sg17
F1506137630.469
sg18
I2
sg19
(lp1142
(lp1143
F1506137630.469
ag1137
aF0.0
aasbsI110
(imyfunction
mondai
p1144
(dp1145
g3
S'2017-09-23 12:51:11'
p1146
sg5
F4.5691600913133204e-06
sg6
S'110.jpg'
p1147
sg8
(lp1148
sg13
(lp1149
S'physical'
p1150
asg16
F0.0
sg17
F1506138671.837
sg18
I2
sg19
(lp1151
(lp1152
F1506138671.837
ag1146
aF0.0
aasbsI111
(imyfunction
mondai
p1153
(dp1154
g3
S'2017-09-23 15:11:03'
p1155
sg5
F5.03523611131646e-06
sg6
S'111.jpg'
p1156
sg8
(lp1157
sg13
(lp1158
S'physical'
p1159
asg16
F0.0
sg17
F1506147063.957
sg18
I2
sg19
(lp1160
(lp1161
F1506147063.957
ag1155
aF0.0
aasbsI112
(imyfunction
mondai
p1162
(dp1163
g3
S'2017-09-23 15:21:22'
p1164
sg5
F0.0008770091211721007
sg6
S'112.png'
p1165
sg8
(lp1166
sg13
(lp1167
S'physical'
p1168
asg16
F0.5
sg17
F1506147682.265
sg18
I4
sg19
(lp1169
(lp1170
F1506147682.265
ag1164
aF0.5
aasbsI113
(imyfunction
mondai
p1171
(dp1172
g3
S'2017-09-23 15:34:50'
p1173
sg5
F5.119039122722425e-06
sg6
S'113.png'
p1174
sg8
(lp1175
sg13
(lp1176
S'physical'
p1177
asg16
F0.0
sg17
F1506148490.104
sg18
I1
sg19
(lp1178
(lp1179
F1506148490.104
ag1173
aF0.0
aasbsI114
(imyfunction
mondai
p1180
(dp1181
g3
S'2017-09-23 17:33:58'
p1182
sg5
F5.560577179464305e-06
sg6
S'114.jpg'
p1183
sg8
(lp1184
sg13
(lp1185
S'physical'
p1186
asg16
F0.0
sg17
F1506155638.422
sg18
I1
sg19
(lp1187
(lp1188
F1506155638.422
ag1182
aF0.0
aasbsI115
(imyfunction
mondai
p1189
(dp1190
g3
S'2017-09-23 18:07:32'
p1191
sg5
F5.691716595297031e-06
sg6
S'115.jpg'
p1192
sg8
(lp1193
sg13
(lp1194
S'physical'
p1195
asg16
F0.0
sg17
F1506157652.404
sg18
I2
sg19
(lp1196
(lp1197
F1506157652.404
ag1191
aF0.0
aasbsI116
(imyfunction
mondai
p1198
(dp1199
g3
S'2017-09-23 18:34:12'
p1200
sg5
F5.798101625139391e-06
sg6
S'116.jpg'
p1201
sg8
(lp1202
sg13
(lp1203
S'physical'
p1204
asg16
F0.0
sg17
F1506159252.417
sg18
I1
sg19
(lp1205
(lp1206
F1506159252.417
ag1200
aF0.0
aasbsI117
(imyfunction
mondai
p1207
(dp1208
g3
S'2017-09-23 19:23:54'
p1209
sg5
F6.001712401738358e-06
sg6
S'117.png'
p1210
sg8
(lp1211
sg13
(lp1212
S'physical'
p1213
asg16
F0.0
sg17
F1506162234.45
sg18
I2
sg19
(lp1214
(lp1215
F1506162234.45
ag1209
aF0.0
aasbsI118
(imyfunction
mondai
p1216
(dp1217
g3
S'2017-09-25 08:10:08'
p1218
sg5
F2.777530019622322e-05
sg6
S'118.jpg'
p1219
sg8
(lp1220
sg13
(lp1221
S'physical'
p1222
asg16
F0.0
sg17
F1506294608.09
sg18
I1
sg19
(lp1223
(lp1224
F1506294608.09
ag1218
aF0.0
aasbsI119
(imyfunction
mondai
p1225
(dp1226
g3
S'2017-09-25 08:31:45'
p1227
sg5
F2.8195619650971773e-05
sg6
S'119.jpg'
p1228
sg8
(lp1229
sg13
(lp1230
S'physical'
p1231
asg16
F0.0
sg17
F1506295905.774
sg18
I1
sg19
(lp1232
(lp1233
F1506295905.774
ag1227
aF0.0
aasbsI120
(imyfunction
mondai
p1234
(dp1235
g3
S'2017-09-25 17:16:58'
p1236
sg5
F4.060521454645529e-05
sg6
S'120.jpg'
p1237
sg8
(lp1238
sg13
(lp1239
S'physical'
p1240
asg16
F0.0
sg17
F1506327418.434
sg18
I2
sg19
(lp1241
(lp1242
F1506327418.434
ag1236
aF0.0
aasbsI121
(imyfunction
mondai
p1243
(dp1244
g3
S'2017-09-25 18:41:13'
p1245
sg5
F4.305172724678721e-05
sg6
S'121.jpg'
p1246
sg8
(lp1247
sg13
(lp1248
S'physical'
p1249
asg16
F0.0
sg17
F1506332473.34
sg18
I2
sg19
(lp1250
(lp1251
F1506332473.34
ag1245
aF0.0
aasbsI122
(imyfunction
mondai
p1252
(dp1253
g3
S'2017-09-25 19:07:57'
p1254
sg5
F4.385829549029378e-05
sg6
S'122.jpg'
p1255
sg8
(lp1256
sg13
(lp1257
S'physical'
p1258
asg16
F0.0
sg17
F1506334077.056
sg18
I3
sg19
(lp1259
(lp1260
F1506334077.056
ag1254
aF0.0
aasbsI123
(imyfunction
mondai
p1261
(dp1262
g3
S'2017-09-25 19:31:39'
p1263
sg5
F4.458615384368719e-05
sg6
S'123.jpg'
p1264
sg8
(lp1265
sg13
(lp1266
S'physical'
p1267
asg16
F0.0
sg17
F1506335499.155
sg18
I2
sg19
(lp1268
(lp1269
F1506335499.155
ag1263
aF0.0
aasbsI124
(imyfunction
mondai
p1270
(dp1271
g3
S'2017-09-26 05:15:57'
p1272
sg5
F6.689936774212271e-05
sg6
S'124.jpg'
p1273
sg8
(lp1274
sg13
(lp1275
S'physical'
p1276
asg16
F0.0
sg17
F1506370557.351
sg18
I1
sg19
(lp1277
(lp1278
F1506370557.351
ag1272
aF0.0
aasbsI125
(imyfunction
mondai
p1279
(dp1280
g3
S'2017-09-26 05:49:46'
p1281
sg5
F6.848883130146188e-05
sg6
S'125.jpg'
p1282
sg8
(lp1283
sg13
(lp1284
S'physical'
p1285
asg16
F0.0
sg17
F1506372586.124
sg18
I1
sg19
(lp1286
(lp1287
F1506372586.124
ag1281
aF0.0
aasbsI126
(imyfunction
mondai
p1288
(dp1289
g3
S'2017-09-26 06:12:43'
p1290
sg5
F6.958949118534244e-05
sg6
S'126.jpg'
p1291
sg8
(lp1292
sg13
(lp1293
S'physical'
p1294
asg16
F0.0
sg17
F1506373963.589
sg18
I2
sg19
(lp1295
(lp1296
F1506373963.589
ag1290
aF0.0
aasbsI127
(imyfunction
mondai
p1297
(dp1298
g3
S'2017-09-26 22:42:13'
p1299
sg5
F0.00013834641445900278
sg6
S'127.jpg'
p1300
sg8
(lp1301
sg13
(lp1302
S'physical'
p1303
asg16
F0.0
sg17
F1506433333.109
sg18
I1
sg19
(lp1304
(lp1305
F1506433333.109
ag1299
aF0.0
aasbsI128
(imyfunction
mondai
p1306
(dp1307
g3
S'2017-09-26 22:43:06'
p1308
sg5
F0.0001384317864360089
sg6
S'128.jpg'
p1309
sg8
(lp1310
sg13
(lp1311
S'physical'
p1312
asg16
F0.0
sg17
F1506433386.409
sg18
I1
sg19
(lp1313
(lp1314
F1506433386.409
ag1308
aF0.0
aasbsI129
(imyfunction
mondai
p1315
(dp1316
g3
S'2017-09-27 05:41:54'
p1317
sg5
F0.003933941666567586
sg6
S'129.png'
p1318
sg8
(lp1319
sg13
(lp1320
S'physical'
p1321
asg16
F0.4
sg17
F1506458514.65
sg18
I5
sg19
(lp1322
(lp1323
F1506458514.65
ag1317
aF0.4
aasbsI130
(imyfunction
mondai
p1324
(dp1325
g3
S'2017-09-27 06:04:10'
p1326
sg5
F0.00018804354884531969
sg6
S'130.jpg'
p1327
sg8
(lp1328
sg13
(lp1329
S'physical'
p1330
asg16
F0.0
sg17
F1506459850.374
sg18
I2
sg19
(lp1331
(lp1332
F1506459850.374
ag1326
aF0.0
aasbsI131
(imyfunction
mondai
p1333
(dp1334
g3
S'2017-09-27 06:51:31'
p1335
sg5
F0.00019433084131327845
sg6
S'131.jpg'
p1336
sg8
(lp1337
sg13
(lp1338
S'physical'
p1339
asg16
F0.0
sg17
F1506462691.94
sg18
I2
sg19
(lp1340
(lp1341
F1506462691.94
ag1335
aF0.0
aasbsI132
(imyfunction
mondai
p1342
(dp1343
g3
S'2017-09-27 18:17:18'
p1344
sg5
F0.00031287073142067585
sg6
S'132.jpg'
p1345
sg8
(lp1346
sg13
(lp1347
S'physical'
p1348
asg16
F0.0
sg17
F1506503838.042
sg18
I3
sg19
(lp1349
(lp1350
F1506503838.042
ag1344
aF0.0
aasbsI133
(imyfunction
mondai
p1351
(dp1352
g3
S'2017-09-27 18:49:29'
p1353
sg5
F0.0003199437870551636
sg6
S'133.jpg'
p1354
sg8
(lp1355
sg13
(lp1356
S'physical'
p1357
asg16
F0.0
sg17
F1506505769.532
sg18
I3
sg19
(lp1358
(lp1359
F1506505769.532
ag1353
aF0.0
aasbsI134
(imyfunction
mondai
p1360
(dp1361
g3
S'2017-09-27 19:31:04'
p1362
sg5
F0.0003293188828682628
sg6
S'134.jpg'
p1363
sg8
(lp1364
sg13
(lp1365
S'physical'
p1366
asg16
F0.0
sg17
F1506508264.869
sg18
I2
sg19
(lp1367
(lp1368
F1506508264.869
ag1362
aF0.0
aasbsI135
(imyfunction
mondai
p1369
(dp1370
g3
S'2017-09-27 19:51:49'
p1371
sg5
F0.00033409792357241944
sg6
S'135.jpg'
p1372
sg8
(lp1373
sg13
(lp1374
S'physical'
p1375
asg16
F0.0
sg17
F1506509509.686
sg18
I3
sg19
(lp1376
(lp1377
F1506509509.686
ag1371
aF0.0
aasbsI136
(imyfunction
mondai
p1378
(dp1379
g3
S'2017-09-27 21:50:01'
p1380
sg5
F0.0003626760928501529
sg6
S'136.jpg'
p1381
sg8
(lp1382
sg13
(lp1383
S'physical'
p1384
asg16
F0.0
sg17
F1506516601.052
sg18
I2
sg19
(lp1385
(lp1386
F1506516601.052
ag1380
aF0.0
aasbsI137
(imyfunction
mondai
p1387
(dp1388
g3
S'2017-09-27 22:11:51'
p1389
sg5
F0.00036821862603839123
sg6
S'137.jpg'
p1390
sg8
(lp1391
sg13
(lp1392
S'physical'
p1393
asg16
F0.0
sg17
F1506517911.457
sg18
I1
sg19
(lp1394
(lp1395
F1506517911.457
ag1389
aF0.0
aasbsI138
(imyfunction
mondai
p1396
(dp1397
g3
S'2017-09-30 12:05:52'
p1398
sg5
F0.004855431671036656
sg6
S'138.jpeg'
p1399
sg8
(lp1400
sg13
(lp1401
S'math'
p1402
asg16
F0.0
sg17
F1506740752.301
sg18
I1
sg19
(lp1403
(lp1404
F1506740752.301
ag1398
aF0.0
aasbsI139
(imyfunction
mondai
p1405
(dp1406
g3
S'2017-09-30 12:19:12'
p1407
sg5
F0.00490060932690522
sg6
S'139.jpeg'
p1408
sg8
(lp1409
sg13
(lp1410
S'math'
p1411
asg16
F0.0
sg17
F1506741552.498
sg18
I1
sg19
(lp1412
(lp1413
F1506741552.498
ag1407
aF0.0
aasbsI140
(imyfunction
mondai
p1414
(dp1415
g3
S'2017-09-30 14:27:38'
p1416
sg5
F0.0053577955118172945
sg6
S'140.jpeg'
p1417
sg8
(lp1418
sg13
(lp1419
S'math'
p1420
asg16
F0.0
sg17
F1506749258.778
sg18
I2
sg19
(lp1421
(lp1422
F1506749258.778
ag1416
aF0.0
aasbsI141
(imyfunction
mondai
p1423
(dp1424
g3
S'2017-09-30 14:48:36'
p1425
sg5
F0.005436376067474961
sg6
S'141.jpeg'
p1426
sg8
(lp1427
sg13
(lp1428
S'math'
p1429
asg16
F0.0
sg17
F1506750516.768
sg18
I1
sg19
(lp1430
(lp1431
F1506750516.768
ag1425
aF0.0
aasbsI142
(imyfunction
mondai
p1432
(dp1433
g3
S'2017-09-30 15:07:10'
p1434
sg5
F0.005506896248587856
sg6
S'142.jpeg'
p1435
sg8
(lp1436
sg13
(lp1437
S'math'
p1438
asg16
F0.0
sg17
F1506751630.334
sg18
I3
sg19
(lp1439
(lp1440
F1506751630.334
ag1434
aF0.0
aasbsI143
(imyfunction
mondai
p1441
(dp1442
g3
S'2017-09-30 15:37:04'
p1443
sg5
F0.00562247831208814
sg6
S'143.jpeg'
p1444
sg8
(lp1445
sg13
(lp1446
S'math'
p1447
asg16
F0.0
sg17
F1506753424.981
sg18
I1
sg19
(lp1448
(lp1449
F1506753424.981
ag1443
aF0.0
aasbsI144
(imyfunction
mondai
p1450
(dp1451
g3
S'2017-09-30 16:24:05'
p1452
sg5
F0.005809039195666304
sg6
S'144.jpeg'
p1453
sg8
(lp1454
sg13
(lp1455
S'math'
p1456
asg16
F0.0
sg17
F1506756245.305
sg18
I1
sg19
(lp1457
(lp1458
F1506756245.305
ag1452
aF0.0
aasbsI145
(imyfunction
mondai
p1459
(dp1460
g3
S'2017-09-30 16:48:01'
p1461
sg5
F0.005906433548107601
sg6
S'145.jpeg'
p1462
sg8
(lp1463
sg13
(lp1464
S'math'
p1465
asg16
F0.0
sg17
F1506757681.878
sg18
I2
sg19
(lp1466
(lp1467
F1506757681.878
ag1461
aF0.0
aasbs.