(dp0
I1
(imyfunction
mondai
p1
(dp2
S'wordtime'
p3
S'2017-10-05 19:17:13'
p4
sS'remember'
p5
F0.13211845460635258
sS'imgnum'
p6
S'1.png'
p7
sS'memo'
p8
(lp9
(lp10
F1498515733.947
aS'2017-06-27 07:22:13'
p11
aS'answer 3'
p12
aasS'tag'
p13
(lp14
S'chemistry'
p15
asS'understand'
p16
F0.9993169534109716
sS'lasttime'
p17
F1507198633.675
sS'qusnum'
p18
I1
sS'history'
p19
(lp20
(lp21
F1498515733.947
ag11
aI0
aa(lp22
F1499145499.01
aS'2017-07-04 14:18:19'
p23
aI1
aa(lp24
F1507198633.675
ag4
aF0.0
aasbsI2
(imyfunction
mondai
p25
(dp26
g3
S'2017-10-01 21:56:41'
p27
sg5
F0.03606464090004082
sg6
S'2.jpg'
p28
sg8
(lp29
S'answer is 3'
p30
aS'0'
p31
asg13
(lp32
g15
asg16
F0.9990451863019874
sg17
F1506862601.36
sg19
(lp33
(lp34
F1498545603.881
aS'2017-06-27 15:40:03'
p35
aI0
aa(lp36
F1499146428.99
aS'2017-07-04 14:33:48'
p37
aI0
aa(lp38
F1506862601.36
ag27
aF1.0
aasbsI3
(imyfunction
mondai
p39
(dp40
g3
S'2017-10-06 11:30:14'
p41
sg5
F0.16574483775068757
sg6
S'3.jpg'
p42
sg8
(lp43
S'answer is 5'
p44
asg13
(lp45
g15
asg16
F0.9999994937209005
sg17
F1507257014.144
sg18
I1
sg19
(lp46
(lp47
F1498545806.078
aS'2017-06-27 15:43:26'
p48
aI0
aa(lp49
F1499798275.889
aS'2017-07-12 03:37:55'
p50
aI1
aa(lp51
F1507257014.144
ag41
aF0.0
aasbsI4
(imyfunction
mondai
p52
(dp53
g3
S'2017-10-06 11:32:06'
p54
sg5
F0.1658168833356902
sg6
S'4.jpg'
p55
sg8
(lp56
S'answer is 2'
p57
asg13
(lp58
g15
asg16
F0.9999994935591113
sg17
F1507257126.788
sg18
I1
sg19
(lp59
(lp60
F1498545978.31
aS'2017-06-27 15:46:18'
p61
aI0
aa(lp62
F1499798420.515
aS'2017-07-12 03:40:20'
p63
aI1
aa(lp64
F1507257126.788
ag54
aF0.0
aasbsI5
(imyfunction
mondai
p65
(dp66
g3
S'2017-10-06 11:32:40'
p67
sg5
F0.5494080171906455
sg6
S'5.jpg'
p68
sg8
(lp69
S'answer is 3'
p70
asg13
(lp71
g15
asg16
F1.9999994359480904
sg17
F1507257160.377
sg18
I1
sg19
(lp72
(lp73
F1498555372.608
aS'2017-06-27 18:22:52'
p74
aI0
aa(lp75
F1499798506.186
aS'2017-07-12 03:41:46'
p76
aI1
aa(lp77
F1507257160.377
ag67
aF1.0
aasbsI6
(imyfunction
mondai
p78
(dp79
g3
S'2017-10-06 11:35:03'
p80
sg5
F0.5495091712748859
sg6
S'6.jpg'
p81
sg8
(lp82
S'answer is 5'
p83
asg13
(lp84
g15
asg16
F1.999999434604304
sg17
F1507257303.532
sg18
I1
sg19
(lp85
(lp86
F1498555731.783
aS'2017-06-27 18:28:51'
p87
aI0
aa(lp88
F1499798659.768
aS'2017-07-12 03:44:19'
p89
aI1
aa(lp90
F1507257303.532
ag80
aF1.0
aasbsI7
(imyfunction
mondai
p91
(dp92
g3
S'2017-10-06 11:36:30'
p93
sg5
F0.5495706884618928
sg6
S'7.jpg'
p94
sg8
(lp95
S'answer is 1'
p96
asg13
(lp97
g15
asg16
F1.9999989826526265
sg17
F1507257390.81
sg18
I1
sg19
(lp98
(lp99
F1498606533.242
aS'2017-06-28 08:35:33'
p100
aI0
aa(lp101
F1499798707.42
aS'2017-07-12 03:45:07'
p102
aI1
aa(lp103
F1507257390.81
ag93
aF1.0
aasbsI8
(imyfunction
mondai
p104
(dp105
g3
S'2017-10-06 11:37:55'
p106
sg5
F0.5496302689118635
sg6
S'8.jpg'
p107
sg8
(lp108
S'answer is 4'
p109
asg13
(lp110
g15
asg16
F1.9999988380450375
sg17
F1507257475.181
sg18
I1
sg19
(lp111
(lp112
F1498618047.081
aS'2017-06-28 11:47:27'
p113
aI0
aa(lp114
F1499798738.24
aS'2017-07-12 03:45:38'
p115
aI1
aa(lp116
F1507257475.181
ag106
aF1.0
aasbsI9
(imyfunction
mondai
p117
(dp118
g3
S'2017-10-01 21:43:25'
p119
sg5
F0.03607958679699553
sg6
S'9.jpg'
p120
sg8
(lp121
S'answer is 2'
p122
asg13
(lp123
g15
asg16
F1.0
sg17
F1506861805.88
sg19
(lp124
(lp125
F1498631047.991
aS'2017-06-28 15:24:07'
p126
aI0
aa(lp127
F1506861805.88
ag119
aF1.0
aasbsI10
(imyfunction
mondai
p128
(dp129
g3
S'2017-10-01 21:52:59'
p130
sg5
F0.03615957128673727
sg6
S'10.jpg'
p131
sg8
(lp132
S'answer is 4'
p133
aS'0'
p134
asg13
(lp135
g15
asg16
F1.0
sg17
F1506862379.862
sg19
(lp136
(lp137
F1498631158.414
aS'2017-06-28 15:25:58'
p138
aI0
aa(lp139
F1506862379.862
ag130
aF1.0
aasbsI11
(imyfunction
mondai
p140
(dp141
g3
S'2017-10-01 22:03:45'
p142
sg5
F0.008070176561323309
sg6
S'11.jpg'
p143
sg8
(lp144
(lp145
F1499144054.099
aS'2017-07-04 13:54:14'
p146
aS'answer 2,3,2'
p147
aasg13
(lp148
g15
asg16
F0.66
sg17
F1506863025.03
sg19
(lp149
(lp150
F1499144054.099
ag146
aI0
aa(lp151
F1506863025.03
ag142
aF0.66
aasbsI12
(imyfunction
mondai
p152
(dp153
g3
S'2017-10-01 22:10:11'
p154
sg5
F0.036303744859542283
sg6
S'12.jpg'
p155
sg8
(lp156
(lp157
F1499144401.683
aS'2017-07-04 14:00:01'
p158
aS'answer 3'
p159
aasg13
(lp160
g15
asg16
F1.0
sg17
F1506863411.276
sg19
(lp161
(lp162
F1499144401.683
ag158
aI0
aa(lp163
F1506863411.276
ag154
aF1.0
aasbsI13
(imyfunction
mondai
p164
(dp165
g3
S'2017-10-02 00:01:23'
p166
sg5
F0.038403252860074705
sg6
S'13.jpg'
p167
sg8
(lp168
(lp169
F1499144716.146
aS'2017-07-04 14:05:16'
p170
aS'answer 3'
p171
aasg13
(lp172
g15
asg16
F1.0084715513436913
sg17
F1506870083.757
sg18
I1
sg19
(lp173
F1499144716.146
ag170
aI0
a(lp174
F1506870083.757
ag166
aF1.0
aasbsI14
(imyfunction
mondai
p175
(dp176
g3
S'2017-10-01 22:21:15'
p177
sg5
F0.03639687705396812
sg6
S'14.jpg'
p178
sg8
(lp179
sg13
(lp180
S'math'
p181
asg16
F1.0
sg17
F1506864075.366
sg19
(lp182
(lp183
F1499153099.088
aS'2017-07-04 16:24:59'
p184
aI0
aa(lp185
F1506864075.366
ag177
aF1.0
aasbsI15
(imyfunction
mondai
p186
(dp187
g3
S'2017-10-01 22:37:19'
p188
sg5
F0.036532497961572666
sg6
S'15.png'
p189
sg8
(lp190
sg13
(lp191
g181
asg16
F1.0
sg17
F1506865039.394
sg18
I1
sg19
(lp192
(lp193
F1499166125.188
aS'2017-07-04 20:02:05'
p194
aI0
aa(lp195
F1506865039.394
ag188
aF1.0
aasbsI16
(imyfunction
mondai
p196
(dp197
g3
S'2017-10-09 16:39:54'
p198
sg5
F0.2800304673381995
sg6
S'16.png'
p199
sg8
(lp200
S'\xbb\xad\xcd\xbc\xba\xf3\xd5\xd2\xbd\xbb\xb5\xe3'
p201
asg13
(lp202
S'math'
p203
asg16
F0.48845452687743035
sg17
F1507534794.363
sg18
I1
sg19
(lp204
(lp205
F1499170126.383
aS'2017-07-04 21:08:46'
p206
aI0
aa(lp207
F1506867140.211
aS'2017-10-01 23:12:20'
p208
aF0.5
aa(lp209
F1507534794.363
ag198
aF0.0
aasbsI17
(imyfunction
mondai
p210
(dp211
g3
S'2017-10-01 23:20:09'
p212
sg5
F0.036896596912223
sg6
S'17.jpg'
p213
sg8
(lp214
S'answer is 4'
p215
asg13
(lp216
S'chemistry'
p217
asg16
F1.0
sg17
F1506867609.907
sg18
I1
sg19
(lp218
(lp219
F1499177974.623
aS'2017-07-04 23:19:34'
p220
aI0
aa(lp221
F1506867609.907
ag212
aF1.0
aasbsI18
(imyfunction
mondai
p222
(dp223
g3
S'2017-10-01 23:48:15'
p224
sg5
F0.03713732985846207
sg6
S'18.jpg'
p225
sg8
(lp226
S'answer is 1'
p227
asg13
(lp228
g217
asg16
F1.0
sg17
F1506869295.572
sg18
I1
sg19
(lp229
(lp230
F1499178166.958
aS'2017-07-04 23:22:46'
p231
aI0
aa(lp232
F1506869295.572
ag224
aF1.0
aasbsI19
(imyfunction
mondai
p233
(dp234
g3
S'2017-10-09 16:22:53'
p235
sg5
F0.11193948289811975
sg6
S'19.jpg'
p236
sg8
(lp237
sg13
(lp238
g203
asg16
F-0.0004638525900832135
sg17
F1507533773.486
sg18
I1
sg19
(lp239
(lp240
F1499238201.632
aS'2017-07-05 16:03:21'
p241
aI0
aa(lp242
F1506870571.946
aS'2017-10-02 00:09:31'
p243
aF0.0
aa(lp244
F1507533773.486
ag235
aF0.0
aasbsI20
(imyfunction
mondai
p245
(dp246
g3
S'2017-10-02 23:12:05'
p247
sg5
F0.0923034829771831
sg6
S'20.jpg'
p248
sg8
(lp249
sg13
(lp250
g203
asg16
F1.2
sg17
F1506953525.889
sg18
I9
sg19
(lp251
(lp252
F1499509485.541
aS'2017-07-08 19:24:45'
p253
aF0.2
aa(lp254
F1506953525.889
ag247
aF1.0
aasbsI21
(imyfunction
mondai
p255
(dp256
g3
S'2017-10-03 01:07:00'
p257
sg5
F0.052782788962693374
sg6
S'21.jpg'
p258
sg8
(lp259
sg13
(lp260
g217
asg16
F1.0
sg17
F1506960420.575
sg18
I2
sg19
(lp261
(lp262
F1499516368.113
aS'2017-07-08 21:19:28'
p263
aF0.5
aa(lp264
F1506960420.575
ag257
aF0.5
aasbsI22
(imyfunction
mondai
p265
(dp266
g3
S'2017-10-02 00:11:37'
p267
sg5
F5.205697776706052e-05
sg6
S'22.jpg'
p268
sg8
(lp269
sg13
(lp270
g217
asg16
F-1.2767226406916503e-37
sg17
F1506870697.511
sg18
I1
sg19
(lp271
(lp272
F1499530900.691
aS'2017-07-09 01:21:40'
p273
aI0
aa(lp274
F1506870697.511
ag267
aF0.0
aasbsI23
(imyfunction
mondai
p275
(dp276
g3
S'2017-10-02 00:16:00'
p277
sg5
F5.221595887330922e-05
sg6
S'23.jpg'
p278
sg8
(lp279
sg13
(lp280
g217
asg16
F-1.2735640649936628e-37
sg17
F1506870960.973
sg18
I1
sg19
(lp281
(lp282
F1499530950.137
aS'2017-07-09 01:22:30'
p283
aI0
aa(lp284
F1506870960.973
ag277
aF0.0
aasbsI24
(imyfunction
mondai
p285
(dp286
g3
S'2017-10-02 00:20:08'
p287
sg5
F0.03741243911584983
sg6
S'24.jpg'
p288
sg8
(lp289
sg13
(lp290
S'chemistry'
p291
asg16
F1.0
sg17
F1506871208.62
sg18
I1
sg19
(lp292
(lp293
F1499547136.371
aS'2017-07-09 05:52:16'
p294
aI0
aa(lp295
F1506871208.62
ag287
aF1.0
aasbsI25
(imyfunction
mondai
p296
(dp297
g3
S'2017-10-02 00:22:31'
p298
sg5
F5.245230219144338e-05
sg6
S'25.jpg'
p299
sg8
(lp300
sg13
(lp301
g291
asg16
F-1.5333235087123314e-37
sg17
F1506871351.16
sg18
I1
sg19
(lp302
(lp303
F1499547377.744
aS'2017-07-09 05:56:17'
p304
aI0
aa(lp305
F1506871351.16
ag298
aF0.0
aasbsI26
(imyfunction
mondai
p306
(dp307
g3
S'2017-10-02 00:25:09'
p308
sg5
F5.254822512902203e-05
sg6
S'26.jpg'
p309
sg8
(lp310
sg13
(lp311
g291
asg16
F-1.5313339114056128e-37
sg17
F1506871509.021
sg18
I1
sg19
(lp312
(lp313
F1499547423.422
aS'2017-07-09 05:57:03'
p314
aI0
aa(lp315
F1506871509.021
ag308
aF0.0
aasbsI27
(imyfunction
mondai
p316
(dp317
g3
S'2017-10-02 00:29:55'
p318
sg5
F0.03749717248575731
sg6
S'27.jpg'
p319
sg8
(lp320
sg13
(lp321
g291
asg16
F1.0
sg17
F1506871795.004
sg18
I1
sg19
(lp322
(lp323
F1499547463.182
aS'2017-07-09 05:57:43'
p324
aI0
aa(lp325
F1506871795.004
ag318
aF1.0
aasbsI28
(imyfunction
mondai
p326
(dp327
g3
S'2017-10-02 00:31:26'
p328
sg5
F0.03751034206311182
sg6
S'28.jpg'
p329
sg8
(lp330
sg13
(lp331
g291
asg16
F1.0
sg17
F1506871886.023
sg18
I1
sg19
(lp332
(lp333
F1499616196.736
aS'2017-07-10 01:03:16'
p334
aI0
aa(lp335
F1506871886.023
ag328
aF1.0
aasbsI29
(imyfunction
mondai
p336
(dp337
g3
S'2017-10-05 01:19:58'
p338
sg5
F0.2889287730975886
sg6
S'29.jpg'
p339
sg8
(lp340
sg13
(lp341
S'math'
p342
asg16
F1.55
sg17
F1507133998.435
sg18
I5
sg19
(lp343
(lp344
F1499616732.384
aS'2017-07-10 01:12:12'
p345
aF0.75
aa(lp346
F1507133998.435
ag338
aF0.8
aasbsI30
(imyfunction
mondai
p347
(dp348
g3
S'2017-10-02 00:32:05'
p349
sg5
F0.03751604039209275
sg6
S'30.png'
p350
sg8
(lp351
sg13
(lp352
g291
asg16
F1.0
sg17
F1506871925.396
sg18
I1
sg19
(lp353
(lp354
F1499680704.857
aS'2017-07-10 18:58:24'
p355
aI0
aa(lp356
F1506871925.396
ag349
aF1.0
aasbsI31
(imyfunction
mondai
p357
(dp358
g3
S'2017-10-03 00:04:06'
p359
sg5
F0.020435426356365936
sg6
S'31.jpg'
p360
sg8
(lp361
sg13
(lp362
g342
asg16
F0.75
sg17
F1506956646.764
sg18
I10
sg19
(lp363
(lp364
F1499797297.774
aS'2017-07-12 03:21:37'
p365
aF0.45
aa(lp366
F1506956646.764
ag359
aF0.3
aasbsI32
(imyfunction
mondai
p367
(dp368
g3
S'2017-10-02 22:55:47'
p369
sg5
F0.024668084519044186
sg6
S'32.jpg'
p370
sg8
(lp371
sg13
(lp372
g342
asg16
F0.8
sg17
F1506952547.162
sg18
I4
sg19
(lp373
(lp374
F1499797470.167
aS'2017-07-12 03:24:30'
p375
aF0.05
aa(lp376
F1506952547.162
ag369
aF0.75
aasbsI33
(imyfunction
mondai
p377
(dp378
g3
S'2017-10-02 22:33:57'
p379
sg5
F0.050945527054904974
sg6
S'33.jpg'
p380
sg8
(lp381
sg13
(lp382
S'physics'
p383
asg16
F1.0
sg17
F1506951237.584
sg18
I1
sg19
(lp384
(lp385
F1500064604.639
aS'2017-07-15 05:36:44'
p386
aI0
aa(lp387
F1506951237.584
ag379
aF1.0
aasbsI34
(imyfunction
mondai
p388
(dp389
g3
S'2017-10-03 01:17:02'
p390
sg5
F0.00037061886538330687
sg6
S'34.jpg'
p391
sg8
(lp392
sg13
(lp393
S'physical'
p394
asg16
F0.1
sg17
F1506961022.079
sg18
I9
sg19
(lp395
(lp396
F1502980173.751
aS'2017-08-17 23:29:33'
p397
aF0.0
aa(lp398
F1506961022.079
ag390
aF0.1
aasbsI35
(imyfunction
mondai
p399
(dp400
g3
S'2017-10-06 17:28:34'
p401
sg5
F0.37165722015962754
sg6
S'35.jpeg'
p402
sg8
(lp403
sg13
(lp404
S'physical'
p405
asg16
F1.49999999999965
sg17
F1507278514.74
sg18
I2
sg19
(lp406
(lp407
F1502986373.885
aS'2017-08-18 01:12:53'
p408
aF0.5
aa(lp409
F1507278514.74
ag401
aF1.0
aasbsI36
(imyfunction
mondai
p410
(dp411
g3
S'2017-08-19 01:39:30'
p412
sg5
F5.6175954407316934e-11
sg6
S'36.jpeg'
p413
sg8
(lp414
sg13
(lp415
S'physical'
p416
asg16
F0.75
sg17
F1503074370.742
sg18
I0
sg19
(lp417
(lp418
F1503074370.742
ag412
aF0.75
aasbsI37
(imyfunction
mondai
p419
(dp420
g3
S'2017-10-06 20:27:41'
p421
sg5
F0.15456272007360075
sg6
S'37.jpeg'
p422
sg8
(lp423
sg13
(lp424
S'physical'
p425
asg16
F0.8999999999889152
sg17
F1507289261.527
sg18
I3
sg19
(lp426
(lp427
F1503075931.234
aS'2017-08-19 02:05:31'
p428
aF0.6
aa(lp429
F1507289261.527
ag421
aF0.3
aasbsI38
(imyfunction
mondai
p430
(dp431
g3
S'2017-08-19 03:13:53'
p432
sg5
F2.038206090624434e-10
sg6
S'38.jpeg'
p433
sg8
(lp434
sg13
(lp435
S'physical'
p436
asg16
F0.8
sg17
F1503080033.486
sg19
(lp437
(lp438
F1503080033.486
ag432
aF0.8
aasbsI39
(imyfunction
mondai
p439
(dp440
g3
S'2017-08-19 03:42:09'
p441
sg5
F5.83146247791969e-11
sg6
S'39.jpeg'
p442
sg8
(lp443
sg13
(lp444
S'physical'
p445
asg16
F0.75
sg17
F1503081729.58
sg19
(lp446
(lp447
F1503081729.58
ag441
aF0.75
aasbsI40
(imyfunction
mondai
p448
(dp449
g3
S'2017-08-19 03:59:08'
p450
sg5
F2.10167817614488e-09
sg6
S'40.jpeg'
p451
sg8
(lp452
sg13
(lp453
S'physical'
p454
asg16
F0.9
sg17
F1503082748.531
sg19
(lp455
(lp456
F1503082748.531
ag450
aF0.9
aasbsI41
(imyfunction
mondai
p457
(dp458
g3
S'2017-10-06 20:44:43'
p459
sg5
F0.07502332176553862
sg6
S'41.jpg'
p460
sg8
(lp461
sg13
(lp462
S'physical'
p463
asg16
F0.5999999999734331
sg17
F1507290283.108
sg18
I2
sg19
(lp464
(lp465
F1503222950.967
aS'2017-08-20 18:55:50'
p466
aF0.6
aa(lp467
F1507290283.108
ag459
aF0.0
aasbsI42
(imyfunction
mondai
p468
(dp469
g3
S'2017-10-05 01:55:43'
p470
sg5
F0.004290616499500046
sg6
S'42.jpg'
p471
sg8
(lp472
sg13
(lp473
S'physical'
p474
asg16
F0.19999999999999984
sg17
F1507136143.167
sg18
I4
sg19
(lp475
(lp476
F1503226800.354
aS'2017-08-20 20:00:00'
p477
aF0.2
aa(lp478
F1507136143.167
ag470
aF0.0
aasbsI43
(imyfunction
mondai
p479
(dp480
g3
S'2017-10-03 01:20:37'
p481
sg5
F0.0001484518395263174
sg6
S'43.png'
p482
sg8
(lp483
sg13
(lp484
S'chemistry'
p485
asg16
F-1.8098353944148892e-19
sg17
F1506961237.95
sg18
I1
sg19
(lp486
(lp487
F1503232569.843
aS'2017-08-20 21:36:09'
p488
aF0.0
aa(lp489
F1506961237.95
ag481
aF0.0
aasbsI44
(imyfunction
mondai
p490
(dp491
g3
S'2017-10-06 18:17:47'
p492
sg5
F0.052359680037921484
sg6
S'44.png'
p493
sg8
(lp494
sg13
(lp495
S'chemistry'
p496
asg16
F0.49999999999820877
sg17
F1507281467.536
sg18
I1
sg19
(lp497
(lp498
F1503233740.794
aS'2017-08-20 21:55:40'
p499
aF0.5
aa(lp500
F1507281467.536
ag492
aF0.0
aasbsI45
(imyfunction
mondai
p501
(dp502
g3
S'2017-10-03 01:24:41'
p503
sg5
F0.00014887171757853415
sg6
S'45.png'
p504
sg8
(lp505
sg13
(lp506
S'chemistry'
p507
asg16
F-2.0662316017965216e-19
sg17
F1506961481.977
sg18
I1
sg19
(lp508
(lp509
F1503244261.055
aS'2017-08-21 00:51:01'
p510
aF0.0
aa(lp511
F1506961481.977
ag503
aF0.0
aasbsI46
(imyfunction
mondai
p512
(dp513
g3
S'2017-10-08 14:44:51'
p514
sg5
F0.23961737005162934
sg6
S'46.png'
p515
sg8
(lp516
S'answer is 7'
p517
asg13
(lp518
S'chemistry'
p519
asg16
F0.7499999994412296
sg17
F1507441491.578
sg18
I1
sg19
(lp520
(lp521
F1503245428.763
aS'2017-08-21 01:10:28'
p522
aF0.75
aa(lp523
F1507441491.578
ag514
aF0.0
aasbsI47
(imyfunction
mondai
p524
(dp525
g3
S'2017-10-03 01:43:06'
p526
sg5
F0.00015078736098786115
sg6
S'47.png'
p527
sg8
(lp528
sg13
(lp529
S'chemistry'
p530
asg16
F-2.0990110472453477e-19
sg17
F1506962586.658
sg18
I1
sg19
(lp531
(lp532
F1503246725.658
aS'2017-08-21 01:32:05'
p533
aF0.0
aa(lp534
F1506962586.658
ag526
aF0.0
aasbsI48
(imyfunction
mondai
p535
(dp536
g3
S'2017-10-03 01:46:05'
p537
sg5
F0.00015110034050427675
sg6
S'48.png'
p538
sg8
(lp539
sg13
(lp540
S'chemistry'
p541
asg16
F-2.1089833665454635e-19
sg17
F1506962765.807
sg18
I1
sg19
(lp542
(lp543
F1503247314.318
aS'2017-08-21 01:41:54'
p544
aF0.0
aa(lp545
F1506962765.807
ag537
aF0.0
aasbsI49
(imyfunction
mondai
p546
(dp547
g3
S'2017-10-03 02:01:29'
p548
sg5
F0.05345278163343105
sg6
S'49.png'
p549
sg8
(lp550
sg13
(lp551
S'chemistry'
p552
asg16
F1.0
sg17
F1506963689.996
sg18
I0
sg19
(lp553
(lp554
F1503255138.538
aS'2017-08-21 03:52:18'
p555
aF0.0
aa(lp556
F1506963689.996
ag548
aF1.0
aasbsI50
(imyfunction
mondai
p557
(dp558
g3
S'2017-10-03 02:28:01'
p559
sg5
F0.00015556423799797695
sg6
S'50.png'
p560
sg8
(lp561
sg13
(lp562
S'chemistry'
p563
asg16
F-2.621417900670252e-19
sg17
F1506965281.311
sg18
I1
sg19
(lp564
(lp565
F1503268622.629
aS'2017-08-21 07:37:02'
p566
aF0.0
aa(lp567
F1506965281.311
ag559
aF0.0
aasbsI51
(imyfunction
mondai
p568
(dp569
g3
S'2017-10-06 18:22:55'
p570
sg5
F0.18235991636605195
sg6
S'51.jpg'
p571
sg8
(lp572
sg13
(lp573
S'chemistry'
p574
asg16
F0.9999999999977303
sg17
F1507281775.99
sg18
I2
sg19
(lp575
(lp576
F1503269475.48
aS'2017-08-21 07:51:15'
p577
aF0.5
aa(lp578
F1507281775.99
ag570
aF0.5
aasbsI52
(imyfunction
mondai
p579
(dp580
g3
S'2017-10-08 14:35:09'
p581
sg5
F0.6040062401197368
sg6
S'52.jpg'
p582
sg8
(lp583
sg13
(lp584
S'chemistry'
p585
asg16
F1.699999999808111
sg17
F1507440909.042
sg18
I2
sg19
(lp586
(lp587
F1503269869.663
aS'2017-08-21 07:57:49'
p588
aF0.7
aa(lp589
F1507440909.042
ag581
aF1.0
aasbsI53
(imyfunction
mondai
p590
(dp591
g3
S'2017-10-06 18:10:27'
p592
sg5
F0.25451310260907933
sg6
S'53.png'
p593
sg8
(lp594
sg13
(lp595
S'math'
p596
asg16
F1.1999999999991968
sg17
F1507281027.181
sg18
I4
sg19
(lp597
(lp598
F1503336047.871
aS'2017-08-22 02:20:47'
p599
aF0.45
aa(lp600
F1507281027.181
ag592
aF0.75
aasbsI54
(imyfunction
mondai
p601
(dp602
g3
S'2017-10-03 22:48:41'
p603
sg5
F0.016618007589772093
sg6
S'54.png'
p604
sg8
(lp605
sg13
(lp606
S'math'
p607
asg16
F0.6
sg17
F1507038521.394
sg18
I6
sg19
(lp608
(lp609
F1503352854.527
aS'2017-08-22 07:00:54'
p610
aF0.1
aa(lp611
F1507038521.394
ag603
aF0.5
aasbsI55
(imyfunction
mondai
p612
(dp613
g3
S'2017-10-03 12:44:19'
p614
sg5
F0.025761147883331132
sg6
S'55.jpg'
p615
sg8
(lp616
sg13
(lp617
S'physical'
p618
asg16
F0.75
sg17
F1507002259.751
sg18
I4
sg19
(lp619
(lp620
F1503367103.179
aS'2017-08-22 10:58:23'
p621
aF0.0
aa(lp622
F1507002259.751
ag614
aF0.75
aasbsI56
(imyfunction
mondai
p623
(dp624
g3
S'2017-10-05 20:11:01'
p625
sg5
F0.020530125575800907
sg6
S'56.png'
p626
sg8
(lp627
sg13
(lp628
S'chemistry'
p629
asg16
F0.39999999999961466
sg17
F1507201861.287
sg18
I5
sg19
(lp630
(lp631
F1503369253.09
aS'2017-08-22 11:34:13'
p632
aF0.4
aa(lp633
F1507201861.287
ag625
aF0.0
aasbsI57
(imyfunction
mondai
p634
(dp635
g3
S'2017-10-06 18:46:09'
p636
sg5
F0.2007437312364345
sg6
S'57.png'
p637
sg8
(lp638
sg13
(lp639
S'chemistry'
p640
asg16
F1.0499999999955751
sg17
F1507283169.396
sg18
I11
sg19
(lp641
(lp642
F1503370774.163
aS'2017-08-22 11:59:34'
p643
aF0.5
aa(lp644
F1507283169.396
ag636
aF0.55
aasbsI58
(imyfunction
mondai
p645
(dp646
g3
S'2017-10-06 20:00:56'
p647
sg5
F0.05457041404983091
sg6
S'58.png'
p648
sg8
(lp649
sg13
(lp650
S'chemistry'
p651
asg16
F0.4999999999944683
sg17
F1507287656.284
sg18
I4
sg19
(lp652
(lp653
F1503408670.508
aS'2017-08-22 22:31:10'
p654
aF0.5
aa(lp655
F1507287656.284
ag647
aF0.0
aasbsI59
(imyfunction
mondai
p656
(dp657
g3
S'2017-10-08 14:29:04'
p658
sg5
F0.3768474119725352
sg6
S'59.png'
p659
sg8
(lp660
sg13
(lp661
S'chemistry'
p662
asg16
F1.0999999999612475
sg17
F1507440544.214
sg18
I6
sg19
(lp663
(lp664
F1503436269.897
aS'2017-08-23 06:11:09'
p665
aF0.6
aa(lp666
F1507440544.214
ag658
aF0.5
aasbsI60
(imyfunction
mondai
p667
(dp668
g3
S'2017-10-03 22:14:47'
p669
sg5
F0.0003546761330662848
sg6
S'60.png'
p670
sg8
(lp671
sg13
(lp672
S'chemistry'
p673
asg16
F-2.3240177672528205e-18
sg17
F1507036487.553
sg18
I1
sg19
(lp674
(lp675
F1503528368.119
aS'2017-08-24 07:46:08'
p676
aF0.0
aa(lp677
F1507036487.553
ag669
aF0.0
aasbsI61
(imyfunction
mondai
p678
(dp679
g3
S'2017-10-03 22:53:48'
p680
sg5
F0.0714275005140552
sg6
S'61.png'
p681
sg8
(lp682
sg13
(lp683
S'chemistry'
p684
asg16
F1.0
sg17
F1507038828.001
sg18
I1
sg19
(lp685
(lp686
F1503759535.555
aS'2017-08-26 23:58:55'
p687
aF0.0
aa(lp688
F1507038828.001
ag680
aF1.0
aasbsI62
(imyfunction
mondai
p689
(dp690
g3
S'2017-10-03 22:58:11'
p691
sg5
F0.0003655273487406974
sg6
S'62.png'
p692
sg8
(lp693
S'\xa5\xa6 u'
p694
asg13
(lp695
S'chemistry'
p696
asg16
F-3.2885428981875427e-17
sg17
F1507039091.306
sg18
I1
sg19
(lp697
(lp698
F1503759908.733
aS'2017-08-27 00:05:08'
p699
aF0.0
aa(lp700
F1507039091.306
ag691
aF0.0
aasbsI63
(imyfunction
mondai
p701
(dp702
g3
S'2017-10-03 23:06:21'
p703
sg5
F0.00036760768594311534
sg6
S'63.png'
p704
sg8
(lp705
sg13
(lp706
S'chemistry'
p707
asg16
F-3.2900559759003024e-17
sg17
F1507039581.643
sg18
I1
sg19
(lp708
(lp709
F1503760438.814
aS'2017-08-27 00:13:58'
p710
aF0.0
aa(lp711
F1507039581.643
ag703
aF0.0
aasbsI64
(imyfunction
mondai
p712
(dp713
g3
S'2017-10-03 23:17:32'
p714
sg5
F0.00037047457437905363
sg6
S'64.png'
p715
sg8
(lp716
sg13
(lp717
S'chemistry'
p718
asg16
F-3.294906211238578e-17
sg17
F1507040252.843
sg18
I1
sg19
(lp719
(lp720
F1503761237.292
aS'2017-08-27 00:27:17'
p721
aF0.0
aa(lp722
F1507040252.843
ag714
aF0.0
aasbsI65
(imyfunction
mondai
p723
(dp724
g3
S'2017-10-04 01:24:08'
p725
sg5
F0.0004045166493321936
sg6
S'65.png'
p726
sg8
(lp727
sg13
(lp728
S'chemistry'
p729
asg16
F-3.088343801126597e-17
sg17
F1507047848.101
sg18
I1
sg19
(lp730
(lp731
F1503763238.777
aS'2017-08-27 01:00:38'
p732
aF0.0
aa(lp733
F1507047848.101
ag725
aF0.0
aasbsI66
(imyfunction
mondai
p734
(dp735
g3
S'2017-10-08 16:06:47'
p736
sg5
F0.26481598016275953
sg6
S'66.png'
p737
sg8
(lp738
sg13
(lp739
S'chemistry'
p740
asg16
F0.7999999793676873
sg17
F1507446407.946
sg18
I0
sg19
(lp741
(lp742
F1503764305.612
aS'2017-08-27 01:18:25'
p743
aF0.8
aa(lp744
F1507446407.946
ag736
aF0.0
aasbsI67
(imyfunction
mondai
p745
(dp746
g3
S'2017-10-08 14:43:04'
p747
sg5
F0.3779434356827269
sg6
S'67.png'
p748
sg8
(lp749
sg13
(lp750
S'chemistry'
p751
asg16
F1.0999999997045067
sg17
F1507441384.391
sg18
I2
sg19
(lp752
(lp753
F1503776416.902
aS'2017-08-27 04:40:16'
p754
aF0.6
aa(lp755
F1507441384.391
ag747
aF0.5
aasbsI68
(imyfunction
mondai
p756
(dp757
g3
S'2017-10-04 01:29:36'
p758
sg5
F0.0740506102748568
sg6
S'68.png'
p759
sg8
(lp760
sg13
(lp761
S'chemistry'
p762
asg16
F1.0
sg17
F1507048176.263
sg18
I2
sg19
(lp763
(lp764
F1503779158.5
aS'2017-08-27 05:25:58'
p765
aF0.0
aa(lp766
F1507048176.263
ag758
aF1.0
aasbsI69
(imyfunction
mondai
p767
(dp768
g3
S'2017-10-05 01:03:07'
p769
sg5
F0.0010836616074964738
sg6
S'69.png'
p770
sg8
(lp771
sg13
(lp772
S'chemistry'
p773
asg16
F-1.475936158364671e-17
sg17
F1507132987.358
sg18
I1
sg19
(lp774
(lp775
F1503784585.243
aS'2017-08-27 06:56:25'
p776
aF0.0
aa(lp777
F1507132987.358
ag769
aF0.0
aasbsI70
(imyfunction
mondai
p778
(dp779
g3
S'2017-10-05 01:36:08'
p780
sg5
F0.0011087909103336554
sg6
S'70.png'
p781
sg8
(lp782
sg13
(lp783
S'chemistry'
p784
asg16
F-3.8906083719910555e-17
sg17
F1507134968.032
sg18
I2
sg19
(lp785
(lp786
F1503870311.11
aS'2017-08-28 06:45:11'
p787
aF0.0
aa(lp788
F1507134968.032
ag780
aF0.0
aasbsI71
(imyfunction
mondai
p789
(dp790
g3
S'2017-10-05 01:41:30'
p791
sg5
F0.10363117478860635
sg6
S'71.jpg'
p792
sg8
(lp793
sg13
(lp794
S'chemistry'
p795
asg16
F1.0
sg17
F1507135290.64
sg18
I1
sg19
(lp796
(lp797
F1503879436.234
aS'2017-08-28 09:17:16'
p798
aF0.0
aa(lp799
F1507135290.64
ag791
aF1.0
aasbsI72
(imyfunction
mondai
p800
(dp801
g3
S'2017-10-05 12:25:33'
p802
sg5
F0.025522487578795754
sg6
S'72.png'
p803
sg8
(lp804
sg13
(lp805
S'chemistry'
p806
asg16
F0.4999999999999999
sg17
F1507173933.085
sg18
I2
sg19
(lp807
(lp808
F1504016042.217
aS'2017-08-29 23:14:02'
p809
aF0.0
aa(lp810
F1507173933.085
ag802
aF0.5
aasbsI73
(imyfunction
mondai
p811
(dp812
g3
S'2017-10-05 12:40:05'
p813
sg5
F0.12069734505196117
sg6
S'73.png'
p814
sg8
(lp815
sg13
(lp816
S'chemistry'
p817
asg16
F0.9999999999999999
sg17
F1507174805.144
sg18
I2
sg19
(lp818
(lp819
F1504016537.49
aS'2017-08-29 23:22:17'
p820
aF0.0
aa(lp821
F1507174805.144
ag813
aF1.0
aasbsI74
(imyfunction
mondai
p822
(dp823
g3
S'2017-10-05 13:00:30'
p824
sg5
F0.001783409951903261
sg6
S'74.jpg'
p825
sg8
(lp826
sg13
(lp827
S'chemistry'
p828
asg16
F-1.3365815349420956e-16
sg17
F1507176030.244
sg18
I1
sg19
(lp829
(lp830
F1504018002.57
aS'2017-08-29 23:46:42'
p831
aF0.0
aa(lp832
F1507176030.244
ag824
aF0.0
aasbsI75
(imyfunction
mondai
p833
(dp834
g3
S'2017-10-05 13:11:09'
p835
sg5
F0.001796661147496314
sg6
S'75.jpg'
p836
sg8
(lp837
sg13
(lp838
S'chemistry'
p839
asg16
F-1.3632074025443876e-16
sg17
F1507176669.845
sg18
I2
sg19
(lp840
(lp841
F1504020346.415
aS'2017-08-30 00:25:46'
p842
aF0.0
aa(lp843
F1507176669.845
ag835
aF0.0
aasbsI76
(imyfunction
mondai
p844
(dp845
g3
S'2017-10-05 13:13:53'
p846
sg5
F0.12164535925735594
sg6
S'76.png'
p847
sg8
(lp848
sg13
(lp849
S'chemistry'
p850
asg16
F0.9999999999999982
sg17
F1507176833.07
sg18
I1
sg19
(lp851
(lp852
F1504242498.728
aS'2017-09-01 14:08:18'
p853
aF0.0
aa(lp854
F1507176833.07
ag846
aF1.0
aasbsI77
(imyfunction
mondai
p855
(dp856
g3
S'2017-10-05 13:15:17'
p857
sg5
F0.0018018229695055362
sg6
S'77.jpg'
p858
sg8
(lp859
sg13
(lp860
S'chemistry'
p861
asg16
F-1.785161182950008e-15
sg17
F1507176917.717
sg18
I1
sg19
(lp862
(lp863
F1504242836.989
aS'2017-09-01 14:13:56'
p864
aF0.0
aa(lp865
F1507176917.717
ag857
aF0.0
aasbsI78
(imyfunction
mondai
p866
(dp867
g3
S'2017-10-05 13:18:40'
p868
sg5
F0.12178047607800654
sg6
S'78.png'
p869
sg8
(lp870
sg13
(lp871
S'chemistry'
p872
asg16
F0.9999999999999982
sg17
F1507177120.815
sg18
I2
sg19
(lp873
(lp874
F1504243511.051
aS'2017-09-01 14:25:11'
p875
aF0.0
aa(lp876
F1507177120.815
ag868
aF1.0
aasbsI79
(imyfunction
mondai
p877
(dp878
g3
S'2017-10-05 13:23:50'
p879
sg5
F0.1219262426716214
sg6
S'79.jpg'
p880
sg8
(lp881
sg13
(lp882
S'chemistry'
p883
asg16
F0.9999999999999982
sg17
F1507177430.882
sg18
I1
sg19
(lp884
(lp885
F1504244940.738
aS'2017-09-01 14:49:00'
p886
aF0.0
aa(lp887
F1507177430.882
ag879
aF1.0
aasbsI80
(imyfunction
mondai
p888
(dp889
g3
S'2017-10-05 13:31:41'
p890
sg5
F0.12214785143589993
sg6
S'80.jpg'
p891
sg8
(lp892
sg13
(lp893
S'chemistry'
p894
asg16
F0.9999999999999981
sg17
F1507177901.567
sg18
I1
sg19
(lp895
(lp896
F1504246658.078
aS'2017-09-01 15:17:38'
p897
aF0.0
aa(lp898
F1507177901.567
ag890
aF1.0
aasbsI81
(imyfunction
mondai
p899
(dp900
g3
S'2017-10-05 13:40:26'
p901
sg5
F0.0018335631016482999
sg6
S'81.png'
p902
sg8
(lp903
sg13
(lp904
S'chemistry'
p905
asg16
F-2.5723812036960078e-15
sg17
F1507178426.452
sg18
I1
sg19
(lp906
(lp907
F1504275909.657
aS'2017-09-01 23:25:09'
p908
aF0.0
aa(lp909
F1507178426.452
ag901
aF0.0
aasbsI82
(imyfunction
mondai
p910
(dp911
g3
S'2017-10-05 13:45:04'
p912
sg5
F0.0018394835460786416
sg6
S'82.png'
p913
sg8
(lp914
sg13
(lp915
S'chemistry'
p916
asg16
F-2.623170979143293e-15
sg17
F1507178704.982
sg18
I1
sg19
(lp917
(lp918
F1504277877.469
aS'2017-09-01 23:57:57'
p919
aF0.0
aa(lp920
F1507178704.982
ag912
aF0.0
aasbsI83
(imyfunction
mondai
p921
(dp922
g3
S'2017-10-05 13:51:58'
p923
sg5
F0.0018483007483551161
sg6
S'83.png'
p924
sg8
(lp925
sg13
(lp926
S'chemistry'
p927
asg16
F-2.6309049855391633e-15
sg17
F1507179118.134
sg18
I1
sg19
(lp928
(lp929
F1504278544.983
aS'2017-09-02 00:09:04'
p930
aF0.0
aa(lp931
F1507179118.134
ag923
aF0.0
aasbsI84
(imyfunction
mondai
p932
(dp933
g3
S'2017-10-08 14:58:31'
p934
sg5
F0.5352955992711427
sg6
S'84.png'
p935
sg8
(lp936
sg13
(lp937
S'chemistry'
p938
asg16
F1.4999999993144824
sg17
F1507442311.976
sg18
I4
sg19
(lp939
(lp940
F1504284587.342
aS'2017-09-02 01:49:47'
p941
aF0.5
aa(lp942
F1507442311.976
ag934
aF1.0
aasbsI85
(imyfunction
mondai
p943
(dp944
g3
S'2017-10-08 16:05:36'
p945
sg5
F0.540115451527466
sg6
S'85.jpg'
p946
sg8
(lp947
sg13
(lp948
S'chemistry'
p949
asg16
F1.4999999993216577
sg17
F1507446336.252
sg18
I2
sg19
(lp950
(lp951
F1504287036.941
aS'2017-09-02 02:30:36'
p952
aF0.5
aa(lp953
F1507446336.252
ag945
aF1.0
aasbsI86
(imyfunction
mondai
p954
(dp955
g3
S'2017-10-06 20:39:14'
p956
sg5
F0.17460101604580705
sg6
S'86.png'
p957
sg8
(lp958
sg13
(lp959
S'chemistry'
p960
asg16
F0.959999999985973
sg17
F1507289954.953
sg18
I6
sg19
(lp961
(lp962
F1504287911.136
aS'2017-09-02 02:45:11'
p963
aF0.3
aa(lp964
F1507289954.953
ag956
aF0.66
aasbsI87
(imyfunction
mondai
p965
(dp966
g3
S'2017-10-05 14:00:49'
p967
sg5
F0.0018597019839483669
sg6
S'87.png'
p968
sg8
(lp969
sg13
(lp970
S'chemistry'
p971
asg16
F-2.9523154222679466e-15
sg17
F1507179649.455
sg18
I1
sg19
(lp972
(lp973
F1504289034.929
aS'2017-09-02 03:03:54'
p974
aF0.0
aa(lp975
F1507179649.455
ag967
aF0.0
aasbsI88
(imyfunction
mondai
p976
(dp977
g3
S'2017-10-05 14:55:48'
p978
sg5
F0.0019320747665325568
sg6
S'88.png'
p979
sg8
(lp980
sg13
(lp981
S'chemistry'
p982
asg16
F-3.0461961254892452e-15
sg17
F1507182948.05
sg18
I2
sg19
(lp983
(lp984
F1504295038.18
aS'2017-09-02 04:43:58'
p985
aF0.0
aa(lp986
F1507182948.05
ag978
aF0.0
aasbsI89
(imyfunction
mondai
p987
(dp988
g3
S'2017-10-05 15:18:58'
p989
sg5
F0.0019634091332543487
sg6
S'89.jpg'
p990
sg8
(lp991
sg13
(lp992
S'chemistry'
p993
asg16
F-4.159729661901105e-15
sg17
F1507184338.043
sg18
I3
sg19
(lp994
(lp995
F1504323346.65
aS'2017-09-02 12:35:46'
p996
aF0.0
aa(lp997
F1507184338.043
ag989
aF0.0
aasbsI90
(imyfunction
mondai
p998
(dp999
g3
S'2017-10-05 15:33:09'
p1000
sg5
F0.12563101523755696
sg6
S'90.png'
p1001
sg8
(lp1002
sg13
(lp1003
S'chemistry'
p1004
asg16
F0.9999999999999959
sg17
F1507185189.481
sg18
I1
sg19
(lp1005
(lp1006
F1504323686.397
aS'2017-09-02 12:41:26'
p1007
aF0.0
aa(lp1008
F1507185189.481
ag1000
aF1.0
aasbsI91
(imyfunction
mondai
p1009
(dp1010
g3
S'2017-10-05 15:34:52'
p1011
sg5
F0.125680984342548
sg6
S'91.jpg'
p1012
sg8
(lp1013
sg13
(lp1014
S'chemistry'
p1015
asg16
F0.9999999999999959
sg17
F1507185292.556
sg18
I1
sg19
(lp1016
(lp1017
F1504324204.896
aS'2017-09-02 12:50:04'
p1018
aF0.0
aa(lp1019
F1507185292.556
ag1011
aF1.0
aasbsI92
(imyfunction
mondai
p1020
(dp1021
g3
S'2017-10-05 15:47:43'
p1022
sg5
F0.0020030124447583254
sg6
S'92.png'
p1023
sg8
(lp1024
sg13
(lp1025
S'chemistry'
p1026
asg16
F-4.178117625193385e-15
sg17
F1507186063.447
sg18
I1
sg19
(lp1027
(lp1028
F1504325453.141
aS'2017-09-02 13:10:53'
p1029
aF0.0
aa(lp1030
F1507186063.447
ag1022
aF0.0
aasbsI93
(imyfunction
mondai
p1031
(dp1032
g3
S'2017-10-05 15:53:41'
p1033
sg5
F0.002011331859413401
sg6
S'93.png'
p1034
sg8
(lp1035
sg13
(lp1036
S'chemistry'
p1037
asg16
F-4.260929810562285e-15
sg17
F1507186421.562
sg18
I1
sg19
(lp1038
(lp1039
F1504327506.993
aS'2017-09-02 13:45:06'
p1040
aF0.0
aa(lp1041
F1507186421.562
ag1033
aF0.0
aasbsI94
(imyfunction
mondai
p1042
(dp1043
g3
S'2017-10-05 16:02:25'
p1044
sg5
F0.12648526889584363
sg6
S'94.jpg'
p1045
sg8
(lp1046
sg13
(lp1047
S'chemistry'
p1048
asg16
F0.9999999999999957
sg17
F1507186945.999
sg18
I3
sg19
(lp1049
(lp1050
F1504330005.843
aS'2017-09-02 14:26:45'
p1051
aF0.0
aa(lp1052
F1507186945.999
ag1044
aF1.0
aasbsI95
(imyfunction
mondai
p1053
(dp1054
g3
S'2017-10-05 18:57:10'
p1055
sg5
F0.1317063642943216
sg6
S'95.png'
p1056
sg8
(lp1057
sg13
(lp1058
S'chemistry'
p1059
asg16
F0.9999999999999961
sg17
F1507197430.401
sg18
I1
sg19
(lp1060
(lp1061
F1504330578.003
aS'2017-09-02 14:36:18'
p1062
aF0.0
aa(lp1063
F1507197430.401
ag1055
aF1.0
aasbsI96
(imyfunction
mondai
p1064
(dp1065
g3
S'2017-10-06 19:55:59'
p1066
sg5
F0.18633086694239398
sg6
S'96.png'
p1067
sg8
(lp1068
sg13
(lp1069
S'chemistry'
p1070
asg16
F0.9999999999948661
sg17
F1507287359.586
sg18
I4
sg19
(lp1071
(lp1072
F1504331481.399
aS'2017-09-02 14:51:21'
p1073
aF0.25
aa(lp1074
F1507287359.586
ag1066
aF0.75
aasbsI97
(imyfunction
mondai
p1075
(dp1076
g3
S'2017-10-05 19:04:08'
p1077
sg5
F0.002295741995261036
sg6
S'97.png'
p1078
sg8
(lp1079
sg13
(lp1080
S'chemistry'
p1081
asg16
F-3.9558086867684985e-15
sg17
F1507197848.738
sg18
I1
sg19
(lp1082
(lp1083
F1504332514.446
aS'2017-09-02 15:08:34'
p1084
aF0.0
aa(lp1085
F1507197848.738
ag1077
aF0.0
aasbsI98
(imyfunction
mondai
p1086
(dp1087
g3
S'2017-10-08 14:20:23'
p1088
sg5
F0.4364107062268991
sg6
S'98.jpeg'
p1089
sg8
(lp1090
sg13
(lp1091
S'physical'
p1092
asg16
F1.2499999999911555
sg17
F1507440023.274
sg18
I4
sg19
(lp1093
(lp1094
F1504545992.782
aS'2017-09-05 02:26:32'
p1095
aF0.25
aa(lp1096
F1507440023.274
ag1088
aF1.0
aasbsI99
(imyfunction
mondai
p1097
(dp1098
g3
S'2017-10-06 10:48:27'
p1099
sg5
F0.04372770701552793
sg6
S'99.jpeg'
p1100
sg8
(lp1101
sg13
(lp1102
S'physical'
p1103
asg16
F0.49999999999997496
sg17
F1507254507.501
sg18
I2
sg19
(lp1104
(lp1105
F1504548613.492
aS'2017-09-05 03:10:13'
p1106
aF0.0
aa(lp1107
F1507254507.501
ag1099
aF0.5
aasbsI100
(imyfunction
mondai
p1108
(dp1109
g3
S'2017-09-05 03:23:51'
p1110
sg5
F6.171616038606148e-10
sg6
S'100.jpeg'
p1111
sg8
(lp1112
sg13
(lp1113
S'physical'
p1114
asg16
F0.5
sg17
F1504549431.259
sg18
I2
sg19
(lp1115
(lp1116
F1504549431.259
ag1110
aF0.5
aasbsI101
(imyfunction
mondai
p1117
(dp1118
g3
S'2017-10-06 11:05:21'
p1119
sg5
F0.02043681455933882
sg6
S'101.jpeg'
p1120
sg8
(lp1121
sg13
(lp1122
S'physical'
p1123
asg16
F0.2999999999999724
sg17
F1507255521.17
sg18
I3
sg19
(lp1124
(lp1125
F1504557916.173
aS'2017-09-05 05:45:16'
p1126
aF0.0
aa(lp1127
F1507255521.17
ag1119
aF0.3
aasbsI102
(imyfunction
mondai
p1128
(dp1129
g3
S'2017-10-06 11:09:51'
p1130
sg5
F0.16496483078845822
sg6
S'102.jpeg'
p1131
sg8
(lp1132
sg13
(lp1133
S'physical'
p1134
asg16
F0.9999999999999712
sg17
F1507255791.192
sg18
I1
sg19
(lp1135
(lp1136
F1504561998.287
aS'2017-09-05 06:53:18'
p1137
aF0.0
aa(lp1138
F1507255791.192
ag1130
aF1.0
aasbsI103
(imyfunction
mondai
p1139
(dp1140
g3
S'2017-10-06 11:25:34'
p1141
sg5
F0.023411916013058115
sg6
S'103.png'
p1142
sg8
(lp1143
sg13
(lp1144
S'physical'
p1145
asg16
F0.32999999999997015
sg17
F1507256734.83
sg18
I3
sg19
(lp1146
(lp1147
F1504566130.357
aS'2017-09-05 08:02:10'
p1148
aF0.0
aa(lp1149
F1507256734.83
ag1141
aF0.33
aasbsI104
(imyfunction
mondai
p1150
(dp1151
g3
S'2017-10-06 11:27:27'
p1152
sg5
F0.1656385745966075
sg6
S'104.jpg'
p1153
sg8
(lp1154
sg13
(lp1155
S'physical'
p1156
asg16
F0.9999999999999651
sg17
F1507256847.652
sg18
I1
sg19
(lp1157
(lp1158
F1504579510.387
aS'2017-09-05 11:45:10'
p1159
aF0.0
aa(lp1160
F1507256847.652
ag1152
aF1.0
aasbsI105
(imyfunction
mondai
p1161
(dp1162
g3
S'2017-09-23 10:18:16'
p1163
sg5
F9.790192795440541e-09
sg6
S'105.jpg'
p1164
sg8
(lp1165
sg13
(lp1166
S'physical'
p1167
asg16
F0.0
sg17
F1506129496.71
sg18
I4
sg19
(lp1168
(lp1169
F1506129496.71
ag1163
aF0.0
aasbsI106
(imyfunction
mondai
p1170
(dp1171
g3
S'2017-09-23 11:11:53'
p1172
sg5
F1.0161557857959783e-08
sg6
S'106.jpg'
p1173
sg8
(lp1174
sg13
(lp1175
S'physical'
p1176
asg16
F0.0
sg17
F1506132713.435
sg18
I2
sg19
(lp1177
(lp1178
F1506132713.435
ag1172
aF0.0
aasbsI107
(imyfunction
mondai
p1179
(dp1180
g3
S'2017-09-23 11:39:38'
p1181
sg5
F1.0359303247486948e-08
sg6
S'107.jpg'
p1182
sg8
(lp1183
sg13
(lp1184
S'physical'
p1185
asg16
F0.0
sg17
F1506134378.641
sg18
I2
sg19
(lp1186
(lp1187
F1506134378.641
ag1181
aF0.0
aasbsI108
(imyfunction
mondai
p1188
(dp1189
g3
S'2017-09-23 11:52:35'
p1190
sg5
F1.04528083766722e-08
sg6
S'108.jpg'
p1191
sg8
(lp1192
sg13
(lp1193
S'physical'
p1194
asg16
F0.0
sg17
F1506135155.006
sg18
I1
sg19
(lp1195
(lp1196
F1506135155.006
ag1190
aF0.0
aasbsI109
(imyfunction
mondai
p1197
(dp1198
g3
S'2017-09-23 12:33:50'
p1199
sg5
F1.0756625374261353e-08
sg6
S'109.png'
p1200
sg8
(lp1201
sg13
(lp1202
S'physical'
p1203
asg16
F0.0
sg17
F1506137630.469
sg18
I2
sg19
(lp1204
(lp1205
F1506137630.469
ag1199
aF0.0
aasbsI110
(imyfunction
mondai
p1206
(dp1207
g3
S'2017-09-23 12:51:11'
p1208
sg5
F1.088705805055289e-08
sg6
S'110.jpg'
p1209
sg8
(lp1210
sg13
(lp1211
S'physical'
p1212
asg16
F0.0
sg17
F1506138671.837
sg18
I2
sg19
(lp1213
(lp1214
F1506138671.837
ag1208
aF0.0
aasbsI111
(imyfunction
mondai
p1215
(dp1216
g3
S'2017-09-23 15:11:03'
p1217
sg5
F1.1997589654685465e-08
sg6
S'111.jpg'
p1218
sg8
(lp1219
sg13
(lp1220
S'physical'
p1221
asg16
F0.0
sg17
F1506147063.957
sg18
I2
sg19
(lp1222
(lp1223
F1506147063.957
ag1217
aF0.0
aasbsI112
(imyfunction
mondai
p1224
(dp1225
g3
S'2017-09-23 15:21:22'
p1226
sg5
F2.683225499863846e-05
sg6
S'112.png'
p1227
sg8
(lp1228
sg13
(lp1229
S'physical'
p1230
asg16
F0.5
sg17
F1506147682.265
sg18
I4
sg19
(lp1231
(lp1232
F1506147682.265
ag1226
aF0.5
aasbsI113
(imyfunction
mondai
p1233
(dp1234
g3
S'2017-09-23 15:34:50'
p1235
sg5
F1.2197269296403961e-08
sg6
S'113.png'
p1236
sg8
(lp1237
sg13
(lp1238
S'physical'
p1239
asg16
F0.0
sg17
F1506148490.104
sg18
I1
sg19
(lp1240
(lp1241
F1506148490.104
ag1235
aF0.0
aasbsI114
(imyfunction
mondai
p1242
(dp1243
g3
S'2017-09-23 17:33:58'
p1244
sg5
F1.3249333649416282e-08
sg6
S'114.jpg'
p1245
sg8
(lp1246
sg13
(lp1247
S'physical'
p1248
asg16
F0.0
sg17
F1506155638.422
sg18
I1
sg19
(lp1249
(lp1250
F1506155638.422
ag1244
aF0.0
aasbsI115
(imyfunction
mondai
p1251
(dp1252
g3
S'2017-09-23 18:07:32'
p1253
sg5
F1.3561802988278076e-08
sg6
S'115.jpg'
p1254
sg8
(lp1255
sg13
(lp1256
S'physical'
p1257
asg16
F0.0
sg17
F1506157652.404
sg18
I2
sg19
(lp1258
(lp1259
F1506157652.404
ag1253
aF0.0
aasbsI116
(imyfunction
mondai
p1260
(dp1261
g3
S'2017-09-23 18:34:12'
p1262
sg5
F1.381528939988478e-08
sg6
S'116.jpg'
p1263
sg8
(lp1264
sg13
(lp1265
S'physical'
p1266
asg16
F0.0
sg17
F1506159252.417
sg18
I1
sg19
(lp1267
(lp1268
F1506159252.417
ag1262
aF0.0
aasbsI117
(imyfunction
mondai
p1269
(dp1270
g3
S'2017-09-23 19:23:54'
p1271
sg5
F1.4300438158135873e-08
sg6
S'117.png'
p1272
sg8
(lp1273
sg13
(lp1274
S'physical'
p1275
asg16
F0.0
sg17
F1506162234.45
sg18
I2
sg19
(lp1276
(lp1277
F1506162234.45
ag1271
aF0.0
aasbsI118
(imyfunction
mondai
p1278
(dp1279
g3
S'2017-09-25 08:10:08'
p1280
sg5
F6.618093907077318e-08
sg6
S'118.jpg'
p1281
sg8
(lp1282
sg13
(lp1283
S'physical'
p1284
asg16
F0.0
sg17
F1506294608.09
sg18
I1
sg19
(lp1285
(lp1286
F1506294608.09
ag1280
aF0.0
aasbsI119
(imyfunction
mondai
p1287
(dp1288
g3
S'2017-09-25 08:31:45'
p1289
sg5
F6.718244530215331e-08
sg6
S'119.jpg'
p1290
sg8
(lp1291
sg13
(lp1292
S'physical'
p1293
asg16
F0.0
sg17
F1506295905.774
sg18
I1
sg19
(lp1294
(lp1295
F1506295905.774
ag1289
aF0.0
aasbsI120
(imyfunction
mondai
p1296
(dp1297
g3
S'2017-09-25 17:16:58'
p1298
sg5
F9.675111379066348e-08
sg6
S'120.jpg'
p1299
sg8
(lp1300
sg13
(lp1301
S'physical'
p1302
asg16
F0.0
sg17
F1506327418.434
sg18
I2
sg19
(lp1303
(lp1304
F1506327418.434
ag1298
aF0.0
aasbsI121
(imyfunction
mondai
p1305
(dp1306
g3
S'2017-09-25 18:41:13'
p1307
sg5
F1.0258048401574393e-07
sg6
S'121.jpg'
p1308
sg8
(lp1309
sg13
(lp1310
S'physical'
p1311
asg16
F0.0
sg17
F1506332473.34
sg18
I2
sg19
(lp1312
(lp1313
F1506332473.34
ag1307
aF0.0
aasbsI122
(imyfunction
mondai
p1314
(dp1315
g3
S'2017-09-25 19:07:57'
p1316
sg5
F1.0450231540560544e-07
sg6
S'122.jpg'
p1317
sg8
(lp1318
sg13
(lp1319
S'physical'
p1320
asg16
F0.0
sg17
F1506334077.056
sg18
I3
sg19
(lp1321
(lp1322
F1506334077.056
ag1316
aF0.0
aasbsI123
(imyfunction
mondai
p1323
(dp1324
g3
S'2017-09-25 19:31:39'
p1325
sg5
F1.0623660266794934e-07
sg6
S'123.jpg'
p1326
sg8
(lp1327
sg13
(lp1328
S'physical'
p1329
asg16
F0.0
sg17
F1506335499.155
sg18
I2
sg19
(lp1330
(lp1331
F1506335499.155
ag1325
aF0.0
aasbsI124
(imyfunction
mondai
p1332
(dp1333
g3
S'2017-09-26 05:15:57'
p1334
sg5
F1.594028849062341e-07
sg6
S'124.jpg'
p1335
sg8
(lp1336
sg13
(lp1337
S'physical'
p1338
asg16
F0.0
sg17
F1506370557.351
sg18
I1
sg19
(lp1339
(lp1340
F1506370557.351
ag1334
aF0.0
aasbsI125
(imyfunction
mondai
p1341
(dp1342
g3
S'2017-09-26 05:49:46'
p1343
sg5
F1.6319014157790589e-07
sg6
S'125.jpg'
p1344
sg8
(lp1345
sg13
(lp1346
S'physical'
p1347
asg16
F0.0
sg17
F1506372586.124
sg18
I1
sg19
(lp1348
(lp1349
F1506372586.124
ag1343
aF0.0
aasbsI126
(imyfunction
mondai
p1350
(dp1351
g3
S'2017-09-26 06:12:43'
p1352
sg5
F1.6581271286239727e-07
sg6
S'126.jpg'
p1353
sg8
(lp1354
sg13
(lp1355
S'physical'
p1356
asg16
F0.0
sg17
F1506373963.589
sg18
I2
sg19
(lp1357
(lp1358
F1506373963.589
ag1352
aF0.0
aasbsI127
(imyfunction
mondai
p1359
(dp1360
g3
S'2017-09-26 22:42:13'
p1361
sg5
F3.296416442410284e-07
sg6
S'127.jpg'
p1362
sg8
(lp1363
sg13
(lp1364
S'physical'
p1365
asg16
F0.0
sg17
F1506433333.109
sg18
I1
sg19
(lp1366
(lp1367
F1506433333.109
ag1361
aF0.0
aasbsI128
(imyfunction
mondai
p1368
(dp1369
g3
S'2017-09-26 22:43:06'
p1370
sg5
F3.2984506229839154e-07
sg6
S'128.jpg'
p1371
sg8
(lp1372
sg13
(lp1373
S'physical'
p1374
asg16
F0.0
sg17
F1506433386.409
sg18
I1
sg19
(lp1375
(lp1376
F1506433386.409
ag1370
aF0.0
aasbsI129
(imyfunction
mondai
p1377
(dp1378
g3
S'2017-09-27 05:41:54'
p1379
sg5
F8.028422237701228e-05
sg6
S'129.png'
p1380
sg8
(lp1381
sg13
(lp1382
S'physical'
p1383
asg16
F0.4
sg17
F1506458514.65
sg18
I5
sg19
(lp1384
(lp1385
F1506458514.65
ag1379
aF0.4
aasbsI130
(imyfunction
mondai
p1386
(dp1387
g3
S'2017-09-27 06:04:10'
p1388
sg5
F4.48056314814421e-07
sg6
S'130.jpg'
p1389
sg8
(lp1390
sg13
(lp1391
S'physical'
p1392
asg16
F0.0
sg17
F1506459850.374
sg18
I2
sg19
(lp1393
(lp1394
F1506459850.374
ag1388
aF0.0
aasbsI131
(imyfunction
mondai
p1395
(dp1396
g3
S'2017-09-27 06:51:31'
p1397
sg5
F4.630372121153506e-07
sg6
S'131.jpg'
p1398
sg8
(lp1399
sg13
(lp1400
S'physical'
p1401
asg16
F0.0
sg17
F1506462691.94
sg18
I2
sg19
(lp1402
(lp1403
F1506462691.94
ag1397
aF0.0
aasbsI132
(imyfunction
mondai
p1404
(dp1405
g3
S'2017-09-27 18:17:18'
p1406
sg5
F7.45485329299718e-07
sg6
S'132.jpg'
p1407
sg8
(lp1408
sg13
(lp1409
S'physical'
p1410
asg16
F0.0
sg17
F1506503838.042
sg18
I3
sg19
(lp1411
(lp1412
F1506503838.042
ag1406
aF0.0
aasbsI133
(imyfunction
mondai
p1413
(dp1414
g3
S'2017-09-27 18:49:29'
p1415
sg5
F7.623384851858198e-07
sg6
S'133.jpg'
p1416
sg8
(lp1417
sg13
(lp1418
S'physical'
p1419
asg16
F0.0
sg17
F1506505769.532
sg18
I3
sg19
(lp1420
(lp1421
F1506505769.532
ag1415
aF0.0
aasbsI134
(imyfunction
mondai
p1422
(dp1423
g3
S'2017-09-27 19:31:04'
p1424
sg5
F7.846767728156941e-07
sg6
S'134.jpg'
p1425
sg8
(lp1426
sg13
(lp1427
S'physical'
p1428
asg16
F0.0
sg17
F1506508264.869
sg18
I2
sg19
(lp1429
(lp1430
F1506508264.869
ag1424
aF0.0
aasbsI135
(imyfunction
mondai
p1431
(dp1432
g3
S'2017-09-27 19:51:49'
p1433
sg5
F7.960639189283954e-07
sg6
S'135.jpg'
p1434
sg8
(lp1435
sg13
(lp1436
S'physical'
p1437
asg16
F0.0
sg17
F1506509509.686
sg18
I3
sg19
(lp1438
(lp1439
F1506509509.686
ag1433
aF0.0
aasbsI136
(imyfunction
mondai
p1440
(dp1441
g3
S'2017-09-27 21:50:01'
p1442
sg5
F8.641578752983479e-07
sg6
S'136.jpg'
p1443
sg8
(lp1444
sg13
(lp1445
S'physical'
p1446
asg16
F0.0
sg17
F1506516601.052
sg18
I2
sg19
(lp1447
(lp1448
F1506516601.052
ag1442
aF0.0
aasbsI137
(imyfunction
mondai
p1449
(dp1450
g3
S'2017-09-27 22:11:51'
p1451
sg5
F8.773642150547908e-07
sg6
S'137.jpg'
p1452
sg8
(lp1453
sg13
(lp1454
S'physical'
p1455
asg16
F0.0
sg17
F1506517911.457
sg18
I1
sg19
(lp1456
(lp1457
F1506517911.457
ag1451
aF0.0
aasbsI138
(imyfunction
mondai
p1458
(dp1459
g3
S'2017-10-09 00:49:26'
p1460
sg5
F0.05857020657480514
sg6
S'138.jpeg'
p1461
sg8
(lp1462
sg13
(lp1463
S'math'
p1464
asg16
F-0.0001974049451956143
sg17
F1507477766.193
sg18
I1
sg19
(lp1465
(lp1466
F1506740752.301
aS'2017-09-30 12:05:52'
p1467
aF0.0
aa(lp1468
F1507477766.193
ag1460
aF0.0
aasbsI139
(imyfunction
mondai
p1469
(dp1470
g3
S'2017-10-09 01:04:20'
p1471
sg5
F0.05917986969782342
sg6
S'139.jpeg'
p1472
sg8
(lp1473
sg13
(lp1474
S'math'
p1475
asg16
F-0.00019718972442386826
sg17
F1507478660.639
sg18
I1
sg19
(lp1476
(lp1477
F1506741552.498
aS'2017-09-30 12:19:12'
p1478
aF0.0
aa(lp1479
F1507478660.639
ag1471
aF0.0
aasbsI140
(imyfunction
mondai
p1480
(dp1481
g3
S'2017-10-09 01:16:16'
p1482
sg5
F0.05966910485732287
sg6
S'140.jpeg'
p1483
sg8
(lp1484
sg13
(lp1485
S'math'
p1486
asg16
F-0.00021380765123203148
sg17
F1507479376.256
sg18
I2
sg19
(lp1487
(lp1488
F1506749258.778
aS'2017-09-30 14:27:38'
p1489
aF0.0
aa(lp1490
F1507479376.256
ag1482
aF0.0
aasbsI141
(imyfunction
mondai
p1491
(dp1492
g3
S'2017-10-09 01:21:37'
p1493
sg5
F0.05989121275636389
sg6
S'141.jpeg'
p1494
sg8
(lp1495
sg13
(lp1496
S'math'
p1497
asg16
F-0.0002161375707510039
sg17
F1507479697.815
sg18
I1
sg19
(lp1498
(lp1499
F1506750516.768
aS'2017-09-30 14:48:36'
p1500
aF0.0
aa(lp1501
F1507479697.815
ag1493
aF0.0
aasbsI142
(imyfunction
mondai
p1502
(dp1503
g3
S'2017-10-09 01:32:21'
p1504
sg5
F0.14171345697321366
sg6
S'142.jpeg'
p1505
sg8
(lp1506
sg13
(lp1507
S'math'
p1508
asg16
F0.32978268322060134
sg17
F1507480341.279
sg18
I3
sg19
(lp1509
(lp1510
F1506751630.334
aS'2017-09-30 15:07:10'
p1511
aF0.0
aa(lp1512
F1507480341.279
ag1504
aF0.33
aasbsI143
(imyfunction
mondai
p1513
(dp1514
g3
S'2017-10-09 01:46:19'
p1515
sg5
F0.06092663769900845
sg6
S'143.jpeg'
p1516
sg8
(lp1517
sg13
(lp1518
S'math'
p1519
asg16
F-0.00021973610544521443
sg17
F1507481179.374
sg18
I1
sg19
(lp1520
(lp1521
F1506753424.981
aS'2017-09-30 15:37:04'
p1522
aF0.0
aa(lp1523
F1507481179.374
ag1515
aF0.0
aasbsI144
(imyfunction
mondai
p1524
(dp1525
g3
S'2017-10-09 15:58:12'
p1526
sg5
F0.4793247503436657
sg6
S'144.jpeg'
p1527
sg8
(lp1528
sg13
(lp1529
S'math'
p1530
asg16
F0.9998743516878296
sg17
F1507532292.155
sg18
I1
sg19
(lp1531
(lp1532
F1506756245.305
aS'2017-09-30 16:24:05'
p1533
aF0.0
aa(lp1534
F1507532292.155
ag1526
aF1.0
aasbsI145
(imyfunction
mondai
p1535
(dp1536
g3
S'2017-10-09 16:09:15'
p1537
sg5
F0.28103523039790884
sg6
S'145.jpeg'
p1538
sg8
(lp1539
sg13
(lp1540
S'math'
p1541
asg16
F0.49987322288184377
sg17
F1507532955.989
sg18
I2
sg19
(lp1542
(lp1543
F1506757681.878
aS'2017-09-30 16:48:01'
p1544
aF0.0
aa(lp1545
F1507532955.989
ag1537
aF0.5
aasbsI146
(imyfunction
mondai
p1546
(dp1547
g3
S'2017-10-08 16:44:11'
p1548
sg5
F0.05821157048383193
sg6
S'146.png'
p1549
sg8
(lp1550
sg13
(lp1551
S'math'
p1552
asg16
F0.1
sg17
F1507448651.688
sg18
I8
sg19
(lp1553
(lp1554
F1507448651.688
ag1548
aF0.1
aasbsI147
(imyfunction
mondai
p1555
(dp1556
g3
S'2017-10-08 17:45:40'
p1557
sg5
F0.21950390084420926
sg6
S'147.png'
p1558
sg8
(lp1559
sg13
(lp1560
S'math'
p1561
asg16
F0.66
sg17
F1507452340.628
sg18
I9
sg19
(lp1562
(lp1563
F1507452340.628
ag1557
aF0.66
aasbsI148
(imyfunction
mondai
p1564
(dp1565
g3
S'2017-10-08 22:23:05'
p1566
sg5
F0.15053254642313668
sg6
S'148.png'
p1567
sg8
(lp1568
sg13
(lp1569
S'math'
p1570
asg16
F0.4
sg17
F1507468985.909
sg18
I9
sg19
(lp1571
(lp1572
F1507468985.909
ag1566
aF0.4
aasbsI149
(imyfunction
mondai
p1573
(dp1574
g3
S'2017-10-08 22:56:43'
p1575
sg5
F0.2980448730547948
sg6
S'149.png'
p1576
sg8
(lp1577
sg13
(lp1578
S'math'
p1579
asg16
F0.8
sg17
F1507471003.735
sg18
I10
sg19
(lp1580
(lp1581
F1507471003.735
ag1575
aF0.8
aasbsI150
(imyfunction
mondai
p1582
(dp1583
g3
S'2017-10-09 00:34:09'
p1584
sg5
F0.091765446668431
sg6
S'150.jpg'
p1585
sg8
(lp1586
sg13
(lp1587
S'math'
p1588
asg16
F0.16
sg17
F1507476849.026
sg18
I6
sg19
(lp1589
(lp1590
F1507476849.026
ag1584
aF0.16
aasbsI151
(imyfunction
mondai
p1591
(dp1592
g3
S'2017-10-09 17:25:35'
p1593
sg5
F0.19593899511814672
sg6
S'151.jpg'
p1594
sg8
(lp1595
sg13
(lp1596
S'math'
p1597
asg16
F0.25
sg17
F1507537535.679
sg18
I2
sg19
(lp1598
(lp1599
F1507537535.679
ag1593
aF0.25
aasbsI152
(imyfunction
mondai
p1600
(dp1601
g3
S'2017-10-09 17:45:24'
p1602
sg5
F0.11867371092279037
sg6
S'152.jpg'
p1603
sg8
(lp1604
sg13
(lp1605
S'math'
p1606
asg16
F0.0
sg17
F1507538724.533
sg18
I2
sg19
(lp1607
(lp1608
F1507538724.533
ag1602
aF0.0
aasbsI153
(imyfunction
mondai
p1609
(dp1610
g3
S'2017-10-09 18:00:02'
p1611
sg5
F0.1198859924246799
sg6
S'153.jpeg'
p1612
sg8
(lp1613
sg13
(lp1614
S'chemistry'
p1615
asg16
F0.0
sg17
F1507539602.653
sg18
I3
sg19
(lp1616
(lp1617
F1507539602.653
ag1611
aF0.0
aasbsI154
(imyfunction
mondai
p1618
(dp1619
g3
S'2017-10-09 18:05:17'
p1620
sg5
F0.29446992991129284
sg6
S'154.jpeg'
p1621
sg8
(lp1622
sg13
(lp1623
S'chemistry'
p1624
asg16
F0.5
sg17
F1507539917.682
sg18
I1
sg19
(lp1625
(lp1626
F1507539917.682
ag1620
aF0.5
aasbsI155
(imyfunction
mondai
p1627
(dp1628
g3
S'2017-10-09 18:14:04'
p1629
sg5
F0.1210595174537563
sg6
S'155.jpeg'
p1630
sg8
(lp1631
sg13
(lp1632
S'chemistry'
p1633
asg16
F0.0
sg17
F1507540444.282
sg18
I1
sg19
(lp1634
(lp1635
F1507540444.282
ag1629
aF0.0
aasbsI156
(imyfunction
mondai
p1636
(dp1637
g3
S'2017-10-09 18:17:43'
p1638
sg5
F0.12136669430770217
sg6
S'156.jpeg'
p1639
sg8
(lp1640
sg13
(lp1641
S'chemistry'
p1642
asg16
F0.0
sg17
F1507540663.236
sg18
I1
sg19
(lp1643
(lp1644
F1507540663.236
ag1638
aF0.0
aasbsI157
(imyfunction
mondai
p1645
(dp1646
g3
S'2017-10-09 18:41:03'
p1647
sg5
F0.12335030162395003
sg6
S'157.jpeg'
p1648
sg8
(lp1649
sg13
(lp1650
S'chemistry'
p1651
asg16
F0.0
sg17
F1507542063.935
sg18
I3
sg19
(lp1652
(lp1653
F1507542063.935
ag1647
aF0.0
aasbsI158
(imyfunction
mondai
p1654
(dp1655
g3
S'2017-10-09 18:47:08'
p1656
sg5
F0.3636992183211195
sg6
S'158.jpeg'
p1657
sg8
(lp1658
sg13
(lp1659
S'chemistry'
p1660
asg16
F0.66
sg17
F1507542428.917
sg18
I2
sg19
(lp1661
(lp1662
F1507542428.917
ag1656
aF0.66
aasbsI159
(imyfunction
mondai
p1663
(dp1664
g3
S'2017-10-09 18:55:53'
p1665
sg5
F0.1246266599187313
sg6
S'159.jpeg'
p1666
sg8
(lp1667
sg13
(lp1668
S'chemistry'
p1669
asg16
F0.0
sg17
F1507542953.359
sg18
I1
sg19
(lp1670
(lp1671
F1507542953.359
ag1665
aF0.0
aasbsI160
(imyfunction
mondai
p1672
(dp1673
g3
S'2017-10-09 19:10:15'
p1674
sg5
F0.1258766261501354
sg6
S'160.jpeg'
p1675
sg8
(lp1676
sg13
(lp1677
S'chemistry'
p1678
asg16
F0.0
sg17
F1507543815.607
sg18
I3
sg19
(lp1679
(lp1680
F1507543815.607
ag1674
aF0.0
aasbsI161
(imyfunction
mondai
p1681
(dp1682
g3
S'2017-10-09 19:18:28'
p1683
sg5
F0.4239218621354016
sg6
S'161.jpeg'
p1684
sg8
(lp1685
sg13
(lp1686
S'chemistry'
p1687
asg16
F0.8
sg17
F1507544308.072
sg18
I1
sg19
(lp1688
(lp1689
F1507544308.072
ag1683
aF0.8
aasbsI162
(imyfunction
mondai
p1690
(dp1691
g3
S'2017-10-09 19:28:23'
p1692
sg5
F0.1274714222526085
sg6
S'162.jpeg'
p1693
sg8
(lp1694
sg13
(lp1695
S'chemistry'
p1696
asg16
F0.0
sg17
F1507544903.377
sg18
I2
sg19
(lp1697
(lp1698
F1507544903.377
ag1692
aF0.0
aasbsI163
(imyfunction
mondai
p1699
(dp1700
g3
S'2017-10-09 20:53:01'
p1701
sg5
F0.13518814856243208
sg6
S'163.jpeg'
p1702
sg8
(lp1703
sg13
(lp1704
S'chemistry'
p1705
asg16
F0.0
sg17
F1507549981.563
sg18
I2
sg19
(lp1706
(lp1707
F1507549981.563
ag1701
aF0.0
aasbsI164
(imyfunction
mondai
p1708
(dp1709
g3
S'2017-10-09 21:02:21'
p1710
sg5
F0.13606712402250706
sg6
S'164.jpeg'
p1711
sg8
(lp1712
sg13
(lp1713
S'chemistry'
p1714
asg16
F0.0
sg17
F1507550541.506
sg18
I2
sg19
(lp1715
(lp1716
F1507550541.506
ag1710
aF0.0
aasbsI165
(imyfunction
mondai
p1717
(dp1718
g3
S'2017-10-09 21:08:22'
p1719
sg5
F0.1366365040669554
sg6
S'165.jpeg'
p1720
sg8
(lp1721
sg13
(lp1722
S'chemistry'
p1723
asg16
F0.0
sg17
F1507550902.297
sg18
I3
sg19
(lp1724
(lp1725
F1507550902.297
ag1719
aF0.0
aasbsI166
(imyfunction
mondai
p1726
(dp1727
g3
S'2017-10-11 07:58:16'
p1728
sg5
F0.5832654414937266
sg6
S'166.jpg'
p1729
sg8
(lp1730
(lp1731
g1728
aS'answer is 3'
p1732
aasg13
(lp1733
S'physical'
p1734
asg16
F0.0
sg17
F1507676296.193
sg18
I1
sg19
(lp1735
(lp1736
F1507676296.193
ag1728
aF0.0
aasbsI167
(imyfunction
mondai
p1737
(dp1738
g3
S'2017-10-11 08:23:17'
p1739
sg5
F0.5934910413106501
sg6
S'167.jpg'
p1740
sg8
(lp1741
(lp1742
g1739
aS'answer is 1'
p1743
aasg13
(lp1744
S'physical'
p1745
asg16
F0.0
sg17
F1507677797.802
sg18
I1
sg19
(lp1746
(lp1747
F1507677797.802
ag1739
aF0.0
aasbsI168
(imyfunction
mondai
p1748
(dp1749
g3
S'2017-10-11 15:27:59'
p1750
sg5
F0.7970708185932357
sg6
S'168.jpg'
p1751
sg8
(lp1752
(lp1753
g1750
aS'answer is 4'
p1754
aasg13
(lp1755
S'physical'
p1756
asg16
F0.0
sg17
F1507703279.013
sg18
I1
sg19
(lp1757
(lp1758
F1507703279.013
ag1750
aF0.0
aasbsI169
(imyfunction
mondai
p1759
(dp1760
g3
S'2017-10-11 16:49:30'
p1761
sg5
F0.8435023388845649
sg6
S'169.jpg'
p1762
sg8
(lp1763
(lp1764
g1761
aS'ans'
p1765
aasg13
(lp1766
S'physical'
p1767
asg16
F0.0
sg17
F1507708170.907
sg18
I1
sg19
(lp1768
(lp1769
F1507708170.907
ag1761
aF0.0
aasbsI170
(imyfunction
mondai
p1770
(dp1771
g3
S'2017-10-11 18:48:58'
p1772
sg5
F0.9164647779159595
sg6
S'170.jpg'
p1773
sg8
(lp1774
(lp1775
g1772
aS'answer is 1'
p1776
aasg13
(lp1777
S'physical'
p1778
asg16
F0.0
sg17
F1507715338.734
sg18
I1
sg19
(lp1779
(lp1780
F1507715338.734
ag1772
aF0.0
aasbsI171
(imyfunction
mondai
p1781
(dp1782
g3
S'2017-10-11 19:41:13'
p1783
sg5
F0.9503279785156482
sg6
S'171.jpg'
p1784
sg8
(lp1785
(lp1786
g1783
aS'answer is 3'
p1787
aasg13
(lp1788
S'physical'
p1789
asg16
F0.0
sg17
F1507718473.631
sg18
I1
sg19
(lp1790
(lp1791
F1507718473.631
ag1783
aF0.0
aasbsI172
(imyfunction
mondai
p1792
(dp1793
g3
S'2017-10-11 19:47:11'
p1794
sg5
F0.9542694535075339
sg6
S'172.jpg'
p1795
sg8
(lp1796
(lp1797
g1794
aS'answer is 4'
p1798
aasg13
(lp1799
S'chemistry'
p1800
asg16
F0.0
sg17
F1507718831.233
sg18
I1
sg19
(lp1801
(lp1802
F1507718831.233
ag1794
aF0.0
aasbsI173
(imyfunction
mondai
p1803
(dp1804
g3
S'2017-10-11 19:52:49'
p1805
sg5
F0.9580109892030426
sg6
S'173.jpg'
p1806
sg8
(lp1807
(lp1808
g1805
aS'answer is 4'
p1809
aasg13
(lp1810
S'chemistry'
p1811
asg16
F0.0
sg17
F1507719169.331
sg18
I1
sg19
(lp1812
(lp1813
F1507719169.331
ag1805
aF0.0
aasbsI174
(imyfunction
mondai
p1814
(dp1815
g3
S'2017-10-11 20:29:32'
p1816
sg5
F0.9827511882657611
sg6
S'174.jpg'
p1817
sg8
(lp1818
(lp1819
g1816
aS'answer is 1'
p1820
aasg13
(lp1821
S'chemistry'
p1822
asg16
F0.0
sg17
F1507721372.248
sg18
I1
sg19
(lp1823
(lp1824
F1507721372.248
ag1816
aF0.0
aasbsI175
(imyfunction
mondai
p1825
(dp1826
g3
S'2017-10-11 20:40:42'
p1827
sg5
F0.9903996443858472
sg6
S'175.jpg'
p1828
sg8
(lp1829
(lp1830
g1827
aS'answer is 6'
p1831
aasg13
(lp1832
S'chemistry'
p1833
asg16
F0.0
sg17
F1507722042.07
sg18
I1
sg19
(lp1834
(lp1835
F1507722042.07
ag1827
aF0.0
aasbsI176
(imyfunction
mondai
p1836
(dp1837
g3
S'2017-10-11 20:54:35'
p1838
sg5
F0.9999996296289476
sg6
S'176.jpg'
p1839
sg8
(lp1840
(lp1841
g1838
aS'answer is 2'
p1842
aasg13
(lp1843
S'chemistry'
p1844
asg16
F0.0
sg17
F1507722875.516
sg18
I1
sg19
(lp1845
(lp1846
F1507722875.516
ag1838
aF0.0
aasbsI177
(imyfunction
mondai
p1847
(dp1848
g3
S'2017-10-11 21:05:20'
p1849
sg5
F0.0
sg6
S'177.jpg'
p1850
sg8
(lp1851
(lp1852
g1849
aS'answer is 8'
p1853
aasg13
(lp1854
S'chemistry'
p1855
asg16
F0.0
sg17
F1507723520.985
sg18
I1
sg19
(lp1856
(lp1857
F1507723520.985
ag1849
aF0.0
aasbs.